
audio.elf:     file format elf32-littlearm

Sections:
Idx Name          Size      VMA       LMA       File off  Algn
  0 .text         000115f4  00400000  00400000  00010000  2**6
                  CONTENTS, ALLOC, LOAD, READONLY, CODE
  1 .ARM.exidx    00000008  004115f4  004115f4  000215f4  2**2
                  CONTENTS, ALLOC, LOAD, READONLY, DATA
  2 .relocate     000009c8  20400000  004115fc  00030000  2**3
                  CONTENTS, ALLOC, LOAD, CODE
  3 .bss          0004018c  204009c8  00411fc4  000309c8  2**2
                  ALLOC
  4 .stack        00002004  20440b54  00452150  000309c8  2**0
                  ALLOC
  5 .heap         00000200  20442b58  00454154  000309c8  2**0
                  ALLOC
  6 .ARM.attributes 0000002e  00000000  00000000  000309c8  2**0
                  CONTENTS, READONLY
  7 .comment      00000059  00000000  00000000  000309f6  2**0
                  CONTENTS, READONLY
  8 .debug_line   0000ff08  00000000  00000000  00030a4f  2**0
                  CONTENTS, READONLY, DEBUGGING
  9 .debug_info   00020e82  00000000  00000000  00040957  2**0
                  CONTENTS, READONLY, DEBUGGING
 10 .debug_abbrev 000043e2  00000000  00000000  000617d9  2**0
                  CONTENTS, READONLY, DEBUGGING
 11 .debug_aranges 00000d08  00000000  00000000  00065bc0  2**3
                  CONTENTS, READONLY, DEBUGGING
 12 .debug_loc    00008b4f  00000000  00000000  000668c8  2**0
                  CONTENTS, READONLY, DEBUGGING
 13 .debug_ranges 00000cd0  00000000  00000000  0006f417  2**0
                  CONTENTS, READONLY, DEBUGGING
 14 .debug_macro  000230d8  00000000  00000000  000700e7  2**0
                  CONTENTS, READONLY, DEBUGGING
 15 .debug_str    0009cddd  00000000  00000000  000931bf  2**0
                  CONTENTS, READONLY, DEBUGGING
 16 .debug_frame  00002b5c  00000000  00000000  0012ff9c  2**2
                  CONTENTS, READONLY, DEBUGGING

Disassembly of section .text:

00400000 <exception_table>:
  400000:	58 2b 44 20 39 27 40 00 35 27 40 00 35 27 40 00     X+D 9'@.5'@.5'@.
  400010:	35 27 40 00 35 27 40 00 35 27 40 00 00 00 00 00     5'@.5'@.5'@.....
	...
  40002c:	35 27 40 00 35 27 40 00 00 00 00 00 35 27 40 00     5'@.5'@.....5'@.
  40003c:	35 27 40 00 35 27 40 00 35 27 40 00 35 27 40 00     5'@.5'@.5'@.5'@.
  40004c:	35 27 40 00 35 27 40 00 35 27 40 00 35 27 40 00     5'@.5'@.5'@.5'@.
  40005c:	35 27 40 00 35 27 40 00 00 00 00 00 f1 24 40 00     5'@.5'@......$@.
  40006c:	05 25 40 00 19 25 40 00 35 27 40 00 35 27 40 00     .%@..%@.5'@.5'@.
  40007c:	35 27 40 00 2d 25 40 00 41 25 40 00 35 27 40 00     5'@.-%@.A%@.5'@.
  40008c:	35 27 40 00 35 27 40 00 35 27 40 00 35 27 40 00     5'@.5'@.5'@.5'@.
  40009c:	35 27 40 00 35 27 40 00 35 27 40 00 35 27 40 00     5'@.5'@.5'@.5'@.
  4000ac:	35 27 40 00 35 27 40 00 35 27 40 00 35 27 40 00     5'@.5'@.5'@.5'@.
  4000bc:	35 27 40 00 35 27 40 00 35 27 40 00 35 27 40 00     5'@.5'@.5'@.5'@.
  4000cc:	35 27 40 00 35 27 40 00 35 27 40 00 35 27 40 00     5'@.5'@.5'@.5'@.
  4000dc:	35 27 40 00 35 27 40 00 35 27 40 00 35 27 40 00     5'@.5'@.5'@.5'@.
  4000ec:	35 27 40 00 35 27 40 00 35 27 40 00 35 27 40 00     5'@.5'@.5'@.5'@.
  4000fc:	35 27 40 00 35 27 40 00 35 27 40 00 35 27 40 00     5'@.5'@.5'@.5'@.
  40010c:	35 27 40 00 35 27 40 00 35 27 40 00 00 00 00 00     5'@.5'@.5'@.....
  40011c:	00 00 00 00 35 27 40 00 35 27 40 00 35 27 40 00     ....5'@.5'@.5'@.
  40012c:	35 27 40 00 35 27 40 00 35 27 40 00 35 27 40 00     5'@.5'@.5'@.5'@.
  40013c:	35 27 40 00 35 27 40 00 35 27 40 00 35 27 40 00     5'@.5'@.5'@.5'@.
  40014c:	35 27 40 00 35 27 40 00 00 00 00 00 00 00 00 00     5'@.5'@.........
	...

00400168 <__do_global_dtors_aux>:
  400168:	b510      	push	{r4, lr}
  40016a:	4c05      	ldr	r4, [pc, #20]	; (400180 <__do_global_dtors_aux+0x18>)
  40016c:	7823      	ldrb	r3, [r4, #0]
  40016e:	b933      	cbnz	r3, 40017e <__do_global_dtors_aux+0x16>
  400170:	4b04      	ldr	r3, [pc, #16]	; (400184 <__do_global_dtors_aux+0x1c>)
  400172:	b113      	cbz	r3, 40017a <__do_global_dtors_aux+0x12>
  400174:	4804      	ldr	r0, [pc, #16]	; (400188 <__do_global_dtors_aux+0x20>)
  400176:	f3af 8000 	nop.w
  40017a:	2301      	movs	r3, #1
  40017c:	7023      	strb	r3, [r4, #0]
  40017e:	bd10      	pop	{r4, pc}
  400180:	204009c8 	.word	0x204009c8
  400184:	00000000 	.word	0x00000000
  400188:	004115fc 	.word	0x004115fc

0040018c <frame_dummy>:
  40018c:	4b0c      	ldr	r3, [pc, #48]	; (4001c0 <frame_dummy+0x34>)
  40018e:	b143      	cbz	r3, 4001a2 <frame_dummy+0x16>
  400190:	480c      	ldr	r0, [pc, #48]	; (4001c4 <frame_dummy+0x38>)
  400192:	490d      	ldr	r1, [pc, #52]	; (4001c8 <frame_dummy+0x3c>)
  400194:	b510      	push	{r4, lr}
  400196:	f3af 8000 	nop.w
  40019a:	480c      	ldr	r0, [pc, #48]	; (4001cc <frame_dummy+0x40>)
  40019c:	6803      	ldr	r3, [r0, #0]
  40019e:	b923      	cbnz	r3, 4001aa <frame_dummy+0x1e>
  4001a0:	bd10      	pop	{r4, pc}
  4001a2:	480a      	ldr	r0, [pc, #40]	; (4001cc <frame_dummy+0x40>)
  4001a4:	6803      	ldr	r3, [r0, #0]
  4001a6:	b933      	cbnz	r3, 4001b6 <frame_dummy+0x2a>
  4001a8:	4770      	bx	lr
  4001aa:	4b09      	ldr	r3, [pc, #36]	; (4001d0 <frame_dummy+0x44>)
  4001ac:	2b00      	cmp	r3, #0
  4001ae:	d0f7      	beq.n	4001a0 <frame_dummy+0x14>
  4001b0:	e8bd 4010 	ldmia.w	sp!, {r4, lr}
  4001b4:	4718      	bx	r3
  4001b6:	4b06      	ldr	r3, [pc, #24]	; (4001d0 <frame_dummy+0x44>)
  4001b8:	2b00      	cmp	r3, #0
  4001ba:	d0f5      	beq.n	4001a8 <frame_dummy+0x1c>
  4001bc:	4718      	bx	r3
  4001be:	bf00      	nop
  4001c0:	00000000 	.word	0x00000000
  4001c4:	004115fc 	.word	0x004115fc
  4001c8:	204009cc 	.word	0x204009cc
  4001cc:	004115fc 	.word	0x004115fc
  4001d0:	00000000 	.word	0x00000000

004001d4 <arm_bitreversal_32>:
	ENDP

#else

arm_bitreversal_32 PROC
	ADDS     r3,r1,#1
  4001d4:	1c4b      	adds	r3, r1, #1
	CMP      r3,#1
  4001d6:	2b01      	cmp	r3, #1
	IT       LS
  4001d8:	bf98      	it	ls
	BXLS     lr
  4001da:	4770      	bxls	lr
	PUSH     {r4-r9}
  4001dc:	e92d 03f0 	stmdb	sp!, {r4, r5, r6, r7, r8, r9}
	ADDS     r1,r2,#2
  4001e0:	1c91      	adds	r1, r2, #2
	LSRS     r3,r3,#2
  4001e2:	089b      	lsrs	r3, r3, #2

004001e4 <arm_bitreversal_32_0>:
arm_bitreversal_32_0 LABEL       ;/* loop unrolled by 2 */
	LDRH     r8,[r1,#4]
  4001e4:	f8b1 8004 	ldrh.w	r8, [r1, #4]
	LDRH     r9,[r1,#2]
  4001e8:	f8b1 9002 	ldrh.w	r9, [r1, #2]
	LDRH     r2,[r1,#0]
  4001ec:	880a      	ldrh	r2, [r1, #0]
	LDRH     r12,[r1,#-2]
  4001ee:	f831 cc02 	ldrh.w	ip, [r1, #-2]
	ADD      r8,r0,r8
  4001f2:	4480      	add	r8, r0
	ADD      r9,r0,r9
  4001f4:	4481      	add	r9, r0
	ADD      r2,r0,r2
  4001f6:	4402      	add	r2, r0
	ADD      r12,r0,r12
  4001f8:	4484      	add	ip, r0
	LDR      r7,[r9,#0]
  4001fa:	f8d9 7000 	ldr.w	r7, [r9]
	LDR      r6,[r8,#0]
  4001fe:	f8d8 6000 	ldr.w	r6, [r8]
	LDR      r5,[r2,#0]
  400202:	6815      	ldr	r5, [r2, #0]
	LDR      r4,[r12,#0]
  400204:	f8dc 4000 	ldr.w	r4, [ip]
	STR      r6,[r9,#0]
  400208:	f8c9 6000 	str.w	r6, [r9]
	STR      r7,[r8,#0]
  40020c:	f8c8 7000 	str.w	r7, [r8]
	STR      r5,[r12,#0]
  400210:	f8cc 5000 	str.w	r5, [ip]
	STR      r4,[r2,#0]
  400214:	6014      	str	r4, [r2, #0]
	LDR      r7,[r9,#4]
  400216:	f8d9 7004 	ldr.w	r7, [r9, #4]
	LDR      r6,[r8,#4]
  40021a:	f8d8 6004 	ldr.w	r6, [r8, #4]
	LDR      r5,[r2,#4]
  40021e:	6855      	ldr	r5, [r2, #4]
	LDR      r4,[r12,#4]
  400220:	f8dc 4004 	ldr.w	r4, [ip, #4]
	STR      r6,[r9,#4]
  400224:	f8c9 6004 	str.w	r6, [r9, #4]
	STR      r7,[r8,#4]
  400228:	f8c8 7004 	str.w	r7, [r8, #4]
	STR      r5,[r12,#4]
  40022c:	f8cc 5004 	str.w	r5, [ip, #4]
	STR      r4,[r2,#4]
  400230:	6054      	str	r4, [r2, #4]
	ADDS     r1,r1,#8
  400232:	3108      	adds	r1, #8
	SUBS     r3,r3,#1
  400234:	3b01      	subs	r3, #1
	BNE      arm_bitreversal_32_0
  400236:	d1d5      	bne.n	4001e4 <arm_bitreversal_32_0>
	POP      {r4-r9}
  400238:	e8bd 03f0 	ldmia.w	sp!, {r4, r5, r6, r7, r8, r9}
	BX       lr
  40023c:	4770      	bx	lr

0040023e <arm_bitreversal_16>:
	ENDP

arm_bitreversal_16 PROC
	ADDS     r3,r1,#1
  40023e:	1c4b      	adds	r3, r1, #1
	CMP      r3,#1
  400240:	2b01      	cmp	r3, #1
	IT       LS
  400242:	bf98      	it	ls
	BXLS     lr
  400244:	4770      	bxls	lr
	PUSH     {r4-r9}
  400246:	e92d 03f0 	stmdb	sp!, {r4, r5, r6, r7, r8, r9}
	ADDS     r1,r2,#2
  40024a:	1c91      	adds	r1, r2, #2
	LSRS     r3,r3,#2
  40024c:	089b      	lsrs	r3, r3, #2

0040024e <arm_bitreversal_16_0>:
arm_bitreversal_16_0 LABEL       ;/* loop unrolled by 2 */
	LDRH     r8,[r1,#4]
  40024e:	f8b1 8004 	ldrh.w	r8, [r1, #4]
	LDRH     r9,[r1,#2]
  400252:	f8b1 9002 	ldrh.w	r9, [r1, #2]
	LDRH     r2,[r1,#0]
  400256:	880a      	ldrh	r2, [r1, #0]
	LDRH     r12,[r1,#-2]
  400258:	f831 cc02 	ldrh.w	ip, [r1, #-2]
	ADD      r8,r0,r8,LSR #1
  40025c:	eb00 0858 	add.w	r8, r0, r8, lsr #1
	ADD      r9,r0,r9,LSR #1
  400260:	eb00 0959 	add.w	r9, r0, r9, lsr #1
	ADD      r2,r0,r2,LSR #1
  400264:	eb00 0252 	add.w	r2, r0, r2, lsr #1
	ADD      r12,r0,r12,LSR #1
  400268:	eb00 0c5c 	add.w	ip, r0, ip, lsr #1
	LDR      r7,[r9,#0]
  40026c:	f8d9 7000 	ldr.w	r7, [r9]
	LDR      r6,[r8,#0]
  400270:	f8d8 6000 	ldr.w	r6, [r8]
	LDR      r5,[r2,#0]
  400274:	6815      	ldr	r5, [r2, #0]
	LDR      r4,[r12,#0]
  400276:	f8dc 4000 	ldr.w	r4, [ip]
	STR      r6,[r9,#0]
  40027a:	f8c9 6000 	str.w	r6, [r9]
	STR      r7,[r8,#0]
  40027e:	f8c8 7000 	str.w	r7, [r8]
	STR      r5,[r12,#0]
  400282:	f8cc 5000 	str.w	r5, [ip]
	STR      r4,[r2,#0]
  400286:	6014      	str	r4, [r2, #0]
	ADDS     r1,r1,#8
  400288:	3108      	adds	r1, #8
	SUBS     r3,r3,#1
  40028a:	3b01      	subs	r3, #1
	BNE      arm_bitreversal_16_0
  40028c:	d1df      	bne.n	40024e <arm_bitreversal_16_0>
	POP      {r4-r9}
  40028e:	e8bd 03f0 	ldmia.w	sp!, {r4, r5, r6, r7, r8, r9}
	BX       lr
  400292:	4770      	bx	lr

00400294 <arm_cfft_radix8by2_f32>:
* \endcode
* 
*/

void arm_cfft_radix8by2_f32( arm_cfft_instance_f32 * S, float32_t * p1) 
{
  400294:	b5f8      	push	{r3, r4, r5, r6, r7, lr}
  400296:	ed2d 8b02 	vpush	{d8}
  40029a:	4606      	mov	r6, r0
  40029c:	4608      	mov	r0, r1
    uint32_t    L  = S->fftLen;
  40029e:	f8b6 c000 	ldrh.w	ip, [r6]
    float32_t * pCol1, * pCol2, * pMid1, * pMid2;
    float32_t * p2 = p1 + L;
  4002a2:	eb01 078c 	add.w	r7, r1, ip, lsl #2
    const float32_t * tw = (float32_t *) S->pTwiddle;
  4002a6:	6872      	ldr	r2, [r6, #4]

    pCol1 = p1;
    pCol2 = p2;

    //    Define new length
    L >>= 1;
  4002a8:	ea4f 015c 	mov.w	r1, ip, lsr #1
    //    Initialize mid pointers
    pMid1 = p1 + L;
    pMid2 = p2 + L;

    // do two dot Fourier transform
    for ( l = L >> 2; l > 0; l-- ) 
  4002ac:	ea5f 0cdc 	movs.w	ip, ip, lsr #3
  4002b0:	f000 80ac 	beq.w	40040c <arm_cfft_radix8by2_f32+0x178>
  4002b4:	008b      	lsls	r3, r1, #2
  4002b6:	f100 0510 	add.w	r5, r0, #16
  4002ba:	3310      	adds	r3, #16
  4002bc:	18c4      	adds	r4, r0, r3
  4002be:	f102 0e10 	add.w	lr, r2, #16
  4002c2:	f107 0210 	add.w	r2, r7, #16
  4002c6:	443b      	add	r3, r7
    {
        t1[0] = p1[0];
  4002c8:	ed55 5a04 	vldr	s11, [r5, #-16]
        t1[1] = p1[1];
  4002cc:	ed55 6a03 	vldr	s13, [r5, #-12]
        t1[2] = p1[2];
  4002d0:	ed15 1a02 	vldr	s2, [r5, #-8]
        t1[3] = p1[3];
  4002d4:	ed55 1a01 	vldr	s3, [r5, #-4]

        t2[0] = p2[0];
  4002d8:	ed12 0a04 	vldr	s0, [r2, #-16]
        t2[1] = p2[1];
  4002dc:	ed52 0a03 	vldr	s1, [r2, #-12]
        t2[2] = p2[2];
  4002e0:	ed12 3a02 	vldr	s6, [r2, #-8]
        t2[3] = p2[3];
  4002e4:	ed52 3a01 	vldr	s7, [r2, #-4]

        t3[0] = pMid1[0];
  4002e8:	ed14 2a04 	vldr	s4, [r4, #-16]
        t3[1] = pMid1[1];
  4002ec:	ed54 2a03 	vldr	s5, [r4, #-12]
        t3[2] = pMid1[2];
  4002f0:	ed54 7a02 	vldr	s15, [r4, #-8]
        t3[3] = pMid1[3];
  4002f4:	ed14 5a01 	vldr	s10, [r4, #-4]

        t4[0] = pMid2[0];
  4002f8:	ed13 6a04 	vldr	s12, [r3, #-16]
        t4[1] = pMid2[1];
  4002fc:	ed13 7a03 	vldr	s14, [r3, #-12]
        t4[2] = pMid2[2];
  400300:	ed13 4a02 	vldr	s8, [r3, #-8]
        t4[3] = pMid2[3];
  400304:	ed53 4a01 	vldr	s9, [r3, #-4]

        *p1++ = t1[0] + t2[0];
  400308:	ee35 8a80 	vadd.f32	s16, s11, s0
  40030c:	ed05 8a04 	vstr	s16, [r5, #-16]
        *p1++ = t1[1] + t2[1];
  400310:	ee36 8aa0 	vadd.f32	s16, s13, s1
  400314:	ed05 8a03 	vstr	s16, [r5, #-12]
        *p1++ = t1[2] + t2[2];
  400318:	ee31 8a03 	vadd.f32	s16, s2, s6
  40031c:	ed05 8a02 	vstr	s16, [r5, #-8]
        *p1++ = t1[3] + t2[3];    // col 1
  400320:	ee31 8aa3 	vadd.f32	s16, s3, s7
  400324:	ed05 8a01 	vstr	s16, [r5, #-4]

        t2[0] = t1[0] - t2[0];
  400328:	ee75 5ac0 	vsub.f32	s11, s11, s0
        t2[1] = t1[1] - t2[1];
  40032c:	ee76 6ae0 	vsub.f32	s13, s13, s1
        t2[2] = t1[2] - t2[2];
  400330:	ee31 3a43 	vsub.f32	s6, s2, s6
        t2[3] = t1[3] - t2[3];    // for col 2
  400334:	ee71 3ae3 	vsub.f32	s7, s3, s7

        *pMid1++ = t3[0] + t4[0];
  400338:	ee72 1a06 	vadd.f32	s3, s4, s12
  40033c:	ed44 1a04 	vstr	s3, [r4, #-16]
        *pMid1++ = t3[1] + t4[1];
  400340:	ee72 1a87 	vadd.f32	s3, s5, s14
  400344:	ed44 1a03 	vstr	s3, [r4, #-12]
        *pMid1++ = t3[2] + t4[2];
  400348:	ee77 1a84 	vadd.f32	s3, s15, s8
  40034c:	ed44 1a02 	vstr	s3, [r4, #-8]
        *pMid1++ = t3[3] + t4[3]; // col 1
  400350:	ee75 1a24 	vadd.f32	s3, s10, s9
  400354:	ed44 1a01 	vstr	s3, [r4, #-4]

        t4[0] = t4[0] - t3[0];
  400358:	ee36 6a42 	vsub.f32	s12, s12, s4
        t4[1] = t4[1] - t3[1];
  40035c:	ee37 7a62 	vsub.f32	s14, s14, s5
        t4[2] = t4[2] - t3[2];
  400360:	ee74 2a67 	vsub.f32	s5, s8, s15
        t4[3] = t4[3] - t3[3];    // for col 2
  400364:	ee74 7ac5 	vsub.f32	s15, s9, s10

        twR = *tw++;
  400368:	ed1e 5a04 	vldr	s10, [lr, #-16]
        twI = *tw++;
  40036c:	ed5e 4a03 	vldr	s9, [lr, #-12]

        // multiply by twiddle factors
        m0 = t2[0] * twR;
  400370:	ee25 4a85 	vmul.f32	s8, s11, s10
        m1 = t2[1] * twI;
  400374:	ee26 2aa4 	vmul.f32	s4, s13, s9
        m2 = t2[1] * twR;
        m3 = t2[0] * twI;
        
        // R  =  R  *  Tr - I * Ti
        *p2++ = m0 + m1;
  400378:	ee34 4a02 	vadd.f32	s8, s8, s4
  40037c:	ed02 4a04 	vstr	s8, [r2, #-16]
        m2 = t2[1] * twR;
  400380:	ee66 6a85 	vmul.f32	s13, s13, s10
        m3 = t2[0] * twI;
  400384:	ee65 5aa4 	vmul.f32	s11, s11, s9
        // I  =  I  *  Tr + R * Ti
        *p2++ = m2 - m3;
  400388:	ee76 6ae5 	vsub.f32	s13, s13, s11
  40038c:	ed42 6a03 	vstr	s13, [r2, #-12]
        
        // use vertical symmetry
        //  0.9988 - 0.0491i <==> -0.0491 - 0.9988i
        m0 = t4[0] * twI;
  400390:	ee66 6a24 	vmul.f32	s13, s12, s9
        m1 = t4[1] * twR;
  400394:	ee67 5a05 	vmul.f32	s11, s14, s10
        m2 = t4[1] * twI;
        m3 = t4[0] * twR;
        
        *pMid2++ = m0 - m1;
  400398:	ee76 6ae5 	vsub.f32	s13, s13, s11
  40039c:	ed43 6a04 	vstr	s13, [r3, #-16]
        m2 = t4[1] * twI;
  4003a0:	ee27 7a24 	vmul.f32	s14, s14, s9
        m3 = t4[0] * twR;
  4003a4:	ee26 6a05 	vmul.f32	s12, s12, s10
        *pMid2++ = m2 + m3;
  4003a8:	ee37 7a06 	vadd.f32	s14, s14, s12
  4003ac:	ed03 7a03 	vstr	s14, [r3, #-12]

        twR = *tw++;
  4003b0:	ed5e 6a02 	vldr	s13, [lr, #-8]
        twI = *tw++;
  4003b4:	ed1e 6a01 	vldr	s12, [lr, #-4]
        
        m0 = t2[2] * twR;
  4003b8:	ee23 5a26 	vmul.f32	s10, s6, s13
        m1 = t2[3] * twI;
  4003bc:	ee23 7a86 	vmul.f32	s14, s7, s12
        m2 = t2[3] * twR;
        m3 = t2[2] * twI;
        
        *p2++ = m0 + m1;
  4003c0:	ee35 5a07 	vadd.f32	s10, s10, s14
  4003c4:	ed02 5a02 	vstr	s10, [r2, #-8]
        m2 = t2[3] * twR;
  4003c8:	ee23 7aa6 	vmul.f32	s14, s7, s13
        m3 = t2[2] * twI;
  4003cc:	ee63 5a06 	vmul.f32	s11, s6, s12
        *p2++ = m2 - m3;
  4003d0:	ee37 7a65 	vsub.f32	s14, s14, s11
  4003d4:	ed02 7a01 	vstr	s14, [r2, #-4]
        
        m0 = t4[2] * twI;
  4003d8:	ee62 5a86 	vmul.f32	s11, s5, s12
        m1 = t4[3] * twR;
  4003dc:	ee27 7aa6 	vmul.f32	s14, s15, s13
        m2 = t4[3] * twI;
        m3 = t4[2] * twR;
        
        *pMid2++ = m0 - m1;
  4003e0:	ee75 5ac7 	vsub.f32	s11, s11, s14
  4003e4:	ed43 5a02 	vstr	s11, [r3, #-8]
        m2 = t4[3] * twI;
  4003e8:	ee67 7a86 	vmul.f32	s15, s15, s12
        m3 = t4[2] * twR;
  4003ec:	ee22 7aa6 	vmul.f32	s14, s5, s13
        *pMid2++ = m2 + m3;
  4003f0:	ee77 7a87 	vadd.f32	s15, s15, s14
  4003f4:	ed43 7a01 	vstr	s15, [r3, #-4]
  4003f8:	3510      	adds	r5, #16
  4003fa:	3410      	adds	r4, #16
  4003fc:	f10e 0e10 	add.w	lr, lr, #16
  400400:	3210      	adds	r2, #16
  400402:	3310      	adds	r3, #16
    for ( l = L >> 2; l > 0; l-- ) 
  400404:	f1bc 0c01 	subs.w	ip, ip, #1
  400408:	f47f af5e 	bne.w	4002c8 <arm_cfft_radix8by2_f32+0x34>
    }

    // first col
    arm_radix8_butterfly_f32( pCol1, L, (float32_t *) S->pTwiddle, 2u);
  40040c:	b28c      	uxth	r4, r1
  40040e:	2302      	movs	r3, #2
  400410:	6872      	ldr	r2, [r6, #4]
  400412:	4621      	mov	r1, r4
  400414:	4d04      	ldr	r5, [pc, #16]	; (400428 <arm_cfft_radix8by2_f32+0x194>)
  400416:	47a8      	blx	r5
    // second col
    arm_radix8_butterfly_f32( pCol2, L, (float32_t *) S->pTwiddle, 2u);
  400418:	2302      	movs	r3, #2
  40041a:	6872      	ldr	r2, [r6, #4]
  40041c:	4621      	mov	r1, r4
  40041e:	4638      	mov	r0, r7
  400420:	47a8      	blx	r5
}
  400422:	ecbd 8b02 	vpop	{d8}
  400426:	bdf8      	pop	{r3, r4, r5, r6, r7, pc}
  400428:	004009e5 	.word	0x004009e5

0040042c <arm_cfft_radix8by4_f32>:

void arm_cfft_radix8by4_f32( arm_cfft_instance_f32 * S, float32_t * p1) 
{
  40042c:	e92d 4ff0 	stmdb	sp!, {r4, r5, r6, r7, r8, r9, sl, fp, lr}
  400430:	ed2d 8b06 	vpush	{d8-d10}
  400434:	b08f      	sub	sp, #60	; 0x3c
  400436:	460c      	mov	r4, r1
    uint32_t    L  = S->fftLen >> 1;
  400438:	900a      	str	r0, [sp, #40]	; 0x28
  40043a:	8801      	ldrh	r1, [r0, #0]
  40043c:	0849      	lsrs	r1, r1, #1
    float32_t * pCol1, *pCol2, *pCol3, *pCol4, *pEnd1, *pEnd2, *pEnd3, *pEnd4;
    const float32_t *tw2, *tw3, *tw4;
    float32_t * p2 = p1 + L;
  40043e:	008b      	lsls	r3, r1, #2
  400440:	9401      	str	r4, [sp, #4]
  400442:	4622      	mov	r2, r4
  400444:	441a      	add	r2, r3
  400446:	4615      	mov	r5, r2
    float32_t * p3 = p2 + L;
  400448:	441a      	add	r2, r3
  40044a:	4614      	mov	r4, r2
  40044c:	920c      	str	r2, [sp, #48]	; 0x30
    float32_t * p4 = p3 + L;
  40044e:	18d0      	adds	r0, r2, r3
  400450:	4606      	mov	r6, r0
    pCol1 = p1;         // points to real values by default
    pCol2 = p2;
    pCol3 = p3;
    pCol4 = p4;
    pEnd1 = p2 - 1;     // points to imaginary values by default
    pEnd2 = p3 - 1;
  400452:	1f10      	subs	r0, r2, #4
    pEnd3 = p4 - 1;
  400454:	1f37      	subs	r7, r6, #4
    pEnd4 = pEnd3 + L;

    tw2 = tw3 = tw4 = (float32_t *) S->pTwiddle;
  400456:	9a0a      	ldr	r2, [sp, #40]	; 0x28
  400458:	6852      	ldr	r2, [r2, #4]

    L >>= 1;
  40045a:	0849      	lsrs	r1, r1, #1
  40045c:	9109      	str	r1, [sp, #36]	; 0x24
    twMod2 = 2;
    twMod3 = 4;
    twMod4 = 6;

    // TOP
    p1ap3_0 = p1[0] + p3[0];
  40045e:	9901      	ldr	r1, [sp, #4]
  400460:	468e      	mov	lr, r1
  400462:	ed91 7a00 	vldr	s14, [r1]
  400466:	edd4 7a00 	vldr	s15, [r4]
  40046a:	ee37 6a27 	vadd.f32	s12, s14, s15
    p1sp3_0 = p1[0] - p3[0];
  40046e:	ee37 7a67 	vsub.f32	s14, s14, s15
    p1ap3_1 = p1[1] + p3[1];
  400472:	edde 7a01 	vldr	s15, [lr, #4]
  400476:	4621      	mov	r1, r4
  400478:	edd4 5a01 	vldr	s11, [r4, #4]
  40047c:	ee77 6aa5 	vadd.f32	s13, s15, s11
    p1sp3_1 = p1[1] - p3[1];
  400480:	ee77 7ae5 	vsub.f32	s15, s15, s11

    // col 2
    t2[0] = p1sp3_0 + p2[1] - p4[1];
  400484:	edd5 3a01 	vldr	s7, [r5, #4]
  400488:	ed96 4a01 	vldr	s8, [r6, #4]
    t2[1] = p1sp3_1 - p2[0] + p4[0];
  40048c:	462c      	mov	r4, r5
  40048e:	edd5 4a00 	vldr	s9, [r5]
  400492:	9602      	str	r6, [sp, #8]
  400494:	ed96 5a00 	vldr	s10, [r6]
    t3[1] = p1ap3_1 - p2[1] - p4[1];
    // col 4
    t4[0] = p1sp3_0 - p2[1] + p4[1];
    t4[1] = p1sp3_1 + p2[0] - p4[0];
    // col 1
    *p1++ = p1ap3_0 + p2[0] + p4[0];
  400498:	ee76 5a24 	vadd.f32	s11, s12, s9
  40049c:	ee75 5a85 	vadd.f32	s11, s11, s10
  4004a0:	4676      	mov	r6, lr
  4004a2:	ee15 ea90 	vmov	lr, s11
  4004a6:	f846 eb08 	str.w	lr, [r6], #8
  4004aa:	9604      	str	r6, [sp, #16]
    *p1++ = p1ap3_1 + p2[1] + p4[1];
  4004ac:	4625      	mov	r5, r4
  4004ae:	edd4 5a01 	vldr	s11, [r4, #4]
  4004b2:	ee76 5aa5 	vadd.f32	s11, s13, s11
  4004b6:	9e02      	ldr	r6, [sp, #8]
  4004b8:	ed96 3a01 	vldr	s6, [r6, #4]
  4004bc:	ee75 5a83 	vadd.f32	s11, s11, s6
  4004c0:	9e01      	ldr	r6, [sp, #4]
  4004c2:	edc6 5a01 	vstr	s11, [r6, #4]
    t2[0] = p1sp3_0 + p2[1] - p4[1];
  4004c6:	ee77 5a23 	vadd.f32	s11, s14, s7
  4004ca:	ee75 5ac4 	vsub.f32	s11, s11, s8

    // Twiddle factors are ones
    *p2++ = t2[0];
  4004ce:	46ab      	mov	fp, r5
  4004d0:	ee15 ea90 	vmov	lr, s11
  4004d4:	f84b eb08 	str.w	lr, [fp], #8
    t2[1] = p1sp3_1 - p2[0] + p4[0];
  4004d8:	ee77 5ae4 	vsub.f32	s11, s15, s9
  4004dc:	ee75 5a85 	vadd.f32	s11, s11, s10
    *p2++ = t2[1];
  4004e0:	9508      	str	r5, [sp, #32]
  4004e2:	edc5 5a01 	vstr	s11, [r5, #4]
    t3[0] = p1ap3_0 - p2[0] - p4[0];
  4004e6:	ee36 6a64 	vsub.f32	s12, s12, s9
  4004ea:	ee36 6a45 	vsub.f32	s12, s12, s10
    *p3++ = t3[0];
  4004ee:	460c      	mov	r4, r1
  4004f0:	460d      	mov	r5, r1
  4004f2:	ee16 ea10 	vmov	lr, s12
  4004f6:	f845 eb08 	str.w	lr, [r5], #8
  4004fa:	9506      	str	r5, [sp, #24]
    t3[1] = p1ap3_1 - p2[1] - p4[1];
  4004fc:	ee76 6ae3 	vsub.f32	s13, s13, s7
  400500:	ee76 6ac4 	vsub.f32	s13, s13, s8
    *p3++ = t3[1];
  400504:	edc1 6a01 	vstr	s13, [r1, #4]
    t4[0] = p1sp3_0 - p2[1] + p4[1];
  400508:	ee37 7a63 	vsub.f32	s14, s14, s7
  40050c:	ee37 7a04 	vadd.f32	s14, s14, s8
    *p4++ = t4[0];
  400510:	9d02      	ldr	r5, [sp, #8]
  400512:	46aa      	mov	sl, r5
  400514:	ee17 ea10 	vmov	lr, s14
  400518:	f84a eb08 	str.w	lr, [sl], #8
    t4[1] = p1sp3_1 + p2[0] - p4[0];
  40051c:	ee77 7aa4 	vadd.f32	s15, s15, s9
  400520:	ee77 7ac5 	vsub.f32	s15, s15, s10
    *p4++ = t4[1];
  400524:	edc5 7a01 	vstr	s15, [r5, #4]

    tw2 += twMod2;
  400528:	f102 0e08 	add.w	lr, r2, #8
  40052c:	f8cd e014 	str.w	lr, [sp, #20]
    tw3 += twMod3;
  400530:	f102 0e10 	add.w	lr, r2, #16
  400534:	f8cd e00c 	str.w	lr, [sp, #12]
    tw4 += twMod4;
  400538:	f102 0e18 	add.w	lr, r2, #24
  40053c:	f8cd e01c 	str.w	lr, [sp, #28]

    for (l = (L - 2) >> 1; l > 0; l-- ) 
  400540:	9909      	ldr	r1, [sp, #36]	; 0x24
  400542:	3902      	subs	r1, #2
  400544:	0849      	lsrs	r1, r1, #1
  400546:	910b      	str	r1, [sp, #44]	; 0x2c
  400548:	f000 812c 	beq.w	4007a4 <arm_cfft_radix8by4_f32+0x378>
  40054c:	3610      	adds	r6, #16
  40054e:	9908      	ldr	r1, [sp, #32]
  400550:	f1a1 050c 	sub.w	r5, r1, #12
  400554:	f8dd 800c 	ldr.w	r8, [sp, #12]
  400558:	3110      	adds	r1, #16
  40055a:	f102 0c20 	add.w	ip, r2, #32
  40055e:	3410      	adds	r4, #16
  400560:	f102 0e30 	add.w	lr, r2, #48	; 0x30
  400564:	9a02      	ldr	r2, [sp, #8]
  400566:	3210      	adds	r2, #16
  400568:	3b08      	subs	r3, #8
  40056a:	443b      	add	r3, r7
  40056c:	f8dd 902c 	ldr.w	r9, [sp, #44]	; 0x2c
  400570:	f8cd a034 	str.w	sl, [sp, #52]	; 0x34
    {
        // TOP
        p1ap3_0 = p1[0] + p3[0];
  400574:	ed56 5a02 	vldr	s11, [r6, #-8]
  400578:	ed54 7a02 	vldr	s15, [r4, #-8]
  40057c:	ee75 6aa7 	vadd.f32	s13, s11, s15
        p1sp3_0 = p1[0] - p3[0];
  400580:	ee75 5ae7 	vsub.f32	s11, s11, s15
        p1ap3_1 = p1[1] + p3[1];
  400584:	ed56 0a01 	vldr	s1, [r6, #-4]
  400588:	ed54 7a01 	vldr	s15, [r4, #-4]
  40058c:	ee30 5aa7 	vadd.f32	s10, s1, s15
        p1sp3_1 = p1[1] - p3[1];
  400590:	ee70 0ae7 	vsub.f32	s1, s1, s15
        // col 2
        t2[0] = p1sp3_0 + p2[1] - p4[1];
  400594:	ed11 6a01 	vldr	s12, [r1, #-4]
  400598:	ed12 1a01 	vldr	s2, [r2, #-4]
  40059c:	ee35 3a86 	vadd.f32	s6, s11, s12
  4005a0:	ee33 3a41 	vsub.f32	s6, s6, s2
        t2[1] = p1sp3_1 - p2[0] + p4[0];
  4005a4:	ed11 7a02 	vldr	s14, [r1, #-8]
  4005a8:	ed52 7a02 	vldr	s15, [r2, #-8]
  4005ac:	ee30 0ac7 	vsub.f32	s0, s1, s14
  4005b0:	ee30 0a27 	vadd.f32	s0, s0, s15
        // col 3
        t3[0] = p1ap3_0 - p2[0] - p4[0];
  4005b4:	ee76 3ac7 	vsub.f32	s7, s13, s14
  4005b8:	ee73 3ae7 	vsub.f32	s7, s7, s15
        t3[1] = p1ap3_1 - p2[1] - p4[1];
  4005bc:	ee35 8a46 	vsub.f32	s16, s10, s12
  4005c0:	ee38 8a41 	vsub.f32	s16, s16, s2
        // col 4
        t4[0] = p1sp3_0 - p2[1] + p4[1];
  4005c4:	ee35 6ac6 	vsub.f32	s12, s11, s12
  4005c8:	ee36 1a01 	vadd.f32	s2, s12, s2
        t4[1] = p1sp3_1 + p2[0] - p4[0];
  4005cc:	ee70 0a87 	vadd.f32	s1, s1, s14
  4005d0:	ee70 0ae7 	vsub.f32	s1, s1, s15
        // col 1 - top
        *p1++ = p1ap3_0 + p2[0] + p4[0];
  4005d4:	ee36 7a87 	vadd.f32	s14, s13, s14
  4005d8:	ee77 7a27 	vadd.f32	s15, s14, s15
  4005dc:	ed46 7a02 	vstr	s15, [r6, #-8]
        *p1++ = p1ap3_1 + p2[1] + p4[1];
  4005e0:	ed51 7a01 	vldr	s15, [r1, #-4]
  4005e4:	ee35 5a27 	vadd.f32	s10, s10, s15
  4005e8:	ed52 7a01 	vldr	s15, [r2, #-4]
  4005ec:	ee35 5a27 	vadd.f32	s10, s10, s15
  4005f0:	ed06 5a01 	vstr	s10, [r6, #-4]

        // BOTTOM
        p1ap3_1 = pEnd1[-1] + pEnd3[-1];
  4005f4:	ed95 6a01 	vldr	s12, [r5, #4]
  4005f8:	ed57 7a01 	vldr	s15, [r7, #-4]
  4005fc:	ee76 8a27 	vadd.f32	s17, s12, s15
        p1sp3_1 = pEnd1[-1] - pEnd3[-1];
  400600:	ee36 6a67 	vsub.f32	s12, s12, s15
        p1ap3_0 = pEnd1[0] + pEnd3[0];
  400604:	edd5 6a02 	vldr	s13, [r5, #8]
  400608:	edd7 5a00 	vldr	s11, [r7]
  40060c:	ee76 1aa5 	vadd.f32	s3, s13, s11
        p1sp3_0 = pEnd1[0] - pEnd3[0];
  400610:	ee76 6ae5 	vsub.f32	s13, s13, s11
        // col 2
        t2[2] = pEnd2[0]  - pEnd4[0] + p1sp3_1;
  400614:	ed90 2a00 	vldr	s4, [r0]
  400618:	edd3 2a02 	vldr	s5, [r3, #8]
  40061c:	ee32 aa62 	vsub.f32	s20, s4, s5
  400620:	ee36 4a0a 	vadd.f32	s8, s12, s20
        t2[3] = pEnd1[0] - pEnd3[0] - pEnd2[-1] + pEnd4[-1];
  400624:	ed10 9a01 	vldr	s18, [r0, #-4]
  400628:	edd3 9a01 	vldr	s19, [r3, #4]
  40062c:	ee76 4ac9 	vsub.f32	s9, s13, s18
  400630:	ee74 4aa9 	vadd.f32	s9, s9, s19
        // col 3
        t3[2] = p1ap3_1 - pEnd2[-1] - pEnd4[-1];
  400634:	ee78 5ac9 	vsub.f32	s11, s17, s18
  400638:	ee75 5ae9 	vsub.f32	s11, s11, s19
        t3[3] = p1ap3_0 - pEnd2[0]  - pEnd4[0];
  40063c:	ee31 5ac2 	vsub.f32	s10, s3, s4
  400640:	ee35 5a62 	vsub.f32	s10, s10, s5
        // col 4
        t4[2] = pEnd2[0]  - pEnd4[0]  - p1sp3_1;
  400644:	ee3a 6a46 	vsub.f32	s12, s20, s12
        t4[3] = pEnd4[-1] - pEnd2[-1] - p1sp3_0;
  400648:	ee39 9ac9 	vsub.f32	s18, s19, s18
  40064c:	ee79 6a66 	vsub.f32	s13, s18, s13
        // col 1 - Bottom
        *pEnd1-- = p1ap3_0 + pEnd2[0] + pEnd4[0];
  400650:	ee31 2a82 	vadd.f32	s4, s3, s4
  400654:	ee72 2a22 	vadd.f32	s5, s4, s5
  400658:	edc5 2a02 	vstr	s5, [r5, #8]
        *pEnd1-- = p1ap3_1 + pEnd2[-1] + pEnd4[-1];
  40065c:	ed50 7a01 	vldr	s15, [r0, #-4]
  400660:	ee78 8aa7 	vadd.f32	s17, s17, s15
  400664:	edd3 7a01 	vldr	s15, [r3, #4]
  400668:	ee78 8aa7 	vadd.f32	s17, s17, s15
  40066c:	edc5 8a01 	vstr	s17, [r5, #4]

        // COL 2
        // read twiddle factors
        twR = *tw2++;
  400670:	ed58 7a02 	vldr	s15, [r8, #-8]
        twI = *tw2++;
  400674:	ed18 7a01 	vldr	s14, [r8, #-4]
        // multiply by twiddle factors
        //  let    Z1 = a + i(b),   Z2 = c + i(d)
        //   =>  Z1 * Z2  =  (a*c - b*d) + i(b*c + a*d)
        
        // Top
        m0 = t2[0] * twR;
  400678:	ee23 2a27 	vmul.f32	s4, s6, s15
        m1 = t2[1] * twI;
  40067c:	ee60 2a07 	vmul.f32	s5, s0, s14
        m2 = t2[1] * twR;
        m3 = t2[0] * twI;
        
        *p2++ = m0 + m1;
  400680:	ee72 2a22 	vadd.f32	s5, s4, s5
  400684:	ed41 2a02 	vstr	s5, [r1, #-8]
        m2 = t2[1] * twR;
  400688:	ee20 0a27 	vmul.f32	s0, s0, s15
        m3 = t2[0] * twI;
  40068c:	ee23 3a07 	vmul.f32	s6, s6, s14
        *p2++ = m2 - m3;
  400690:	ee30 3a43 	vsub.f32	s6, s0, s6
  400694:	ed01 3a01 	vstr	s6, [r1, #-4]
        // use vertical symmetry col 2
        // 0.9997 - 0.0245i  <==>  0.0245 - 0.9997i
        // Bottom
        m0 = t2[3] * twI;
  400698:	ee64 2a87 	vmul.f32	s5, s9, s14
        m1 = t2[2] * twR;
  40069c:	ee24 3a27 	vmul.f32	s6, s8, s15
        m2 = t2[2] * twI;
        m3 = t2[3] * twR;
        
        *pEnd2-- = m0 - m1;
  4006a0:	ee32 3ac3 	vsub.f32	s6, s5, s6
  4006a4:	ee13 aa10 	vmov	sl, s6
  4006a8:	f840 a908 	str.w	sl, [r0], #-8
        m2 = t2[2] * twI;
  4006ac:	ee24 7a07 	vmul.f32	s14, s8, s14
        m3 = t2[3] * twR;
  4006b0:	ee64 7aa7 	vmul.f32	s15, s9, s15
        *pEnd2-- = m2 + m3;
  4006b4:	ee77 7a27 	vadd.f32	s15, s14, s15
  4006b8:	edc0 7a01 	vstr	s15, [r0, #4]

        // COL 3
        twR = tw3[0];
  4006bc:	ed5c 7a04 	vldr	s15, [ip, #-16]
        twI = tw3[1];
  4006c0:	ed1c 7a03 	vldr	s14, [ip, #-12]
        tw3 += twMod3;
        // Top
        m0 = t3[0] * twR;
  4006c4:	ee23 4aa7 	vmul.f32	s8, s7, s15
        m1 = t3[1] * twI;
  4006c8:	ee68 4a07 	vmul.f32	s9, s16, s14
        m2 = t3[1] * twR;
        m3 = t3[0] * twI;
        
        *p3++ = m0 + m1;
  4006cc:	ee74 4a24 	vadd.f32	s9, s8, s9
  4006d0:	ed44 4a02 	vstr	s9, [r4, #-8]
        m2 = t3[1] * twR;
  4006d4:	ee28 8a27 	vmul.f32	s16, s16, s15
        m3 = t3[0] * twI;
  4006d8:	ee63 3a87 	vmul.f32	s7, s7, s14
        *p3++ = m2 - m3;
  4006dc:	ee78 3a63 	vsub.f32	s7, s16, s7
  4006e0:	ed44 3a01 	vstr	s7, [r4, #-4]
        // use vertical symmetry col 3
        // 0.9988 - 0.0491i  <==>  -0.9988 - 0.0491i
        // Bottom
        m0 = -t3[3] * twR;
  4006e4:	ee25 4a67 	vnmul.f32	s8, s10, s15
        m1 = t3[2] * twI;
  4006e8:	ee65 4a87 	vmul.f32	s9, s11, s14
        m2 = t3[2] * twR;
        m3 = t3[3] * twI;
        
        *pEnd3-- = m0 - m1;
  4006ec:	ee74 4a64 	vsub.f32	s9, s8, s9
  4006f0:	ee14 aa90 	vmov	sl, s9
  4006f4:	f847 a908 	str.w	sl, [r7], #-8
        m3 = t3[3] * twI;
  4006f8:	ee25 7a07 	vmul.f32	s14, s10, s14
        m2 = t3[2] * twR;
  4006fc:	ee65 7aa7 	vmul.f32	s15, s11, s15
        *pEnd3-- = m3 - m2;
  400700:	ee77 7a67 	vsub.f32	s15, s14, s15
  400704:	edc7 7a01 	vstr	s15, [r7, #4]
        
        // COL 4
        twR = tw4[0];
  400708:	ed5e 7a06 	vldr	s15, [lr, #-24]	; 0xffffffe8
        twI = tw4[1];
  40070c:	ed1e 7a05 	vldr	s14, [lr, #-20]	; 0xffffffec
        tw4 += twMod4;
        // Top
        m0 = t4[0] * twR;
  400710:	ee21 5a27 	vmul.f32	s10, s2, s15
        m1 = t4[1] * twI;
  400714:	ee60 5a87 	vmul.f32	s11, s1, s14
        m2 = t4[1] * twR;
        m3 = t4[0] * twI;
        
        *p4++ = m0 + m1;
  400718:	ee75 5a25 	vadd.f32	s11, s10, s11
  40071c:	ed42 5a02 	vstr	s11, [r2, #-8]
        m2 = t4[1] * twR;
  400720:	ee60 0aa7 	vmul.f32	s1, s1, s15
        m3 = t4[0] * twI;
  400724:	ee21 1a07 	vmul.f32	s2, s2, s14
        *p4++ = m2 - m3;
  400728:	ee30 1ac1 	vsub.f32	s2, s1, s2
  40072c:	ed02 1a01 	vstr	s2, [r2, #-4]
        // use vertical symmetry col 4
        // 0.9973 - 0.0736i  <==>  -0.0736 + 0.9973i
        // Bottom
        m0 = t4[3] * twI;
  400730:	ee26 5a87 	vmul.f32	s10, s13, s14
        m1 = t4[2] * twR;
  400734:	ee66 5a27 	vmul.f32	s11, s12, s15
        m2 = t4[2] * twI;
        m3 = t4[3] * twR;
        
        *pEnd4-- = m0 - m1;
  400738:	ee75 5a65 	vsub.f32	s11, s10, s11
  40073c:	edc3 5a02 	vstr	s11, [r3, #8]
        m2 = t4[2] * twI;
  400740:	ee26 7a07 	vmul.f32	s14, s12, s14
        m3 = t4[3] * twR;
  400744:	ee66 7aa7 	vmul.f32	s15, s13, s15
        *pEnd4-- = m2 + m3;
  400748:	ee77 7a27 	vadd.f32	s15, s14, s15
  40074c:	edc3 7a01 	vstr	s15, [r3, #4]
  400750:	3608      	adds	r6, #8
  400752:	3d08      	subs	r5, #8
  400754:	f108 0808 	add.w	r8, r8, #8
  400758:	3108      	adds	r1, #8
  40075a:	f10c 0c10 	add.w	ip, ip, #16
  40075e:	3408      	adds	r4, #8
  400760:	f10e 0e18 	add.w	lr, lr, #24
  400764:	3208      	adds	r2, #8
  400766:	3b08      	subs	r3, #8
    for (l = (L - 2) >> 1; l > 0; l-- ) 
  400768:	f1b9 0901 	subs.w	r9, r9, #1
  40076c:	f47f af02 	bne.w	400574 <arm_cfft_radix8by4_f32+0x148>
  400770:	f8dd a034 	ldr.w	sl, [sp, #52]	; 0x34
  400774:	990b      	ldr	r1, [sp, #44]	; 0x2c
  400776:	00cb      	lsls	r3, r1, #3
  400778:	9a04      	ldr	r2, [sp, #16]
  40077a:	441a      	add	r2, r3
  40077c:	9204      	str	r2, [sp, #16]
  40077e:	9a05      	ldr	r2, [sp, #20]
  400780:	441a      	add	r2, r3
  400782:	9205      	str	r2, [sp, #20]
  400784:	449b      	add	fp, r3
  400786:	9a03      	ldr	r2, [sp, #12]
  400788:	4610      	mov	r0, r2
  40078a:	eb00 1201 	add.w	r2, r0, r1, lsl #4
  40078e:	9203      	str	r2, [sp, #12]
  400790:	9a06      	ldr	r2, [sp, #24]
  400792:	441a      	add	r2, r3
  400794:	9206      	str	r2, [sp, #24]
  400796:	eb01 0141 	add.w	r1, r1, r1, lsl #1
  40079a:	9a07      	ldr	r2, [sp, #28]
  40079c:	eb02 02c1 	add.w	r2, r2, r1, lsl #3
  4007a0:	9207      	str	r2, [sp, #28]
  4007a2:	449a      	add	sl, r3
    }

    //MIDDLE
    // Twiddle factors are 
    //  1.0000  0.7071-0.7071i  -1.0000i  -0.7071-0.7071i
    p1ap3_0 = p1[0] + p3[0];
  4007a4:	9a04      	ldr	r2, [sp, #16]
  4007a6:	ed92 6a00 	vldr	s12, [r2]
  4007aa:	9806      	ldr	r0, [sp, #24]
  4007ac:	edd0 7a00 	vldr	s15, [r0]
  4007b0:	ee36 4a27 	vadd.f32	s8, s12, s15
    p1sp3_0 = p1[0] - p3[0];
  4007b4:	ee36 6a67 	vsub.f32	s12, s12, s15
    p1ap3_1 = p1[1] + p3[1];
  4007b8:	4613      	mov	r3, r2
  4007ba:	edd2 7a01 	vldr	s15, [r2, #4]
  4007be:	ed90 7a01 	vldr	s14, [r0, #4]
  4007c2:	ee77 4a87 	vadd.f32	s9, s15, s14
    p1sp3_1 = p1[1] - p3[1];
  4007c6:	ee77 7ac7 	vsub.f32	s15, s15, s14

    // col 2
    t2[0] = p1sp3_0 + p2[1] - p4[1];
  4007ca:	ed9b 2a01 	vldr	s4, [fp, #4]
  4007ce:	edda 2a01 	vldr	s5, [sl, #4]
  4007d2:	ee36 5a02 	vadd.f32	s10, s12, s4
  4007d6:	ee35 5a62 	vsub.f32	s10, s10, s5
    t2[1] = p1sp3_1 - p2[0] + p4[0];
  4007da:	ed9b 3a00 	vldr	s6, [fp]
  4007de:	edda 3a00 	vldr	s7, [sl]
  4007e2:	ee77 6ac3 	vsub.f32	s13, s15, s6
  4007e6:	ee76 6aa3 	vadd.f32	s13, s13, s7
    // col 3
    t3[0] = p1ap3_0 - p2[0] - p4[0];
  4007ea:	ee74 5a43 	vsub.f32	s11, s8, s6
  4007ee:	ee75 5ae3 	vsub.f32	s11, s11, s7
    t3[1] = p1ap3_1 - p2[1] - p4[1];
  4007f2:	ee34 7ac2 	vsub.f32	s14, s9, s4
  4007f6:	ee37 7a62 	vsub.f32	s14, s14, s5
    // col 4
    t4[0] = p1sp3_0 - p2[1] + p4[1];
  4007fa:	ee36 6a42 	vsub.f32	s12, s12, s4
  4007fe:	ee36 6a22 	vadd.f32	s12, s12, s5
    t4[1] = p1sp3_1 + p2[0] - p4[0];
  400802:	ee77 7a83 	vadd.f32	s15, s15, s6
  400806:	ee77 7ae3 	vsub.f32	s15, s15, s7
    // col 1 - Top
    *p1++ = p1ap3_0 + p2[0] + p4[0];
  40080a:	ee34 4a03 	vadd.f32	s8, s8, s6
  40080e:	ee34 4a23 	vadd.f32	s8, s8, s7
  400812:	ed83 4a00 	vstr	s8, [r3]
    *p1++ = p1ap3_1 + p2[1] + p4[1];
  400816:	ed9b 4a01 	vldr	s8, [fp, #4]
  40081a:	ee74 4a84 	vadd.f32	s9, s9, s8
  40081e:	ed9a 4a01 	vldr	s8, [sl, #4]
  400822:	ee74 4a84 	vadd.f32	s9, s9, s8
  400826:	edc3 4a01 	vstr	s9, [r3, #4]

    // COL 2
    twR = tw2[0];
  40082a:	9a05      	ldr	r2, [sp, #20]
  40082c:	edd2 3a00 	vldr	s7, [r2]
    twI = tw2[1];
  400830:	ed92 4a01 	vldr	s8, [r2, #4]

    m0 = t2[0] * twR;
  400834:	ee65 4a23 	vmul.f32	s9, s10, s7
    m1 = t2[1] * twI;
  400838:	ee26 3a84 	vmul.f32	s6, s13, s8
    m2 = t2[1] * twR;
    m3 = t2[0] * twI;

    *p2++ = m0 + m1;
  40083c:	ee74 4a83 	vadd.f32	s9, s9, s6
  400840:	edcb 4a00 	vstr	s9, [fp]
    m2 = t2[1] * twR;
  400844:	ee66 6aa3 	vmul.f32	s13, s13, s7
    m3 = t2[0] * twI;
  400848:	ee25 5a04 	vmul.f32	s10, s10, s8
    *p2++ = m2 - m3;
  40084c:	ee76 6ac5 	vsub.f32	s13, s13, s10
  400850:	edcb 6a01 	vstr	s13, [fp, #4]
    // COL 3
    twR = tw3[0];
  400854:	9a03      	ldr	r2, [sp, #12]
  400856:	edd2 4a00 	vldr	s9, [r2]
    twI = tw3[1];
  40085a:	ed92 5a01 	vldr	s10, [r2, #4]

    m0 = t3[0] * twR;
  40085e:	ee65 6aa4 	vmul.f32	s13, s11, s9
    m1 = t3[1] * twI;
  400862:	ee27 4a05 	vmul.f32	s8, s14, s10
    m2 = t3[1] * twR;
    m3 = t3[0] * twI;

    *p3++ = m0 + m1;
  400866:	ee76 6a84 	vadd.f32	s13, s13, s8
  40086a:	edc0 6a00 	vstr	s13, [r0]
    m2 = t3[1] * twR;
  40086e:	ee27 7a24 	vmul.f32	s14, s14, s9
    m3 = t3[0] * twI;
  400872:	ee65 5a85 	vmul.f32	s11, s11, s10
    *p3++ = m2 - m3;
  400876:	ee37 7a65 	vsub.f32	s14, s14, s11
  40087a:	ed80 7a01 	vstr	s14, [r0, #4]
    // COL 4
    twR = tw4[0];
  40087e:	9a07      	ldr	r2, [sp, #28]
  400880:	edd2 5a00 	vldr	s11, [r2]
    twI = tw4[1];
  400884:	edd2 6a01 	vldr	s13, [r2, #4]

    m0 = t4[0] * twR;
  400888:	ee26 7a25 	vmul.f32	s14, s12, s11
    m1 = t4[1] * twI;
  40088c:	ee27 5aa6 	vmul.f32	s10, s15, s13
    m2 = t4[1] * twR;
    m3 = t4[0] * twI;

    *p4++ = m0 + m1;
  400890:	ee37 7a05 	vadd.f32	s14, s14, s10
  400894:	ed8a 7a00 	vstr	s14, [sl]
    m2 = t4[1] * twR;
  400898:	ee67 7aa5 	vmul.f32	s15, s15, s11
    m3 = t4[0] * twI;
  40089c:	ee26 6a26 	vmul.f32	s12, s12, s13
    *p4++ = m2 - m3;
  4008a0:	ee77 7ac6 	vsub.f32	s15, s15, s12
  4008a4:	edca 7a01 	vstr	s15, [sl, #4]

    // first col
    arm_radix8_butterfly_f32( pCol1, L, (float32_t *) S->pTwiddle, 4u);
  4008a8:	f8bd 4024 	ldrh.w	r4, [sp, #36]	; 0x24
  4008ac:	2304      	movs	r3, #4
  4008ae:	9e0a      	ldr	r6, [sp, #40]	; 0x28
  4008b0:	6872      	ldr	r2, [r6, #4]
  4008b2:	4621      	mov	r1, r4
  4008b4:	9801      	ldr	r0, [sp, #4]
  4008b6:	4d0b      	ldr	r5, [pc, #44]	; (4008e4 <arm_cfft_radix8by4_f32+0x4b8>)
  4008b8:	47a8      	blx	r5
    // second col
    arm_radix8_butterfly_f32( pCol2, L, (float32_t *) S->pTwiddle, 4u);
  4008ba:	2304      	movs	r3, #4
  4008bc:	6872      	ldr	r2, [r6, #4]
  4008be:	4621      	mov	r1, r4
  4008c0:	9808      	ldr	r0, [sp, #32]
  4008c2:	47a8      	blx	r5
    // third col
    arm_radix8_butterfly_f32( pCol3, L, (float32_t *) S->pTwiddle, 4u);
  4008c4:	2304      	movs	r3, #4
  4008c6:	6872      	ldr	r2, [r6, #4]
  4008c8:	4621      	mov	r1, r4
  4008ca:	980c      	ldr	r0, [sp, #48]	; 0x30
  4008cc:	47a8      	blx	r5
    // fourth col
    arm_radix8_butterfly_f32( pCol4, L, (float32_t *) S->pTwiddle, 4u);
  4008ce:	2304      	movs	r3, #4
  4008d0:	6872      	ldr	r2, [r6, #4]
  4008d2:	4621      	mov	r1, r4
  4008d4:	9802      	ldr	r0, [sp, #8]
  4008d6:	47a8      	blx	r5
}
  4008d8:	b00f      	add	sp, #60	; 0x3c
  4008da:	ecbd 8b06 	vpop	{d8-d10}
  4008de:	e8bd 8ff0 	ldmia.w	sp!, {r4, r5, r6, r7, r8, r9, sl, fp, pc}
  4008e2:	bf00      	nop
  4008e4:	004009e5 	.word	0x004009e5

004008e8 <arm_cfft_f32>:
void arm_cfft_f32( 
    const arm_cfft_instance_f32 * S, 
    float32_t * p1,
    uint8_t ifftFlag,
    uint8_t bitReverseFlag)
{
  4008e8:	e92d 47f0 	stmdb	sp!, {r4, r5, r6, r7, r8, r9, sl, lr}
  4008ec:	4607      	mov	r7, r0
  4008ee:	460c      	mov	r4, r1
  4008f0:	4690      	mov	r8, r2
  4008f2:	4699      	mov	r9, r3
    uint32_t  L = S->fftLen, l;
  4008f4:	8805      	ldrh	r5, [r0, #0]
  4008f6:	462e      	mov	r6, r5
    float32_t invL, * pSrc;

    if(ifftFlag == 1u)
  4008f8:	2a01      	cmp	r2, #1
  4008fa:	d00b      	beq.n	400914 <arm_cfft_f32+0x2c>
            *pSrc = -*pSrc;
            pSrc += 2;
        }
    }

    switch (L) 
  4008fc:	f5b5 7f80 	cmp.w	r5, #256	; 0x100
  400900:	d03c      	beq.n	40097c <arm_cfft_f32+0x94>
  400902:	d825      	bhi.n	400950 <arm_cfft_f32+0x68>
  400904:	2d20      	cmp	r5, #32
  400906:	d039      	beq.n	40097c <arm_cfft_f32+0x94>
  400908:	d914      	bls.n	400934 <arm_cfft_f32+0x4c>
  40090a:	2d40      	cmp	r5, #64	; 0x40
  40090c:	d02e      	beq.n	40096c <arm_cfft_f32+0x84>
  40090e:	2d80      	cmp	r5, #128	; 0x80
  400910:	d012      	beq.n	400938 <arm_cfft_f32+0x50>
  400912:	e015      	b.n	400940 <arm_cfft_f32+0x58>
        for(l=0; l<L; l++) 
  400914:	2d00      	cmp	r5, #0
  400916:	d03c      	beq.n	400992 <arm_cfft_f32+0xaa>
  400918:	f101 030c 	add.w	r3, r1, #12
  40091c:	2200      	movs	r2, #0
            *pSrc = -*pSrc;
  40091e:	ed53 7a02 	vldr	s15, [r3, #-8]
  400922:	eef1 7a67 	vneg.f32	s15, s15
  400926:	ed43 7a02 	vstr	s15, [r3, #-8]
        for(l=0; l<L; l++) 
  40092a:	3201      	adds	r2, #1
  40092c:	3308      	adds	r3, #8
  40092e:	4296      	cmp	r6, r2
  400930:	d1f5      	bne.n	40091e <arm_cfft_f32+0x36>
  400932:	e7e3      	b.n	4008fc <arm_cfft_f32+0x14>
    switch (L) 
  400934:	2d10      	cmp	r5, #16
  400936:	d103      	bne.n	400940 <arm_cfft_f32+0x58>
    {
    case 16: 
    case 128:
    case 1024:
        arm_cfft_radix8by2_f32  ( (arm_cfft_instance_f32 *) S, p1);
  400938:	4621      	mov	r1, r4
  40093a:	4638      	mov	r0, r7
  40093c:	4b25      	ldr	r3, [pc, #148]	; (4009d4 <arm_cfft_f32+0xec>)
  40093e:	4798      	blx	r3
    case 4096:
        arm_radix8_butterfly_f32( p1, L, (float32_t *) S->pTwiddle, 1);
        break;
    }  

    if( bitReverseFlag )
  400940:	f1b9 0f00 	cmp.w	r9, #0
  400944:	d11f      	bne.n	400986 <arm_cfft_f32+0x9e>
        arm_bitreversal_32((uint32_t*)p1,S->bitRevLength,S->pBitRevTable);

    if(ifftFlag == 1u)
  400946:	f1b8 0f01 	cmp.w	r8, #1
  40094a:	d024      	beq.n	400996 <arm_cfft_f32+0xae>
  40094c:	e8bd 87f0 	ldmia.w	sp!, {r4, r5, r6, r7, r8, r9, sl, pc}
    switch (L) 
  400950:	f5b5 6f80 	cmp.w	r5, #1024	; 0x400
  400954:	d0f0      	beq.n	400938 <arm_cfft_f32+0x50>
  400956:	d906      	bls.n	400966 <arm_cfft_f32+0x7e>
  400958:	f5b5 6f00 	cmp.w	r5, #2048	; 0x800
  40095c:	d00e      	beq.n	40097c <arm_cfft_f32+0x94>
  40095e:	f5b5 5f80 	cmp.w	r5, #4096	; 0x1000
  400962:	d003      	beq.n	40096c <arm_cfft_f32+0x84>
  400964:	e7ec      	b.n	400940 <arm_cfft_f32+0x58>
  400966:	f5b5 7f00 	cmp.w	r5, #512	; 0x200
  40096a:	d1e9      	bne.n	400940 <arm_cfft_f32+0x58>
        arm_radix8_butterfly_f32( p1, L, (float32_t *) S->pTwiddle, 1);
  40096c:	2301      	movs	r3, #1
  40096e:	687a      	ldr	r2, [r7, #4]
  400970:	4629      	mov	r1, r5
  400972:	4620      	mov	r0, r4
  400974:	f8df a068 	ldr.w	sl, [pc, #104]	; 4009e0 <arm_cfft_f32+0xf8>
  400978:	47d0      	blx	sl
        break;
  40097a:	e7e1      	b.n	400940 <arm_cfft_f32+0x58>
        arm_cfft_radix8by4_f32  ( (arm_cfft_instance_f32 *) S, p1);
  40097c:	4621      	mov	r1, r4
  40097e:	4638      	mov	r0, r7
  400980:	4b15      	ldr	r3, [pc, #84]	; (4009d8 <arm_cfft_f32+0xf0>)
  400982:	4798      	blx	r3
        break;
  400984:	e7dc      	b.n	400940 <arm_cfft_f32+0x58>
        arm_bitreversal_32((uint32_t*)p1,S->bitRevLength,S->pBitRevTable);
  400986:	68ba      	ldr	r2, [r7, #8]
  400988:	89b9      	ldrh	r1, [r7, #12]
  40098a:	4620      	mov	r0, r4
  40098c:	4b13      	ldr	r3, [pc, #76]	; (4009dc <arm_cfft_f32+0xf4>)
  40098e:	4798      	blx	r3
  400990:	e7d9      	b.n	400946 <arm_cfft_f32+0x5e>
    if( bitReverseFlag )
  400992:	2b00      	cmp	r3, #0
  400994:	d1f7      	bne.n	400986 <arm_cfft_f32+0x9e>
    {
        invL = 1.0f/(float32_t)L;
  400996:	ee07 5a90 	vmov	s15, r5
  40099a:	eef8 7a67 	vcvt.f32.u32	s15, s15
  40099e:	eef7 6a00 	vmov.f32	s13, #112	; 0x3f800000  1.0
  4009a2:	ee86 7aa7 	vdiv.f32	s14, s13, s15
        /*  Conjugate and scale output data */
        pSrc = p1;
        for(l=0; l<L; l++) 
  4009a6:	2d00      	cmp	r5, #0
  4009a8:	d0d0      	beq.n	40094c <arm_cfft_f32+0x64>
  4009aa:	f104 0108 	add.w	r1, r4, #8
  4009ae:	2300      	movs	r3, #0
        {
            *pSrc++ *=   invL ;
  4009b0:	ed51 7a02 	vldr	s15, [r1, #-8]
  4009b4:	ee67 7a87 	vmul.f32	s15, s15, s14
  4009b8:	ed41 7a02 	vstr	s15, [r1, #-8]
            *pSrc  = -(*pSrc) * invL;
  4009bc:	ed51 7a01 	vldr	s15, [r1, #-4]
  4009c0:	ee67 7ac7 	vnmul.f32	s15, s15, s14
  4009c4:	ed41 7a01 	vstr	s15, [r1, #-4]
        for(l=0; l<L; l++) 
  4009c8:	3301      	adds	r3, #1
  4009ca:	3108      	adds	r1, #8
  4009cc:	429e      	cmp	r6, r3
  4009ce:	d1ef      	bne.n	4009b0 <arm_cfft_f32+0xc8>
  4009d0:	e8bd 87f0 	ldmia.w	sp!, {r4, r5, r6, r7, r8, r9, sl, pc}
  4009d4:	00400295 	.word	0x00400295
  4009d8:	0040042d 	.word	0x0040042d
  4009dc:	004001d4 	.word	0x004001d4
  4009e0:	004009e5 	.word	0x004009e5

004009e4 <arm_radix8_butterfly_f32>:
void arm_radix8_butterfly_f32(
float32_t * pSrc,
uint16_t fftLen,
const float32_t * pCoef,
uint16_t twidCoefModifier)
{
  4009e4:	e92d 4ff0 	stmdb	sp!, {r4, r5, r6, r7, r8, r9, sl, fp, lr}
  4009e8:	ed2d 8b10 	vpush	{d8-d15}
  4009ec:	b09f      	sub	sp, #124	; 0x7c
  4009ee:	901b      	str	r0, [sp, #108]	; 0x6c
  4009f0:	921d      	str	r2, [sp, #116]	; 0x74
  4009f2:	931c      	str	r3, [sp, #112]	; 0x70
   float32_t p1, p2, p3, p4;
   float32_t co2, co3, co4, co5, co6, co7, co8;
   float32_t si2, si3, si4, si5, si6, si7, si8;
   const float32_t C81 = 0.70710678118f;

   n2 = fftLen;
  4009f4:	9104      	str	r1, [sp, #16]
  4009f6:	9103      	str	r1, [sp, #12]
         pSrc[2 * i5 + 1] = r1 - r2;
         pSrc[2 * i3]     = t1 + s3;
         pSrc[2 * i7]     = t1 - s3;
         pSrc[2 * i3 + 1] = t2 - r3;
         pSrc[2 * i7 + 1] = t2 + r3;
         r1 = (r6 - r8) * C81;
  4009f8:	ed9f 2ac3 	vldr	s4, [pc, #780]	; 400d08 <arm_radix8_butterfly_f32+0x324>
  4009fc:	e18c      	b.n	400d18 <arm_radix8_butterfly_f32+0x334>
  4009fe:	f8cd e008 	str.w	lr, [sp, #8]
            i4 = i3 + n2;
            i5 = i4 + n2;
            i6 = i5 + n2;
            i7 = i6 + n2;
            i8 = i7 + n2;
            r1 = pSrc[2 * i1] + pSrc[2 * i5];
  400a02:	9d01      	ldr	r5, [sp, #4]
  400a04:	ed95 4a00 	vldr	s8, [r5]
  400a08:	ed51 7a01 	vldr	s15, [r1, #-4]
  400a0c:	ee74 3a27 	vadd.f32	s7, s8, s15
            r5 = pSrc[2 * i1] - pSrc[2 * i5];
  400a10:	ee34 4a67 	vsub.f32	s8, s8, s15
            r2 = pSrc[2 * i2] + pSrc[2 * i6];
  400a14:	edd6 6a00 	vldr	s13, [r6]
  400a18:	edd3 7a00 	vldr	s15, [r3]
  400a1c:	ee76 5aa7 	vadd.f32	s11, s13, s15
            r6 = pSrc[2 * i2] - pSrc[2 * i6];
  400a20:	ee76 2ae7 	vsub.f32	s5, s13, s15
            r3 = pSrc[2 * i3] + pSrc[2 * i7];
  400a24:	ed92 7a00 	vldr	s14, [r2]
  400a28:	eb02 090b 	add.w	r9, r2, fp
  400a2c:	edd9 7a00 	vldr	s15, [r9]
  400a30:	ee37 5a27 	vadd.f32	s10, s14, s15
            r7 = pSrc[2 * i3] - pSrc[2 * i7];
  400a34:	ee77 4a67 	vsub.f32	s9, s14, s15
            r4 = pSrc[2 * i4] + pSrc[2 * i8];
  400a38:	ed50 6a01 	vldr	s13, [r0, #-4]
  400a3c:	eb03 0c0a 	add.w	ip, r3, sl
  400a40:	eddc 7a00 	vldr	s15, [ip]
  400a44:	ee36 6aa7 	vadd.f32	s12, s13, s15
            r8 = pSrc[2 * i4] - pSrc[2 * i8];
  400a48:	ee36 3ae7 	vsub.f32	s6, s13, s15
            t1 = r1 - r3;
  400a4c:	ee33 dac5 	vsub.f32	s26, s7, s10
            r1 = r1 + r3;
  400a50:	ee33 7a85 	vadd.f32	s14, s7, s10
            r3 = r2 - r4;
  400a54:	ee75 dac6 	vsub.f32	s27, s11, s12
            r2 = r2 + r4;
  400a58:	ee75 6a86 	vadd.f32	s13, s11, s12
            pSrc[2 * i1] = r1 + r2;
  400a5c:	ee77 7a26 	vadd.f32	s15, s14, s13
  400a60:	edc5 7a00 	vstr	s15, [r5]
            r2 = r1 - r2;
  400a64:	ee37 7a66 	vsub.f32	s14, s14, s13
            s1 = pSrc[2 * i1 + 1] + pSrc[2 * i5 + 1];
  400a68:	ed95 5a01 	vldr	s10, [r5, #4]
  400a6c:	edd1 7a00 	vldr	s15, [r1]
  400a70:	ee75 fa27 	vadd.f32	s31, s10, s15
            s5 = pSrc[2 * i1 + 1] - pSrc[2 * i5 + 1];
  400a74:	ee35 5a67 	vsub.f32	s10, s10, s15
            s2 = pSrc[2 * i2 + 1] + pSrc[2 * i6 + 1];
  400a78:	edd6 3a01 	vldr	s7, [r6, #4]
  400a7c:	edd3 7a01 	vldr	s15, [r3, #4]
  400a80:	ee33 faa7 	vadd.f32	s30, s7, s15
            s6 = pSrc[2 * i2 + 1] - pSrc[2 * i6 + 1];
  400a84:	ee73 3ae7 	vsub.f32	s7, s7, s15
            s3 = pSrc[2 * i3 + 1] + pSrc[2 * i7 + 1];
  400a88:	edd2 5a01 	vldr	s11, [r2, #4]
  400a8c:	eb01 080a 	add.w	r8, r1, sl
  400a90:	edd8 7a00 	vldr	s15, [r8]
  400a94:	ee75 6aa7 	vadd.f32	s13, s11, s15
            s7 = pSrc[2 * i3 + 1] - pSrc[2 * i7 + 1];
  400a98:	ee75 5ae7 	vsub.f32	s11, s11, s15
            s4 = pSrc[2 * i4 + 1] + pSrc[2 * i8 + 1];
  400a9c:	ed90 6a00 	vldr	s12, [r0]
  400aa0:	eb00 0e0b 	add.w	lr, r0, fp
  400aa4:	edde 7a00 	vldr	s15, [lr]
  400aa8:	ee76 ea27 	vadd.f32	s29, s12, s15
            s8 = pSrc[2 * i4 + 1] - pSrc[2 * i8 + 1];
  400aac:	ee36 6a67 	vsub.f32	s12, s12, s15
            t2 = s1 - s3;
  400ab0:	ee3f eae6 	vsub.f32	s28, s31, s13
            s1 = s1 + s3;
  400ab4:	ee7f 6aa6 	vadd.f32	s13, s31, s13
            s3 = s2 - s4;
  400ab8:	ee7f 7a6e 	vsub.f32	s15, s30, s29
            s2 = s2 + s4;
  400abc:	ee7f ea2e 	vadd.f32	s29, s30, s29
            r1 = t1 + s3;
  400ac0:	ee3d fa27 	vadd.f32	s30, s26, s15
            t1 = t1 - s3;
  400ac4:	ee7d 7a67 	vsub.f32	s15, s26, s15
            pSrc[2 * i1 + 1] = s1 + s2;
  400ac8:	ee36 daae 	vadd.f32	s26, s13, s29
  400acc:	ed85 da01 	vstr	s26, [r5, #4]
            s2 = s1 - s2;
  400ad0:	ee76 6aee 	vsub.f32	s13, s13, s29
            s1 = t2 - r3;
  400ad4:	ee3e da6d 	vsub.f32	s26, s28, s27
            t2 = t2 + r3;
  400ad8:	ee3d ea8e 	vadd.f32	s28, s27, s28
            p1 = co5 * r2;
  400adc:	ee6b ea07 	vmul.f32	s29, s22, s14
            p2 = si5 * s2;
  400ae0:	ee60 da26 	vmul.f32	s27, s0, s13
            p3 = co5 * s2;
            p4 = si5 * r2;
            pSrc[2 * i5]     = p1 + p2;
  400ae4:	ee7e daad 	vadd.f32	s27, s29, s27
  400ae8:	ed41 da01 	vstr	s27, [r1, #-4]
            p3 = co5 * s2;
  400aec:	ee6b ea26 	vmul.f32	s29, s22, s13
            p4 = si5 * r2;
  400af0:	ee60 da07 	vmul.f32	s27, s0, s14
            pSrc[2 * i5 + 1] = p3 - p4;
  400af4:	ee7e daed 	vsub.f32	s27, s29, s27
  400af8:	edc1 da00 	vstr	s27, [r1]
            p1 = co3 * r1;
  400afc:	ee6c 6a0f 	vmul.f32	s13, s24, s30
            p2 = si3 * s1;
  400b00:	ee28 7a8d 	vmul.f32	s14, s17, s26
            p3 = co3 * s1;
            p4 = si3 * r1;
            pSrc[2 * i3]     = p1 + p2;
  400b04:	ee36 7a87 	vadd.f32	s14, s13, s14
  400b08:	ed82 7a00 	vstr	s14, [r2]
            p3 = co3 * s1;
  400b0c:	ee2c da0d 	vmul.f32	s26, s24, s26
            p4 = si3 * r1;
  400b10:	ee68 6a8f 	vmul.f32	s13, s17, s30
            pSrc[2 * i3 + 1] = p3 - p4;
  400b14:	ee7d 6a66 	vsub.f32	s13, s26, s13
  400b18:	edc2 6a01 	vstr	s13, [r2, #4]
            p1 = co7 * t1;
  400b1c:	ee6a 6a27 	vmul.f32	s13, s20, s15
            p2 = si7 * t2;
  400b20:	ee21 7a0e 	vmul.f32	s14, s2, s28
            p3 = co7 * t2;
            p4 = si7 * t1;
            pSrc[2 * i7]     = p1 + p2;
  400b24:	ee36 7a87 	vadd.f32	s14, s13, s14
  400b28:	ed89 7a00 	vstr	s14, [r9]
            p3 = co7 * t2;
  400b2c:	ee2a 7a0e 	vmul.f32	s14, s20, s28
            p4 = si7 * t1;
  400b30:	ee61 7a27 	vmul.f32	s15, s2, s15
            pSrc[2 * i7 + 1] = p3 - p4;
  400b34:	ee77 7a67 	vsub.f32	s15, s14, s15
  400b38:	edc8 7a00 	vstr	s15, [r8]
            r1 = (r6 - r8) * C81;
  400b3c:	ee72 7ac3 	vsub.f32	s15, s5, s6
  400b40:	ee67 7a82 	vmul.f32	s15, s15, s4
            r6 = (r6 + r8) * C81;
  400b44:	ee72 6a83 	vadd.f32	s13, s5, s6
  400b48:	ee66 6a82 	vmul.f32	s13, s13, s4
            s1 = (s6 - s8) * C81;
  400b4c:	ee33 3ac6 	vsub.f32	s6, s7, s12
  400b50:	ee23 3a02 	vmul.f32	s6, s6, s4
            s6 = (s6 + s8) * C81;
  400b54:	ee33 6a86 	vadd.f32	s12, s7, s12
  400b58:	ee26 6a02 	vmul.f32	s12, s12, s4
            t1 = r5 - r1;
  400b5c:	ee34 da67 	vsub.f32	s26, s8, s15
            r5 = r5 + r1;
  400b60:	ee34 4a27 	vadd.f32	s8, s8, s15
            r8 = r7 - r6;
  400b64:	ee74 2ae6 	vsub.f32	s5, s9, s13
            r7 = r7 + r6;
  400b68:	ee34 7aa6 	vadd.f32	s14, s9, s13
            t2 = s5 - s1;
  400b6c:	ee75 3a43 	vsub.f32	s7, s10, s6
            s5 = s5 + s1;
  400b70:	ee35 5a03 	vadd.f32	s10, s10, s6
            s8 = s7 - s6;
  400b74:	ee35 3ac6 	vsub.f32	s6, s11, s12
            s7 = s7 + s6;
  400b78:	ee75 7a86 	vadd.f32	s15, s11, s12
            r1 = r5 + s7;
  400b7c:	ee74 4a27 	vadd.f32	s9, s8, s15
            r5 = r5 - s7;
  400b80:	ee74 7a67 	vsub.f32	s15, s8, s15
            r6 = t1 + s8;
  400b84:	ee7d 6a03 	vadd.f32	s13, s26, s6
            t1 = t1 - s8;
  400b88:	ee3d 4a43 	vsub.f32	s8, s26, s6
            s1 = s5 - r7;
  400b8c:	ee75 5a47 	vsub.f32	s11, s10, s14
            s5 = s5 + r7;
  400b90:	ee37 5a05 	vadd.f32	s10, s14, s10
            s6 = t2 - r8;
  400b94:	ee33 6ae2 	vsub.f32	s12, s7, s5
            t2 = t2 + r8;
  400b98:	ee32 7aa3 	vadd.f32	s14, s5, s7
            p1 = co2 * r1;
  400b9c:	ee2c 3aa4 	vmul.f32	s6, s25, s9
            p2 = si2 * s1;
  400ba0:	ee69 3a25 	vmul.f32	s7, s18, s11
            p3 = co2 * s1;
            p4 = si2 * r1;
            pSrc[2 * i2]     = p1 + p2;
  400ba4:	ee73 3a23 	vadd.f32	s7, s6, s7
  400ba8:	edc6 3a00 	vstr	s7, [r6]
            p3 = co2 * s1;
  400bac:	ee6c 5aa5 	vmul.f32	s11, s25, s11
            p4 = si2 * r1;
  400bb0:	ee69 4a24 	vmul.f32	s9, s18, s9
            pSrc[2 * i2 + 1] = p3 - p4;
  400bb4:	ee75 5ae4 	vsub.f32	s11, s11, s9
  400bb8:	edc6 5a01 	vstr	s11, [r6, #4]
            p1 = co8 * r5;
  400bbc:	ee69 4aa7 	vmul.f32	s9, s19, s15
            p2 = si8 * s5;
  400bc0:	ee61 5a85 	vmul.f32	s11, s3, s10
            p3 = co8 * s5;
            p4 = si8 * r5;
            pSrc[2 * i8]     = p1 + p2;
  400bc4:	ee74 5aa5 	vadd.f32	s11, s9, s11
  400bc8:	edcc 5a00 	vstr	s11, [ip]
            p3 = co8 * s5;
  400bcc:	ee29 5a85 	vmul.f32	s10, s19, s10
            p4 = si8 * r5;
  400bd0:	ee61 5aa7 	vmul.f32	s11, s3, s15
            pSrc[2 * i8 + 1] = p3 - p4;
  400bd4:	ee35 5a65 	vsub.f32	s10, s10, s11
  400bd8:	ed8e 5a00 	vstr	s10, [lr]
            p1 = co6 * r6;
  400bdc:	ee6a 5aa6 	vmul.f32	s11, s21, s13
            p2 = si6 * s6;
  400be0:	ee60 7a86 	vmul.f32	s15, s1, s12
            p3 = co6 * s6;
            p4 = si6 * r6;
            pSrc[2 * i6]     = p1 + p2;
  400be4:	ee75 7aa7 	vadd.f32	s15, s11, s15
  400be8:	edc3 7a00 	vstr	s15, [r3]
            p3 = co6 * s6;
  400bec:	ee2a 6a86 	vmul.f32	s12, s21, s12
            p4 = si6 * r6;
  400bf0:	ee60 6aa6 	vmul.f32	s13, s1, s13
            pSrc[2 * i6 + 1] = p3 - p4;
  400bf4:	ee76 6a66 	vsub.f32	s13, s12, s13
  400bf8:	edc3 6a01 	vstr	s13, [r3, #4]
            p1 = co4 * t1;
  400bfc:	ee6b 6a84 	vmul.f32	s13, s23, s8
            p2 = si4 * t2;
  400c00:	ee68 7a07 	vmul.f32	s15, s16, s14
            p3 = co4 * t2;
            p4 = si4 * t1;
            pSrc[2 * i4]     = p1 + p2;
  400c04:	ee76 7aa7 	vadd.f32	s15, s13, s15
  400c08:	ed40 7a01 	vstr	s15, [r0, #-4]
            p3 = co4 * t2;
  400c0c:	ee2b 7a87 	vmul.f32	s14, s23, s14
            p4 = si4 * t1;
  400c10:	ee68 7a04 	vmul.f32	s15, s16, s8
            pSrc[2 * i4 + 1] = p3 - p4;
  400c14:	ee77 7a67 	vsub.f32	s15, s14, s15
  400c18:	edc0 7a00 	vstr	s15, [r0]
  400c1c:	9f03      	ldr	r7, [sp, #12]
  400c1e:	9d02      	ldr	r5, [sp, #8]
  400c20:	eb07 0e05 	add.w	lr, r7, r5
  400c24:	9d01      	ldr	r5, [sp, #4]
  400c26:	4425      	add	r5, r4
  400c28:	9501      	str	r5, [sp, #4]
  400c2a:	4426      	add	r6, r4
  400c2c:	4423      	add	r3, r4
  400c2e:	4422      	add	r2, r4
  400c30:	4421      	add	r1, r4
  400c32:	4420      	add	r0, r4
            
            i1 += n1;
         } while(i1 < fftLen);
  400c34:	9f04      	ldr	r7, [sp, #16]
  400c36:	9d02      	ldr	r5, [sp, #8]
  400c38:	42bd      	cmp	r5, r7
  400c3a:	f4ff aee0 	bcc.w	4009fe <arm_radix8_butterfly_f32+0x1a>
         
         j++;
  400c3e:	9b06      	ldr	r3, [sp, #24]
  400c40:	3301      	adds	r3, #1
  400c42:	9306      	str	r3, [sp, #24]
  400c44:	9a07      	ldr	r2, [sp, #28]
  400c46:	9914      	ldr	r1, [sp, #80]	; 0x50
  400c48:	440a      	add	r2, r1
  400c4a:	9207      	str	r2, [sp, #28]
  400c4c:	9a08      	ldr	r2, [sp, #32]
  400c4e:	9915      	ldr	r1, [sp, #84]	; 0x54
  400c50:	440a      	add	r2, r1
  400c52:	9208      	str	r2, [sp, #32]
  400c54:	9a09      	ldr	r2, [sp, #36]	; 0x24
  400c56:	9916      	ldr	r1, [sp, #88]	; 0x58
  400c58:	440a      	add	r2, r1
  400c5a:	9209      	str	r2, [sp, #36]	; 0x24
  400c5c:	9a0a      	ldr	r2, [sp, #40]	; 0x28
  400c5e:	9917      	ldr	r1, [sp, #92]	; 0x5c
  400c60:	440a      	add	r2, r1
  400c62:	920a      	str	r2, [sp, #40]	; 0x28
  400c64:	9a0b      	ldr	r2, [sp, #44]	; 0x2c
  400c66:	9918      	ldr	r1, [sp, #96]	; 0x60
  400c68:	440a      	add	r2, r1
  400c6a:	920b      	str	r2, [sp, #44]	; 0x2c
  400c6c:	9a0c      	ldr	r2, [sp, #48]	; 0x30
  400c6e:	9919      	ldr	r1, [sp, #100]	; 0x64
  400c70:	440a      	add	r2, r1
  400c72:	920c      	str	r2, [sp, #48]	; 0x30
  400c74:	9a05      	ldr	r2, [sp, #20]
  400c76:	991a      	ldr	r1, [sp, #104]	; 0x68
  400c78:	440a      	add	r2, r1
  400c7a:	9205      	str	r2, [sp, #20]
  400c7c:	9a0d      	ldr	r2, [sp, #52]	; 0x34
  400c7e:	3208      	adds	r2, #8
  400c80:	920d      	str	r2, [sp, #52]	; 0x34
  400c82:	9a0e      	ldr	r2, [sp, #56]	; 0x38
  400c84:	3208      	adds	r2, #8
  400c86:	920e      	str	r2, [sp, #56]	; 0x38
  400c88:	9a0f      	ldr	r2, [sp, #60]	; 0x3c
  400c8a:	3208      	adds	r2, #8
  400c8c:	920f      	str	r2, [sp, #60]	; 0x3c
  400c8e:	9a10      	ldr	r2, [sp, #64]	; 0x40
  400c90:	3208      	adds	r2, #8
  400c92:	9210      	str	r2, [sp, #64]	; 0x40
  400c94:	9a11      	ldr	r2, [sp, #68]	; 0x44
  400c96:	3208      	adds	r2, #8
  400c98:	9211      	str	r2, [sp, #68]	; 0x44
  400c9a:	9a12      	ldr	r2, [sp, #72]	; 0x48
  400c9c:	3208      	adds	r2, #8
  400c9e:	9212      	str	r2, [sp, #72]	; 0x48
      } while(j < n2);
  400ca0:	9a13      	ldr	r2, [sp, #76]	; 0x4c
  400ca2:	429a      	cmp	r2, r3
  400ca4:	d032      	beq.n	400d0c <arm_radix8_butterfly_f32+0x328>
         co2 = pCoef[2 * ia1];
  400ca6:	9a07      	ldr	r2, [sp, #28]
  400ca8:	edd2 ca00 	vldr	s25, [r2]
         co3 = pCoef[2 * ia2];
  400cac:	9908      	ldr	r1, [sp, #32]
  400cae:	ed91 ca00 	vldr	s24, [r1]
         co4 = pCoef[2 * ia3];
  400cb2:	9809      	ldr	r0, [sp, #36]	; 0x24
  400cb4:	edd0 ba00 	vldr	s23, [r0]
         co5 = pCoef[2 * ia4];
  400cb8:	9d0a      	ldr	r5, [sp, #40]	; 0x28
  400cba:	ed95 ba00 	vldr	s22, [r5]
         co6 = pCoef[2 * ia5];
  400cbe:	9e0b      	ldr	r6, [sp, #44]	; 0x2c
  400cc0:	edd6 aa00 	vldr	s21, [r6]
         co7 = pCoef[2 * ia6];
  400cc4:	9f0c      	ldr	r7, [sp, #48]	; 0x30
  400cc6:	ed97 aa00 	vldr	s20, [r7]
         co8 = pCoef[2 * ia7];
  400cca:	9b05      	ldr	r3, [sp, #20]
  400ccc:	edd3 9a00 	vldr	s19, [r3]
         si2 = pCoef[2 * ia1 + 1];
  400cd0:	ed92 9a01 	vldr	s18, [r2, #4]
         si3 = pCoef[2 * ia2 + 1];
  400cd4:	edd1 8a01 	vldr	s17, [r1, #4]
         si4 = pCoef[2 * ia3 + 1];
  400cd8:	ed90 8a01 	vldr	s16, [r0, #4]
         si5 = pCoef[2 * ia4 + 1];
  400cdc:	ed95 0a01 	vldr	s0, [r5, #4]
         si6 = pCoef[2 * ia5 + 1];
  400ce0:	edd6 0a01 	vldr	s1, [r6, #4]
         si7 = pCoef[2 * ia6 + 1];
  400ce4:	ed97 1a01 	vldr	s2, [r7, #4]
         si8 = pCoef[2 * ia7 + 1];         
  400ce8:	9b05      	ldr	r3, [sp, #20]
  400cea:	edd3 1a01 	vldr	s3, [r3, #4]
  400cee:	9b03      	ldr	r3, [sp, #12]
  400cf0:	9a06      	ldr	r2, [sp, #24]
  400cf2:	189f      	adds	r7, r3, r2
  400cf4:	9812      	ldr	r0, [sp, #72]	; 0x48
  400cf6:	9911      	ldr	r1, [sp, #68]	; 0x44
  400cf8:	9a10      	ldr	r2, [sp, #64]	; 0x40
  400cfa:	9b0f      	ldr	r3, [sp, #60]	; 0x3c
  400cfc:	9e0e      	ldr	r6, [sp, #56]	; 0x38
  400cfe:	9d0d      	ldr	r5, [sp, #52]	; 0x34
  400d00:	9702      	str	r7, [sp, #8]
  400d02:	9501      	str	r5, [sp, #4]
  400d04:	e67d      	b.n	400a02 <arm_radix8_butterfly_f32+0x1e>
  400d06:	bf00      	nop
  400d08:	3f3504f3 	.word	0x3f3504f3
      
      twidCoefModifier <<= 3;
  400d0c:	9b1c      	ldr	r3, [sp, #112]	; 0x70
  400d0e:	00db      	lsls	r3, r3, #3
  400d10:	b29b      	uxth	r3, r3
  400d12:	931c      	str	r3, [sp, #112]	; 0x70
      n2 = n2 >> 3;
  400d14:	9b06      	ldr	r3, [sp, #24]
  400d16:	9303      	str	r3, [sp, #12]
  400d18:	9a03      	ldr	r2, [sp, #12]
  400d1a:	08d3      	lsrs	r3, r2, #3
  400d1c:	461d      	mov	r5, r3
  400d1e:	9313      	str	r3, [sp, #76]	; 0x4c
  400d20:	00d4      	lsls	r4, r2, #3
  400d22:	9e1b      	ldr	r6, [sp, #108]	; 0x6c
  400d24:	46b6      	mov	lr, r6
  400d26:	ea4f 0943 	mov.w	r9, r3, lsl #1
  400d2a:	eb03 0209 	add.w	r2, r3, r9
  400d2e:	4413      	add	r3, r2
  400d30:	eb06 07c3 	add.w	r7, r6, r3, lsl #3
  400d34:	4628      	mov	r0, r5
  400d36:	ea4f 08c5 	mov.w	r8, r5, lsl #3
  400d3a:	4631      	mov	r1, r6
  400d3c:	4441      	add	r1, r8
  400d3e:	442b      	add	r3, r5
  400d40:	eb06 05c3 	add.w	r5, r6, r3, lsl #3
  400d44:	9501      	str	r5, [sp, #4]
  400d46:	4605      	mov	r5, r0
  400d48:	ea4f 1a00 	mov.w	sl, r0, lsl #4
  400d4c:	eb01 0008 	add.w	r0, r1, r8
  400d50:	9002      	str	r0, [sp, #8]
  400d52:	442b      	add	r3, r5
  400d54:	eb06 00c3 	add.w	r0, r6, r3, lsl #3
  400d58:	eb06 02c2 	add.w	r2, r6, r2, lsl #3
  400d5c:	442b      	add	r3, r5
  400d5e:	eb06 03c3 	add.w	r3, r6, r3, lsl #3
  400d62:	3304      	adds	r3, #4
      i1 = 0;
  400d64:	f04f 0c00 	mov.w	ip, #0
  400d68:	f8dd b010 	ldr.w	fp, [sp, #16]
  400d6c:	f8cd 9014 	str.w	r9, [sp, #20]
  400d70:	f8dd 900c 	ldr.w	r9, [sp, #12]
  400d74:	9e01      	ldr	r6, [sp, #4]
  400d76:	9d02      	ldr	r5, [sp, #8]
         r1 = pSrc[2 * i1] + pSrc[2 * i5];
  400d78:	ed9e 7a00 	vldr	s14, [lr]
  400d7c:	edd7 7a00 	vldr	s15, [r7]
  400d80:	ee77 4a27 	vadd.f32	s9, s14, s15
         r5 = pSrc[2 * i1] - pSrc[2 * i5];
  400d84:	ee37 3a67 	vsub.f32	s6, s14, s15
         r2 = pSrc[2 * i2] + pSrc[2 * i6];
  400d88:	edd1 3a00 	vldr	s7, [r1]
  400d8c:	ed96 7a00 	vldr	s14, [r6]
  400d90:	ee73 7a87 	vadd.f32	s15, s7, s14
         r6 = pSrc[2 * i2] - pSrc[2 * i6];
  400d94:	ee73 3ac7 	vsub.f32	s7, s7, s14
         r3 = pSrc[2 * i3] + pSrc[2 * i7];
  400d98:	edd5 5a00 	vldr	s11, [r5]
  400d9c:	edd0 6a00 	vldr	s13, [r0]
  400da0:	ee35 7aa6 	vadd.f32	s14, s11, s13
         r7 = pSrc[2 * i3] - pSrc[2 * i7];
  400da4:	ee35 4ae6 	vsub.f32	s8, s11, s13
         r4 = pSrc[2 * i4] + pSrc[2 * i8];
  400da8:	ed92 5a00 	vldr	s10, [r2]
  400dac:	ed13 6a01 	vldr	s12, [r3, #-4]
  400db0:	ee75 6a06 	vadd.f32	s13, s10, s12
         r8 = pSrc[2 * i4] - pSrc[2 * i8];
  400db4:	ee35 5a46 	vsub.f32	s10, s10, s12
         t1 = r1 - r3;
  400db8:	ee34 0ac7 	vsub.f32	s0, s9, s14
         r1 = r1 + r3;
  400dbc:	ee34 7a87 	vadd.f32	s14, s9, s14
         r3 = r2 - r4;
  400dc0:	ee37 8ae6 	vsub.f32	s16, s15, s13
         r2 = r2 + r4;
  400dc4:	ee77 7aa6 	vadd.f32	s15, s15, s13
         pSrc[2 * i1] = r1 + r2;   
  400dc8:	ee77 6a27 	vadd.f32	s13, s14, s15
  400dcc:	edce 6a00 	vstr	s13, [lr]
         pSrc[2 * i5] = r1 - r2;
  400dd0:	ee77 7a67 	vsub.f32	s15, s14, s15
  400dd4:	edc7 7a00 	vstr	s15, [r7]
         r1 = pSrc[2 * i1 + 1] + pSrc[2 * i5 + 1];
  400dd8:	ed9e 6a01 	vldr	s12, [lr, #4]
  400ddc:	edd7 7a01 	vldr	s15, [r7, #4]
  400de0:	ee36 1a27 	vadd.f32	s2, s12, s15
         s5 = pSrc[2 * i1 + 1] - pSrc[2 * i5 + 1];
  400de4:	ee76 4a67 	vsub.f32	s9, s12, s15
         r2 = pSrc[2 * i2 + 1] + pSrc[2 * i6 + 1];
  400de8:	ed91 6a01 	vldr	s12, [r1, #4]
  400dec:	edd6 7a01 	vldr	s15, [r6, #4]
  400df0:	ee36 7a27 	vadd.f32	s14, s12, s15
         s6 = pSrc[2 * i2 + 1] - pSrc[2 * i6 + 1];
  400df4:	ee36 6a67 	vsub.f32	s12, s12, s15
         s3 = pSrc[2 * i3 + 1] + pSrc[2 * i7 + 1];
  400df8:	edd5 6a01 	vldr	s13, [r5, #4]
  400dfc:	edd0 7a01 	vldr	s15, [r0, #4]
  400e00:	ee76 1aa7 	vadd.f32	s3, s13, s15
         s7 = pSrc[2 * i3 + 1] - pSrc[2 * i7 + 1];
  400e04:	ee76 7ae7 	vsub.f32	s15, s13, s15
         r4 = pSrc[2 * i4 + 1] + pSrc[2 * i8 + 1];
  400e08:	edd2 5a01 	vldr	s11, [r2, #4]
  400e0c:	edd3 6a00 	vldr	s13, [r3]
  400e10:	ee75 2aa6 	vadd.f32	s5, s11, s13
         s8 = pSrc[2 * i4 + 1] - pSrc[2 * i8 + 1];
  400e14:	ee75 6ae6 	vsub.f32	s13, s11, s13
         t2 = r1 - s3;
  400e18:	ee71 0a61 	vsub.f32	s1, s2, s3
         r1 = r1 + s3;
  400e1c:	ee71 5a21 	vadd.f32	s11, s2, s3
         s3 = r2 - r4;
  400e20:	ee77 1a62 	vsub.f32	s3, s14, s5
         r2 = r2 + r4;
  400e24:	ee37 7a22 	vadd.f32	s14, s14, s5
         pSrc[2 * i1 + 1] = r1 + r2;
  400e28:	ee75 2a87 	vadd.f32	s5, s11, s14
  400e2c:	edce 2a01 	vstr	s5, [lr, #4]
         pSrc[2 * i5 + 1] = r1 - r2;
  400e30:	ee35 7ac7 	vsub.f32	s14, s11, s14
  400e34:	ed87 7a01 	vstr	s14, [r7, #4]
         pSrc[2 * i3]     = t1 + s3;
  400e38:	ee30 7a21 	vadd.f32	s14, s0, s3
  400e3c:	ed85 7a00 	vstr	s14, [r5]
         pSrc[2 * i7]     = t1 - s3;
  400e40:	ee70 1a61 	vsub.f32	s3, s0, s3
  400e44:	edc0 1a00 	vstr	s3, [r0]
         pSrc[2 * i3 + 1] = t2 - r3;
  400e48:	ee30 7ac8 	vsub.f32	s14, s1, s16
  400e4c:	ed85 7a01 	vstr	s14, [r5, #4]
         pSrc[2 * i7 + 1] = t2 + r3;
  400e50:	ee78 0a20 	vadd.f32	s1, s16, s1
  400e54:	edc0 0a01 	vstr	s1, [r0, #4]
         r1 = (r6 - r8) * C81;
  400e58:	ee33 7ac5 	vsub.f32	s14, s7, s10
  400e5c:	ee27 7a02 	vmul.f32	s14, s14, s4
         r6 = (r6 + r8) * C81;
  400e60:	ee73 5a85 	vadd.f32	s11, s7, s10
  400e64:	ee65 5a82 	vmul.f32	s11, s11, s4
         r2 = (s6 - s8) * C81;
  400e68:	ee36 5a66 	vsub.f32	s10, s12, s13
  400e6c:	ee25 5a02 	vmul.f32	s10, s10, s4
         s6 = (s6 + s8) * C81;
  400e70:	ee76 6a26 	vadd.f32	s13, s12, s13
  400e74:	ee66 6a82 	vmul.f32	s13, s13, s4
         t1 = r5 - r1;
  400e78:	ee73 2a47 	vsub.f32	s5, s6, s14
         r5 = r5 + r1;
  400e7c:	ee33 7a07 	vadd.f32	s14, s6, s14
         r8 = r7 - r6;
  400e80:	ee74 3a65 	vsub.f32	s7, s8, s11
         r7 = r7 + r6;
  400e84:	ee74 5a25 	vadd.f32	s11, s8, s11
         t2 = s5 - r2;
  400e88:	ee34 4ac5 	vsub.f32	s8, s9, s10
         s5 = s5 + r2;
  400e8c:	ee34 6a85 	vadd.f32	s12, s9, s10
         s8 = s7 - s6;
  400e90:	ee37 5ae6 	vsub.f32	s10, s15, s13
         s7 = s7 + s6;
  400e94:	ee77 7aa6 	vadd.f32	s15, s15, s13
         pSrc[2 * i2]     = r5 + s7;
  400e98:	ee77 6a27 	vadd.f32	s13, s14, s15
  400e9c:	edc1 6a00 	vstr	s13, [r1]
         pSrc[2 * i8]     = r5 - s7;
  400ea0:	ee77 7a67 	vsub.f32	s15, s14, s15
  400ea4:	ed43 7a01 	vstr	s15, [r3, #-4]
         pSrc[2 * i6]     = t1 + s8;
  400ea8:	ee72 7a85 	vadd.f32	s15, s5, s10
  400eac:	edc6 7a00 	vstr	s15, [r6]
         pSrc[2 * i4]     = t1 - s8;
  400eb0:	ee32 5ac5 	vsub.f32	s10, s5, s10
  400eb4:	ed82 5a00 	vstr	s10, [r2]
         pSrc[2 * i2 + 1] = s5 - r7;
  400eb8:	ee76 7a65 	vsub.f32	s15, s12, s11
  400ebc:	edc1 7a01 	vstr	s15, [r1, #4]
         pSrc[2 * i8 + 1] = s5 + r7;
  400ec0:	ee35 6a86 	vadd.f32	s12, s11, s12
  400ec4:	ed83 6a00 	vstr	s12, [r3]
         pSrc[2 * i6 + 1] = t2 - r8;
  400ec8:	ee74 7a63 	vsub.f32	s15, s8, s7
  400ecc:	edc6 7a01 	vstr	s15, [r6, #4]
         pSrc[2 * i4 + 1] = t2 + r8;
  400ed0:	ee33 4a84 	vadd.f32	s8, s7, s8
  400ed4:	ed82 4a01 	vstr	s8, [r2, #4]
         i1 += n1;
  400ed8:	44cc      	add	ip, r9
  400eda:	44a6      	add	lr, r4
  400edc:	4427      	add	r7, r4
  400ede:	4421      	add	r1, r4
  400ee0:	4426      	add	r6, r4
  400ee2:	4425      	add	r5, r4
  400ee4:	4420      	add	r0, r4
  400ee6:	4422      	add	r2, r4
  400ee8:	4423      	add	r3, r4
      } while(i1 < fftLen);
  400eea:	45e3      	cmp	fp, ip
  400eec:	f63f af44 	bhi.w	400d78 <arm_radix8_butterfly_f32+0x394>
  400ef0:	f8dd 9014 	ldr.w	r9, [sp, #20]
      if(n2 < 8)
  400ef4:	9e13      	ldr	r6, [sp, #76]	; 0x4c
  400ef6:	2e07      	cmp	r6, #7
  400ef8:	d954      	bls.n	400fa4 <arm_radix8_butterfly_f32+0x5c0>
  400efa:	9b1c      	ldr	r3, [sp, #112]	; 0x70
  400efc:	00da      	lsls	r2, r3, #3
  400efe:	4611      	mov	r1, r2
  400f00:	9214      	str	r2, [sp, #80]	; 0x50
  400f02:	981d      	ldr	r0, [sp, #116]	; 0x74
  400f04:	4602      	mov	r2, r0
  400f06:	1841      	adds	r1, r0, r1
  400f08:	9107      	str	r1, [sp, #28]
  400f0a:	0119      	lsls	r1, r3, #4
  400f0c:	9115      	str	r1, [sp, #84]	; 0x54
  400f0e:	440a      	add	r2, r1
  400f10:	9208      	str	r2, [sp, #32]
  400f12:	4619      	mov	r1, r3
  400f14:	eb03 0343 	add.w	r3, r3, r3, lsl #1
  400f18:	00da      	lsls	r2, r3, #3
  400f1a:	4615      	mov	r5, r2
  400f1c:	9216      	str	r2, [sp, #88]	; 0x58
  400f1e:	4602      	mov	r2, r0
  400f20:	442a      	add	r2, r5
  400f22:	9209      	str	r2, [sp, #36]	; 0x24
  400f24:	460a      	mov	r2, r1
  400f26:	440b      	add	r3, r1
  400f28:	00d9      	lsls	r1, r3, #3
  400f2a:	460d      	mov	r5, r1
  400f2c:	9117      	str	r1, [sp, #92]	; 0x5c
  400f2e:	4601      	mov	r1, r0
  400f30:	4429      	add	r1, r5
  400f32:	910a      	str	r1, [sp, #40]	; 0x28
  400f34:	4611      	mov	r1, r2
  400f36:	4413      	add	r3, r2
  400f38:	00da      	lsls	r2, r3, #3
  400f3a:	4615      	mov	r5, r2
  400f3c:	9218      	str	r2, [sp, #96]	; 0x60
  400f3e:	4602      	mov	r2, r0
  400f40:	442a      	add	r2, r5
  400f42:	920b      	str	r2, [sp, #44]	; 0x2c
  400f44:	460a      	mov	r2, r1
  400f46:	440b      	add	r3, r1
  400f48:	00d9      	lsls	r1, r3, #3
  400f4a:	460d      	mov	r5, r1
  400f4c:	9119      	str	r1, [sp, #100]	; 0x64
  400f4e:	4601      	mov	r1, r0
  400f50:	4429      	add	r1, r5
  400f52:	910c      	str	r1, [sp, #48]	; 0x30
  400f54:	4413      	add	r3, r2
  400f56:	00db      	lsls	r3, r3, #3
  400f58:	931a      	str	r3, [sp, #104]	; 0x68
  400f5a:	18c3      	adds	r3, r0, r3
  400f5c:	9305      	str	r3, [sp, #20]
  400f5e:	9d1b      	ldr	r5, [sp, #108]	; 0x6c
  400f60:	462b      	mov	r3, r5
  400f62:	3308      	adds	r3, #8
  400f64:	930d      	str	r3, [sp, #52]	; 0x34
  400f66:	f108 0308 	add.w	r3, r8, #8
  400f6a:	18eb      	adds	r3, r5, r3
  400f6c:	930e      	str	r3, [sp, #56]	; 0x38
  400f6e:	f109 0301 	add.w	r3, r9, #1
  400f72:	4632      	mov	r2, r6
  400f74:	4433      	add	r3, r6
  400f76:	441a      	add	r2, r3
  400f78:	4631      	mov	r1, r6
  400f7a:	4411      	add	r1, r2
  400f7c:	eb05 01c1 	add.w	r1, r5, r1, lsl #3
  400f80:	910f      	str	r1, [sp, #60]	; 0x3c
  400f82:	f10a 0108 	add.w	r1, sl, #8
  400f86:	1869      	adds	r1, r5, r1
  400f88:	9110      	str	r1, [sp, #64]	; 0x40
  400f8a:	eb05 02c2 	add.w	r2, r5, r2, lsl #3
  400f8e:	3204      	adds	r2, #4
  400f90:	9211      	str	r2, [sp, #68]	; 0x44
  400f92:	eb05 03c3 	add.w	r3, r5, r3, lsl #3
  400f96:	3304      	adds	r3, #4
  400f98:	9312      	str	r3, [sp, #72]	; 0x48
  400f9a:	ea4f 1b46 	mov.w	fp, r6, lsl #5
  400f9e:	2301      	movs	r3, #1
  400fa0:	9306      	str	r3, [sp, #24]
  400fa2:	e680      	b.n	400ca6 <arm_radix8_butterfly_f32+0x2c2>
   } while(n2 > 7);   
}
  400fa4:	b01f      	add	sp, #124	; 0x7c
  400fa6:	ecbd 8b10 	vpop	{d8-d15}
  400faa:	e8bd 8ff0 	ldmia.w	sp!, {r4, r5, r6, r7, r8, r9, sl, fp, pc}
  400fae:	bf00      	nop

00400fb0 <arm_cmplx_mag_f32>:

void arm_cmplx_mag_f32(
  float32_t * pSrc,
  float32_t * pDst,
  uint32_t numSamples)
{
  400fb0:	e92d 4ff8 	stmdb	sp!, {r3, r4, r5, r6, r7, r8, r9, sl, fp, lr}
  400fb4:	ed2d 8b02 	vpush	{d8}
  400fb8:	4607      	mov	r7, r0
  400fba:	4689      	mov	r9, r1
  400fbc:	4690      	mov	r8, r2
  /*loop Unrolling */
  blkCnt = numSamples >> 2u;

  /* First part of the processing with loop unrolling.  Compute 4 outputs at a time.    
   ** a second loop below computes the remaining 1 to 3 samples. */
  while(blkCnt > 0u)
  400fbe:	ea5f 0b92 	movs.w	fp, r2, lsr #2
  400fc2:	f000 8092 	beq.w	4010ea <arm_cmplx_mag_f32+0x13a>
  400fc6:	f100 0620 	add.w	r6, r0, #32
  400fca:	f101 0510 	add.w	r5, r1, #16
  400fce:	46da      	mov	sl, fp

      return (ARM_MATH_SUCCESS);
    }
    else
    {
      *pOut = 0.0f;
  400fd0:	ed9f 8a5e 	vldr	s16, [pc, #376]	; 40114c <arm_cmplx_mag_f32+0x19c>
  400fd4:	e01e      	b.n	401014 <arm_cmplx_mag_f32+0x64>
      *pOut = __builtin_sqrtf(in);
  400fd6:	ee17 0a90 	vmov	r0, s15
  400fda:	4b5d      	ldr	r3, [pc, #372]	; (401150 <arm_cmplx_mag_f32+0x1a0>)
  400fdc:	4798      	blx	r3
  400fde:	e030      	b.n	401042 <arm_cmplx_mag_f32+0x92>
      *pOut = 0.0f;
  400fe0:	ed05 8a04 	vstr	s16, [r5, #-16]
  400fe4:	e02f      	b.n	401046 <arm_cmplx_mag_f32+0x96>
      *pOut = __builtin_sqrtf(in);
  400fe6:	ee17 0a90 	vmov	r0, s15
  400fea:	4b59      	ldr	r3, [pc, #356]	; (401150 <arm_cmplx_mag_f32+0x1a0>)
  400fec:	4798      	blx	r3
  400fee:	e040      	b.n	401072 <arm_cmplx_mag_f32+0xc2>
      *pOut = 0.0f;
  400ff0:	ed05 8a03 	vstr	s16, [r5, #-12]
  400ff4:	e03f      	b.n	401076 <arm_cmplx_mag_f32+0xc6>
      *pOut = __builtin_sqrtf(in);
  400ff6:	ee17 0a90 	vmov	r0, s15
  400ffa:	4b55      	ldr	r3, [pc, #340]	; (401150 <arm_cmplx_mag_f32+0x1a0>)
  400ffc:	4798      	blx	r3
  400ffe:	e050      	b.n	4010a2 <arm_cmplx_mag_f32+0xf2>
      *pOut = 0.0f;
  401000:	ed05 8a02 	vstr	s16, [r5, #-8]
  401004:	e04f      	b.n	4010a6 <arm_cmplx_mag_f32+0xf6>
      *pOut = __builtin_sqrtf(in);
  401006:	ed45 8a01 	vstr	s17, [r5, #-4]
  40100a:	3620      	adds	r6, #32
  40100c:	3510      	adds	r5, #16
  40100e:	f1ba 0a01 	subs.w	sl, sl, #1
  401012:	d066      	beq.n	4010e2 <arm_cmplx_mag_f32+0x132>
  401014:	4634      	mov	r4, r6
  {

    /* C[0] = sqrt(A[0] * A[0] + A[1] * A[1]) */
    realIn = *pSrc++;
  401016:	ed56 7a08 	vldr	s15, [r6, #-32]	; 0xffffffe0
    imagIn = *pSrc++;
  40101a:	ed16 7a07 	vldr	s14, [r6, #-28]	; 0xffffffe4
    /* store the result in the destination buffer. */
    arm_sqrt_f32((realIn * realIn) + (imagIn * imagIn), pDst++);
  40101e:	ee67 7aa7 	vmul.f32	s15, s15, s15
  401022:	ee27 7a07 	vmul.f32	s14, s14, s14
  401026:	ee77 7a87 	vadd.f32	s15, s15, s14
    if(in >= 0.0f)
  40102a:	eef5 7ac0 	vcmpe.f32	s15, #0.0
  40102e:	eef1 fa10 	vmrs	APSR_nzcv, fpscr
  401032:	dbd5      	blt.n	400fe0 <arm_cmplx_mag_f32+0x30>
      *pOut = __builtin_sqrtf(in);
  401034:	eef1 8ae7 	vsqrt.f32	s17, s15
  401038:	eef5 7a40 	vcmp.f32	s15, #0.0
  40103c:	eef1 fa10 	vmrs	APSR_nzcv, fpscr
  401040:	d4c9      	bmi.n	400fd6 <arm_cmplx_mag_f32+0x26>
  401042:	ed45 8a04 	vstr	s17, [r5, #-16]

    realIn = *pSrc++;
  401046:	ed54 7a06 	vldr	s15, [r4, #-24]	; 0xffffffe8
    imagIn = *pSrc++;
  40104a:	ed14 7a05 	vldr	s14, [r4, #-20]	; 0xffffffec
    arm_sqrt_f32((realIn * realIn) + (imagIn * imagIn), pDst++);
  40104e:	ee67 7aa7 	vmul.f32	s15, s15, s15
  401052:	ee27 7a07 	vmul.f32	s14, s14, s14
  401056:	ee77 7a87 	vadd.f32	s15, s15, s14
    if(in >= 0.0f)
  40105a:	eef5 7ac0 	vcmpe.f32	s15, #0.0
  40105e:	eef1 fa10 	vmrs	APSR_nzcv, fpscr
  401062:	dbc5      	blt.n	400ff0 <arm_cmplx_mag_f32+0x40>
      *pOut = __builtin_sqrtf(in);
  401064:	eef1 8ae7 	vsqrt.f32	s17, s15
  401068:	eef5 7a40 	vcmp.f32	s15, #0.0
  40106c:	eef1 fa10 	vmrs	APSR_nzcv, fpscr
  401070:	d4b9      	bmi.n	400fe6 <arm_cmplx_mag_f32+0x36>
  401072:	ed45 8a03 	vstr	s17, [r5, #-12]

    realIn = *pSrc++;
  401076:	ed54 7a04 	vldr	s15, [r4, #-16]
    imagIn = *pSrc++;
  40107a:	ed14 7a03 	vldr	s14, [r4, #-12]
    arm_sqrt_f32((realIn * realIn) + (imagIn * imagIn), pDst++);
  40107e:	ee67 7aa7 	vmul.f32	s15, s15, s15
  401082:	ee27 7a07 	vmul.f32	s14, s14, s14
  401086:	ee77 7a87 	vadd.f32	s15, s15, s14
    if(in >= 0.0f)
  40108a:	eef5 7ac0 	vcmpe.f32	s15, #0.0
  40108e:	eef1 fa10 	vmrs	APSR_nzcv, fpscr
  401092:	dbb5      	blt.n	401000 <arm_cmplx_mag_f32+0x50>
      *pOut = __builtin_sqrtf(in);
  401094:	eef1 8ae7 	vsqrt.f32	s17, s15
  401098:	eef5 7a40 	vcmp.f32	s15, #0.0
  40109c:	eef1 fa10 	vmrs	APSR_nzcv, fpscr
  4010a0:	d4a9      	bmi.n	400ff6 <arm_cmplx_mag_f32+0x46>
  4010a2:	ed45 8a02 	vstr	s17, [r5, #-8]

    realIn = *pSrc++;
  4010a6:	ed54 7a02 	vldr	s15, [r4, #-8]
    imagIn = *pSrc++;
  4010aa:	ed14 7a01 	vldr	s14, [r4, #-4]
    arm_sqrt_f32((realIn * realIn) + (imagIn * imagIn), pDst++);
  4010ae:	ee67 7aa7 	vmul.f32	s15, s15, s15
  4010b2:	ee27 7a07 	vmul.f32	s14, s14, s14
  4010b6:	ee77 7a87 	vadd.f32	s15, s15, s14
    if(in >= 0.0f)
  4010ba:	eef5 7ac0 	vcmpe.f32	s15, #0.0
  4010be:	eef1 fa10 	vmrs	APSR_nzcv, fpscr
  4010c2:	db0b      	blt.n	4010dc <arm_cmplx_mag_f32+0x12c>
      *pOut = __builtin_sqrtf(in);
  4010c4:	eef1 8ae7 	vsqrt.f32	s17, s15
  4010c8:	eef5 7a40 	vcmp.f32	s15, #0.0
  4010cc:	eef1 fa10 	vmrs	APSR_nzcv, fpscr
  4010d0:	d599      	bpl.n	401006 <arm_cmplx_mag_f32+0x56>
  4010d2:	ee17 0a90 	vmov	r0, s15
  4010d6:	4b1e      	ldr	r3, [pc, #120]	; (401150 <arm_cmplx_mag_f32+0x1a0>)
  4010d8:	4798      	blx	r3
  4010da:	e794      	b.n	401006 <arm_cmplx_mag_f32+0x56>
      *pOut = 0.0f;
  4010dc:	ed05 8a01 	vstr	s16, [r5, #-4]
  4010e0:	e793      	b.n	40100a <arm_cmplx_mag_f32+0x5a>
  4010e2:	eb07 174b 	add.w	r7, r7, fp, lsl #5
  4010e6:	eb09 190b 	add.w	r9, r9, fp, lsl #4

  /* If the numSamples is not a multiple of 4, compute any remaining output samples here.    
   ** No loop unrolling is used. */
  blkCnt = numSamples % 0x4u;

  while(blkCnt > 0u)
  4010ea:	f018 0803 	ands.w	r8, r8, #3
  4010ee:	d028      	beq.n	401142 <arm_cmplx_mag_f32+0x192>
  4010f0:	3708      	adds	r7, #8
  4010f2:	2400      	movs	r4, #0
      *pOut = __builtin_sqrtf(in);
  4010f4:	4d16      	ldr	r5, [pc, #88]	; (401150 <arm_cmplx_mag_f32+0x1a0>)
  4010f6:	e005      	b.n	401104 <arm_cmplx_mag_f32+0x154>
  4010f8:	ed09 8a01 	vstr	s16, [r9, #-4]
  4010fc:	3708      	adds	r7, #8
  4010fe:	f1b8 0801 	subs.w	r8, r8, #1
  401102:	d01e      	beq.n	401142 <arm_cmplx_mag_f32+0x192>
  {
    /* C[0] = sqrt(A[0] * A[0] + A[1] * A[1]) */
    realIn = *pSrc++;
  401104:	ed57 7a02 	vldr	s15, [r7, #-8]
    imagIn = *pSrc++;
  401108:	ed17 7a01 	vldr	s14, [r7, #-4]
    /* store the result in the destination buffer. */
    arm_sqrt_f32((realIn * realIn) + (imagIn * imagIn), pDst++);
  40110c:	ee67 7aa7 	vmul.f32	s15, s15, s15
  401110:	ee27 7a07 	vmul.f32	s14, s14, s14
  401114:	ee77 7a87 	vadd.f32	s15, s15, s14
  401118:	f109 0904 	add.w	r9, r9, #4
    if(in >= 0.0f)
  40111c:	eef5 7ac0 	vcmpe.f32	s15, #0.0
  401120:	eef1 fa10 	vmrs	APSR_nzcv, fpscr
  401124:	db0a      	blt.n	40113c <arm_cmplx_mag_f32+0x18c>
      *pOut = __builtin_sqrtf(in);
  401126:	eeb1 8ae7 	vsqrt.f32	s16, s15
  40112a:	eef5 7a40 	vcmp.f32	s15, #0.0
  40112e:	eef1 fa10 	vmrs	APSR_nzcv, fpscr
  401132:	d5e1      	bpl.n	4010f8 <arm_cmplx_mag_f32+0x148>
  401134:	ee17 0a90 	vmov	r0, s15
  401138:	47a8      	blx	r5
  40113a:	e7dd      	b.n	4010f8 <arm_cmplx_mag_f32+0x148>
      *pOut = 0.0f;
  40113c:	f849 4c04 	str.w	r4, [r9, #-4]
  401140:	e7dc      	b.n	4010fc <arm_cmplx_mag_f32+0x14c>
    numSamples--;
  }

#endif /* #ifndef ARM_MATH_CM0_FAMILY */

}
  401142:	ecbd 8b02 	vpop	{d8}
  401146:	e8bd 8ff8 	ldmia.w	sp!, {r3, r4, r5, r6, r7, r8, r9, sl, fp, pc}
  40114a:	bf00      	nop
  40114c:	00000000 	.word	0x00000000
  401150:	004029e9 	.word	0x004029e9

00401154 <arm_max_f32>:
void arm_max_f32(
  float32_t * pSrc,
  uint32_t blockSize,
  float32_t * pResult,
  uint32_t * pIndex)
{
  401154:	e92d 41f0 	stmdb	sp!, {r4, r5, r6, r7, r8, lr}
  /* Initialise the count value. */
  count = 0u;
  /* Initialise the index value to zero. */
  outIndex = 0u;
  /* Load first input value that act as reference value for comparision */
  out = *pSrc++;
  401158:	f100 0c04 	add.w	ip, r0, #4
  40115c:	edd0 7a00 	vldr	s15, [r0]

  /* Loop unrolling */
  blkCnt = (blockSize - 1u) >> 2u;
  401160:	1e4c      	subs	r4, r1, #1

  /* Run the below code for Cortex-M4 and Cortex-M3 */
  while(blkCnt > 0u)
  401162:	ea5f 0894 	movs.w	r8, r4, lsr #2
  401166:	d03d      	beq.n	4011e4 <arm_max_f32+0x90>
  401168:	3014      	adds	r0, #20
  40116a:	4646      	mov	r6, r8
  40116c:	2504      	movs	r5, #4
  40116e:	f04f 0e00 	mov.w	lr, #0
  401172:	e003      	b.n	40117c <arm_max_f32+0x28>
  401174:	3010      	adds	r0, #16
  401176:	3504      	adds	r5, #4
  401178:	3e01      	subs	r6, #1
  40117a:	d02c      	beq.n	4011d6 <arm_max_f32+0x82>
  40117c:	4607      	mov	r7, r0
  {
    /* Initialize maxVal to the next consecutive values one by one */
    maxVal1 = *pSrc++;
  40117e:	ed50 6a04 	vldr	s13, [r0, #-16]

    maxVal2 = *pSrc++;
  401182:	ed10 7a03 	vldr	s14, [r0, #-12]

    /* compare for the maximum value */
    if(out < maxVal1)
  401186:	eef4 6ae7 	vcmpe.f32	s13, s15
  40118a:	eef1 fa10 	vmrs	APSR_nzcv, fpscr
  40118e:	dd03      	ble.n	401198 <arm_max_f32+0x44>
    {
      /* Update the maximum value and its index */
      out = maxVal1;
      outIndex = count + 1u;
  401190:	f1a5 0e03 	sub.w	lr, r5, #3
      out = maxVal1;
  401194:	eef0 7a66 	vmov.f32	s15, s13
    }

    maxVal1 = *pSrc++;
  401198:	ed57 6a02 	vldr	s13, [r7, #-8]

    /* compare for the maximum value */
    if(out < maxVal2)
  40119c:	eef4 7ac7 	vcmpe.f32	s15, s14
  4011a0:	eef1 fa10 	vmrs	APSR_nzcv, fpscr
  4011a4:	d503      	bpl.n	4011ae <arm_max_f32+0x5a>
    {
      /* Update the maximum value and its index */
      out = maxVal2;
      outIndex = count + 2u;
  4011a6:	f1a5 0e02 	sub.w	lr, r5, #2
      out = maxVal2;
  4011aa:	eef0 7a47 	vmov.f32	s15, s14
    }

    maxVal2 = *pSrc++;
  4011ae:	ed17 7a01 	vldr	s14, [r7, #-4]

    /* compare for the maximum value */
    if(out < maxVal1)
  4011b2:	eef4 7ae6 	vcmpe.f32	s15, s13
  4011b6:	eef1 fa10 	vmrs	APSR_nzcv, fpscr
  4011ba:	d503      	bpl.n	4011c4 <arm_max_f32+0x70>
    {
      /* Update the maximum value and its index */
      out = maxVal1;
      outIndex = count + 3u;
  4011bc:	f105 3eff 	add.w	lr, r5, #4294967295
      out = maxVal1;
  4011c0:	eef0 7a66 	vmov.f32	s15, s13
    }

    /* compare for the maximum value */
    if(out < maxVal2)
  4011c4:	eef4 7ac7 	vcmpe.f32	s15, s14
  4011c8:	eef1 fa10 	vmrs	APSR_nzcv, fpscr
  4011cc:	d5d2      	bpl.n	401174 <arm_max_f32+0x20>
    {
      /* Update the maximum value and its index */
      out = maxVal2;
      outIndex = count + 4u;
  4011ce:	46ae      	mov	lr, r5
      out = maxVal2;
  4011d0:	eef0 7a47 	vmov.f32	s15, s14
  4011d4:	e7ce      	b.n	401174 <arm_max_f32+0x20>
  4011d6:	eb0c 1c08 	add.w	ip, ip, r8, lsl #4

  blkCnt = (blockSize - 1u);

#endif /* #ifndef ARM_MATH_CM0_FAMILY */

  while(blkCnt > 0u)
  4011da:	f014 0003 	ands.w	r0, r4, #3
  4011de:	d011      	beq.n	401204 <arm_max_f32+0xb0>
  4011e0:	1a08      	subs	r0, r1, r0
  4011e2:	e004      	b.n	4011ee <arm_max_f32+0x9a>
  outIndex = 0u;
  4011e4:	46c6      	mov	lr, r8
  4011e6:	e7f8      	b.n	4011da <arm_max_f32+0x86>
  4011e8:	3001      	adds	r0, #1
  while(blkCnt > 0u)
  4011ea:	4281      	cmp	r1, r0
  4011ec:	d00a      	beq.n	401204 <arm_max_f32+0xb0>
  {
    /* Initialize maxVal to the next consecutive values one by one */
    maxVal1 = *pSrc++;
  4011ee:	ecbc 7a01 	vldmia	ip!, {s14}

    /* compare for the maximum value */
    if(out < maxVal1)
  4011f2:	eeb4 7ae7 	vcmpe.f32	s14, s15
  4011f6:	eef1 fa10 	vmrs	APSR_nzcv, fpscr
  4011fa:	ddf5      	ble.n	4011e8 <arm_max_f32+0x94>
    {
      /* Update the maximum value and it's index */
      out = maxVal1;
      outIndex = blockSize - blkCnt;
  4011fc:	4686      	mov	lr, r0
      out = maxVal1;
  4011fe:	eef0 7a47 	vmov.f32	s15, s14
  401202:	e7f1      	b.n	4011e8 <arm_max_f32+0x94>
    blkCnt--;

  }

  /* Store the maximum value and it's index into destination pointers */
  *pResult = out;
  401204:	edc2 7a00 	vstr	s15, [r2]
  *pIndex = outIndex;
  401208:	f8c3 e000 	str.w	lr, [r3]
  40120c:	e8bd 81f0 	ldmia.w	sp!, {r4, r5, r6, r7, r8, pc}

00401210 <_read>:
int __attribute__((weak))
_read (int file, char * ptr, int len); // Remove GCC compiler warning

int __attribute__((weak))
_read (int file, char * ptr, int len)
{
  401210:	e92d 41f0 	stmdb	sp!, {r4, r5, r6, r7, r8, lr}
	int nChars = 0;

	if (file != 0) {
  401214:	b980      	cbnz	r0, 401238 <_read+0x28>
  401216:	460c      	mov	r4, r1
  401218:	4690      	mov	r8, r2
		return -1;
	}

	for (; len > 0; --len) {
  40121a:	2a00      	cmp	r2, #0
  40121c:	dd0f      	ble.n	40123e <_read+0x2e>
  40121e:	188f      	adds	r7, r1, r2
		ptr_get(stdio_base, ptr);
  401220:	4e08      	ldr	r6, [pc, #32]	; (401244 <_read+0x34>)
  401222:	4d09      	ldr	r5, [pc, #36]	; (401248 <_read+0x38>)
  401224:	6830      	ldr	r0, [r6, #0]
  401226:	4621      	mov	r1, r4
  401228:	682b      	ldr	r3, [r5, #0]
  40122a:	4798      	blx	r3
		ptr++;
  40122c:	3401      	adds	r4, #1
	for (; len > 0; --len) {
  40122e:	42bc      	cmp	r4, r7
  401230:	d1f8      	bne.n	401224 <_read+0x14>
		nChars++;
	}
	return nChars;
}
  401232:	4640      	mov	r0, r8
  401234:	e8bd 81f0 	ldmia.w	sp!, {r4, r5, r6, r7, r8, pc}
		return -1;
  401238:	f04f 38ff 	mov.w	r8, #4294967295
  40123c:	e7f9      	b.n	401232 <_read+0x22>
	for (; len > 0; --len) {
  40123e:	4680      	mov	r8, r0
  401240:	e7f7      	b.n	401232 <_read+0x22>
  401242:	bf00      	nop
  401244:	20440b28 	.word	0x20440b28
  401248:	20410b14 	.word	0x20410b14

0040124c <usart_set_async_baudrate>:
 * \retval 1 Baud rate set point is out of range for the given input clock
 * frequency.
 */
uint32_t usart_set_async_baudrate(Usart *p_usart,
		uint32_t baudrate, uint32_t ul_mck)
{
  40124c:	b410      	push	{r4}
	uint32_t cd_fp;
	uint32_t cd;
	uint32_t fp;

	/* Calculate the receiver sampling divide of baudrate clock. */
	if (ul_mck >= HIGH_FRQ_SAMPLE_DIV * baudrate) {
  40124e:	010b      	lsls	r3, r1, #4
  401250:	4293      	cmp	r3, r2
  401252:	d914      	bls.n	40127e <usart_set_async_baudrate+0x32>
	} else {
		over = LOW_FRQ_SAMPLE_DIV;
	}

	/* Calculate clock divider according to the fraction calculated formula. */
	cd_fp = (8 * ul_mck + (over * baudrate) / 2) / (over * baudrate);
  401254:	00c9      	lsls	r1, r1, #3
  401256:	084b      	lsrs	r3, r1, #1
  401258:	eb03 02c2 	add.w	r2, r3, r2, lsl #3
  40125c:	fbb2 f2f1 	udiv	r2, r2, r1
	cd = cd_fp >> 3;
  401260:	08d3      	lsrs	r3, r2, #3
	fp = cd_fp & 0x07;
	if (cd < MIN_CD_VALUE || cd > MAX_CD_VALUE) {
  401262:	1e5c      	subs	r4, r3, #1
  401264:	f64f 71fe 	movw	r1, #65534	; 0xfffe
  401268:	428c      	cmp	r4, r1
  40126a:	d901      	bls.n	401270 <usart_set_async_baudrate+0x24>
		return 1;
  40126c:	2001      	movs	r0, #1
  40126e:	e017      	b.n	4012a0 <usart_set_async_baudrate+0x54>
	}

	/* Configure the OVER bit in MR register. */
	if (over == 8) {
		p_usart->US_MR |= US_MR_OVER;
  401270:	6841      	ldr	r1, [r0, #4]
  401272:	f441 2100 	orr.w	r1, r1, #524288	; 0x80000
  401276:	6041      	str	r1, [r0, #4]
  401278:	e00c      	b.n	401294 <usart_set_async_baudrate+0x48>
		return 1;
  40127a:	2001      	movs	r0, #1
  40127c:	e010      	b.n	4012a0 <usart_set_async_baudrate+0x54>
	cd_fp = (8 * ul_mck + (over * baudrate) / 2) / (over * baudrate);
  40127e:	0859      	lsrs	r1, r3, #1
  401280:	eb01 02c2 	add.w	r2, r1, r2, lsl #3
  401284:	fbb2 f2f3 	udiv	r2, r2, r3
	cd = cd_fp >> 3;
  401288:	08d3      	lsrs	r3, r2, #3
	if (cd < MIN_CD_VALUE || cd > MAX_CD_VALUE) {
  40128a:	1e5c      	subs	r4, r3, #1
  40128c:	f64f 71fe 	movw	r1, #65534	; 0xfffe
  401290:	428c      	cmp	r4, r1
  401292:	d8f2      	bhi.n	40127a <usart_set_async_baudrate+0x2e>
	}

	/* Configure the baudrate generate register. */
	p_usart->US_BRGR = (cd << US_BRGR_CD_Pos) | (fp << US_BRGR_FP_Pos);
  401294:	0412      	lsls	r2, r2, #16
  401296:	f402 22e0 	and.w	r2, r2, #458752	; 0x70000
  40129a:	431a      	orrs	r2, r3
  40129c:	6202      	str	r2, [r0, #32]

	return 0;
  40129e:	2000      	movs	r0, #0
}
  4012a0:	f85d 4b04 	ldr.w	r4, [sp], #4
  4012a4:	4770      	bx	lr
	...

004012a8 <usart_reset>:
 *
 * \param p_usart Pointer to a USART instance.
 */
void usart_disable_writeprotect(Usart *p_usart)
{
	p_usart->US_WPMR = US_WPMR_WPKEY_PASSWD;
  4012a8:	4b08      	ldr	r3, [pc, #32]	; (4012cc <usart_reset+0x24>)
  4012aa:	f8c0 30e4 	str.w	r3, [r0, #228]	; 0xe4
	p_usart->US_MR = 0;
  4012ae:	2300      	movs	r3, #0
  4012b0:	6043      	str	r3, [r0, #4]
	p_usart->US_RTOR = 0;
  4012b2:	6243      	str	r3, [r0, #36]	; 0x24
	p_usart->US_TTGR = 0;
  4012b4:	6283      	str	r3, [r0, #40]	; 0x28
	p_usart->US_CR = US_CR_RSTTX | US_CR_TXDIS;
  4012b6:	2388      	movs	r3, #136	; 0x88
  4012b8:	6003      	str	r3, [r0, #0]
	p_usart->US_CR = US_CR_RSTRX | US_CR_RXDIS;
  4012ba:	2324      	movs	r3, #36	; 0x24
  4012bc:	6003      	str	r3, [r0, #0]
	p_usart->US_CR = US_CR_RSTSTA;
  4012be:	f44f 7380 	mov.w	r3, #256	; 0x100
  4012c2:	6003      	str	r3, [r0, #0]
	p_usart->US_CR = US_CR_RTSDIS;
  4012c4:	f44f 2300 	mov.w	r3, #524288	; 0x80000
  4012c8:	6003      	str	r3, [r0, #0]
  4012ca:	4770      	bx	lr
  4012cc:	55534100 	.word	0x55534100

004012d0 <usart_init_rs232>:
{
  4012d0:	b570      	push	{r4, r5, r6, lr}
  4012d2:	4605      	mov	r5, r0
  4012d4:	460c      	mov	r4, r1
  4012d6:	4616      	mov	r6, r2
	usart_reset(p_usart);
  4012d8:	4b0f      	ldr	r3, [pc, #60]	; (401318 <usart_init_rs232+0x48>)
  4012da:	4798      	blx	r3
	ul_reg_val = 0;
  4012dc:	2200      	movs	r2, #0
  4012de:	4b0f      	ldr	r3, [pc, #60]	; (40131c <usart_init_rs232+0x4c>)
  4012e0:	601a      	str	r2, [r3, #0]
	if (!p_usart_opt || usart_set_async_baudrate(p_usart,
  4012e2:	b1a4      	cbz	r4, 40130e <usart_init_rs232+0x3e>
  4012e4:	4632      	mov	r2, r6
  4012e6:	6821      	ldr	r1, [r4, #0]
  4012e8:	4628      	mov	r0, r5
  4012ea:	4b0d      	ldr	r3, [pc, #52]	; (401320 <usart_init_rs232+0x50>)
  4012ec:	4798      	blx	r3
  4012ee:	4602      	mov	r2, r0
  4012f0:	b978      	cbnz	r0, 401312 <usart_init_rs232+0x42>
	ul_reg_val |= p_usart_opt->char_length | p_usart_opt->parity_type |
  4012f2:	6863      	ldr	r3, [r4, #4]
  4012f4:	68a1      	ldr	r1, [r4, #8]
  4012f6:	430b      	orrs	r3, r1
  4012f8:	6921      	ldr	r1, [r4, #16]
  4012fa:	430b      	orrs	r3, r1
			p_usart_opt->channel_mode | p_usart_opt->stop_bits;
  4012fc:	68e1      	ldr	r1, [r4, #12]
  4012fe:	430b      	orrs	r3, r1
	ul_reg_val |= p_usart_opt->char_length | p_usart_opt->parity_type |
  401300:	4906      	ldr	r1, [pc, #24]	; (40131c <usart_init_rs232+0x4c>)
  401302:	600b      	str	r3, [r1, #0]
	p_usart->US_MR |= ul_reg_val;
  401304:	6869      	ldr	r1, [r5, #4]
  401306:	430b      	orrs	r3, r1
  401308:	606b      	str	r3, [r5, #4]
}
  40130a:	4610      	mov	r0, r2
  40130c:	bd70      	pop	{r4, r5, r6, pc}
		return 1;
  40130e:	2201      	movs	r2, #1
  401310:	e7fb      	b.n	40130a <usart_init_rs232+0x3a>
  401312:	2201      	movs	r2, #1
  401314:	e7f9      	b.n	40130a <usart_init_rs232+0x3a>
  401316:	bf00      	nop
  401318:	004012a9 	.word	0x004012a9
  40131c:	204009e4 	.word	0x204009e4
  401320:	0040124d 	.word	0x0040124d

00401324 <usart_enable_tx>:
	p_usart->US_CR = US_CR_TXEN;
  401324:	2340      	movs	r3, #64	; 0x40
  401326:	6003      	str	r3, [r0, #0]
  401328:	4770      	bx	lr

0040132a <usart_enable_rx>:
	p_usart->US_CR = US_CR_RXEN;
  40132a:	2310      	movs	r3, #16
  40132c:	6003      	str	r3, [r0, #0]
  40132e:	4770      	bx	lr

00401330 <usart_write>:
	if (!(p_usart->US_CSR & US_CSR_TXRDY)) {
  401330:	6943      	ldr	r3, [r0, #20]
  401332:	f013 0f02 	tst.w	r3, #2
  401336:	d004      	beq.n	401342 <usart_write+0x12>
	p_usart->US_THR = US_THR_TXCHR(c);
  401338:	f3c1 0108 	ubfx	r1, r1, #0, #9
  40133c:	61c1      	str	r1, [r0, #28]
	return 0;
  40133e:	2000      	movs	r0, #0
  401340:	4770      	bx	lr
		return 1;
  401342:	2001      	movs	r0, #1
}
  401344:	4770      	bx	lr

00401346 <usart_read>:
	if (!(p_usart->US_CSR & US_CSR_RXRDY)) {
  401346:	6943      	ldr	r3, [r0, #20]
  401348:	f013 0f01 	tst.w	r3, #1
  40134c:	d005      	beq.n	40135a <usart_read+0x14>
	*c = p_usart->US_RHR & US_RHR_RXCHR_Msk;
  40134e:	6983      	ldr	r3, [r0, #24]
  401350:	f3c3 0308 	ubfx	r3, r3, #0, #9
  401354:	600b      	str	r3, [r1, #0]
	return 0;
  401356:	2000      	movs	r0, #0
  401358:	4770      	bx	lr
		return 1;
  40135a:	2001      	movs	r0, #1
}
  40135c:	4770      	bx	lr
	...

00401360 <SCB_CleanInvalidateDCache>:
/**
  \brief   Clean & Invalidate D-Cache
  \details Cleans and Invalidates D-Cache
  */
__STATIC_INLINE void SCB_CleanInvalidateDCache (void)
{
  401360:	b5f0      	push	{r4, r5, r6, r7, lr}
  #if defined (__DCACHE_PRESENT) && (__DCACHE_PRESENT == 1U)
    uint32_t ccsidr;
    uint32_t sets;
    uint32_t ways;

    SCB->CSSELR = 0U; /*(0U << 1U) | 0U;*/  /* Level 1 data cache */
  401362:	4b15      	ldr	r3, [pc, #84]	; (4013b8 <SCB_CleanInvalidateDCache+0x58>)
  401364:	2200      	movs	r2, #0
  401366:	f8c3 2084 	str.w	r2, [r3, #132]	; 0x84
  \details Acts as a special kind of Data Memory Barrier.
           It completes when all explicit memory accesses before this instruction complete.
 */
__STATIC_FORCEINLINE void __DSB(void)
{
  __ASM volatile ("dsb 0xF":::"memory");
  40136a:	f3bf 8f4f 	dsb	sy
    __DSB();

    ccsidr = SCB->CCSIDR;
  40136e:	f8d3 7080 	ldr.w	r7, [r3, #128]	; 0x80

                                            /* clean & invalidate D-Cache */
    sets = (uint32_t)(CCSIDR_SETS(ccsidr));
  401372:	f3c7 354e 	ubfx	r5, r7, #13, #15
    do {
      ways = (uint32_t)(CCSIDR_WAYS(ccsidr));
  401376:	f3c7 07c9 	ubfx	r7, r7, #3, #10
  40137a:	016e      	lsls	r6, r5, #5
  40137c:	ea4f 7c87 	mov.w	ip, r7, lsl #30
      do {
        SCB->DCCISW = (((sets << SCB_DCCISW_SET_Pos) & SCB_DCCISW_SET_Msk) |
  401380:	f643 7ee0 	movw	lr, #16352	; 0x3fe0
  401384:	461c      	mov	r4, r3
  401386:	ea06 000e 	and.w	r0, r6, lr
  40138a:	4662      	mov	r2, ip
      ways = (uint32_t)(CCSIDR_WAYS(ccsidr));
  40138c:	463b      	mov	r3, r7
        SCB->DCCISW = (((sets << SCB_DCCISW_SET_Pos) & SCB_DCCISW_SET_Msk) |
  40138e:	ea40 0102 	orr.w	r1, r0, r2
  401392:	f8c4 1274 	str.w	r1, [r4, #628]	; 0x274
                       ((ways << SCB_DCCISW_WAY_Pos) & SCB_DCCISW_WAY_Msk)  );
        #if defined ( __CC_ARM )
          __schedule_barrier();
        #endif
      } while (ways-- != 0U);
  401396:	3b01      	subs	r3, #1
  401398:	f102 4240 	add.w	r2, r2, #3221225472	; 0xc0000000
  40139c:	f1b3 3fff 	cmp.w	r3, #4294967295
  4013a0:	d1f5      	bne.n	40138e <SCB_CleanInvalidateDCache+0x2e>
    } while(sets-- != 0U);
  4013a2:	3d01      	subs	r5, #1
  4013a4:	3e20      	subs	r6, #32
  4013a6:	f1b5 3fff 	cmp.w	r5, #4294967295
  4013aa:	d1ec      	bne.n	401386 <SCB_CleanInvalidateDCache+0x26>
  4013ac:	f3bf 8f4f 	dsb	sy
  __ASM volatile ("isb 0xF":::"memory");
  4013b0:	f3bf 8f6f 	isb	sy
  4013b4:	bdf0      	pop	{r4, r5, r6, r7, pc}
  4013b6:	bf00      	nop
  4013b8:	e000ed00 	.word	0xe000ed00

004013bc <usart_serial_getchar>:
 * \param p_usart   Base address of the USART instance.
 * \param data   Data to read
 *
 */
static inline void usart_serial_getchar(usart_if p_usart, uint8_t *data)
{
  4013bc:	b5f0      	push	{r4, r5, r6, r7, lr}
  4013be:	b083      	sub	sp, #12
  4013c0:	4605      	mov	r5, r0
  4013c2:	460c      	mov	r4, r1
	uint32_t val = 0;
  4013c4:	2300      	movs	r3, #0
  4013c6:	9301      	str	r3, [sp, #4]
	if (UART == (Uart*)p_usart) {
		while (uart_read((Uart*)p_usart, data));
	}
#else
# ifdef UART0
	if (UART0 == (Uart*)p_usart) {
  4013c8:	4b2a      	ldr	r3, [pc, #168]	; (401474 <usart_serial_getchar+0xb8>)
  4013ca:	4298      	cmp	r0, r3
  4013cc:	d013      	beq.n	4013f6 <usart_serial_getchar+0x3a>
		while (uart_read((Uart*)p_usart, data));
	}
# endif
# ifdef UART1
	if (UART1 == (Uart*)p_usart) {
  4013ce:	4b2a      	ldr	r3, [pc, #168]	; (401478 <usart_serial_getchar+0xbc>)
  4013d0:	4298      	cmp	r0, r3
  4013d2:	d018      	beq.n	401406 <usart_serial_getchar+0x4a>
		while (uart_read((Uart*)p_usart, data));
	}
# endif
# ifdef UART2
	if (UART2 == (Uart*)p_usart) {
  4013d4:	4b29      	ldr	r3, [pc, #164]	; (40147c <usart_serial_getchar+0xc0>)
  4013d6:	4298      	cmp	r0, r3
  4013d8:	d01d      	beq.n	401416 <usart_serial_getchar+0x5a>
		while (uart_read((Uart*)p_usart, data));
	}
# endif
# ifdef UART3
	if (UART3 == (Uart*)p_usart) {
  4013da:	4b29      	ldr	r3, [pc, #164]	; (401480 <usart_serial_getchar+0xc4>)
  4013dc:	429d      	cmp	r5, r3
  4013de:	d022      	beq.n	401426 <usart_serial_getchar+0x6a>
		while (usart_read(p_usart, &val));
		*data = (uint8_t)(val & 0xFF);
	}
#else
# ifdef USART0
	if (USART0 == p_usart) {
  4013e0:	4b28      	ldr	r3, [pc, #160]	; (401484 <usart_serial_getchar+0xc8>)
  4013e2:	429d      	cmp	r5, r3
  4013e4:	d027      	beq.n	401436 <usart_serial_getchar+0x7a>
		while (usart_read(p_usart, &val));
		*data = (uint8_t)(val & 0xFF);
	}
# endif
# ifdef USART1
	if (USART1 == p_usart) {
  4013e6:	4b28      	ldr	r3, [pc, #160]	; (401488 <usart_serial_getchar+0xcc>)
  4013e8:	429d      	cmp	r5, r3
  4013ea:	d02e      	beq.n	40144a <usart_serial_getchar+0x8e>
		while (usart_read(p_usart, &val));
		*data = (uint8_t)(val & 0xFF);
	}
# endif
# ifdef USART2
	if (USART2 == p_usart) {
  4013ec:	4b27      	ldr	r3, [pc, #156]	; (40148c <usart_serial_getchar+0xd0>)
  4013ee:	429d      	cmp	r5, r3
  4013f0:	d035      	beq.n	40145e <usart_serial_getchar+0xa2>
		*data = (uint8_t)(val & 0xFF);
	}
# endif
#endif /* ifdef USART */

}
  4013f2:	b003      	add	sp, #12
  4013f4:	bdf0      	pop	{r4, r5, r6, r7, pc}
		while (uart_read((Uart*)p_usart, data));
  4013f6:	461f      	mov	r7, r3
  4013f8:	4e25      	ldr	r6, [pc, #148]	; (401490 <usart_serial_getchar+0xd4>)
  4013fa:	4621      	mov	r1, r4
  4013fc:	4638      	mov	r0, r7
  4013fe:	47b0      	blx	r6
  401400:	2800      	cmp	r0, #0
  401402:	d1fa      	bne.n	4013fa <usart_serial_getchar+0x3e>
  401404:	e7e9      	b.n	4013da <usart_serial_getchar+0x1e>
		while (uart_read((Uart*)p_usart, data));
  401406:	461f      	mov	r7, r3
  401408:	4e21      	ldr	r6, [pc, #132]	; (401490 <usart_serial_getchar+0xd4>)
  40140a:	4621      	mov	r1, r4
  40140c:	4638      	mov	r0, r7
  40140e:	47b0      	blx	r6
  401410:	2800      	cmp	r0, #0
  401412:	d1fa      	bne.n	40140a <usart_serial_getchar+0x4e>
  401414:	e7e4      	b.n	4013e0 <usart_serial_getchar+0x24>
		while (uart_read((Uart*)p_usart, data));
  401416:	461f      	mov	r7, r3
  401418:	4e1d      	ldr	r6, [pc, #116]	; (401490 <usart_serial_getchar+0xd4>)
  40141a:	4621      	mov	r1, r4
  40141c:	4638      	mov	r0, r7
  40141e:	47b0      	blx	r6
  401420:	2800      	cmp	r0, #0
  401422:	d1fa      	bne.n	40141a <usart_serial_getchar+0x5e>
  401424:	e7df      	b.n	4013e6 <usart_serial_getchar+0x2a>
		while (uart_read((Uart*)p_usart, data));
  401426:	461f      	mov	r7, r3
  401428:	4e19      	ldr	r6, [pc, #100]	; (401490 <usart_serial_getchar+0xd4>)
  40142a:	4621      	mov	r1, r4
  40142c:	4638      	mov	r0, r7
  40142e:	47b0      	blx	r6
  401430:	2800      	cmp	r0, #0
  401432:	d1fa      	bne.n	40142a <usart_serial_getchar+0x6e>
  401434:	e7da      	b.n	4013ec <usart_serial_getchar+0x30>
		while (usart_read(p_usart, &val));
  401436:	461e      	mov	r6, r3
  401438:	4d16      	ldr	r5, [pc, #88]	; (401494 <usart_serial_getchar+0xd8>)
  40143a:	a901      	add	r1, sp, #4
  40143c:	4630      	mov	r0, r6
  40143e:	47a8      	blx	r5
  401440:	2800      	cmp	r0, #0
  401442:	d1fa      	bne.n	40143a <usart_serial_getchar+0x7e>
		*data = (uint8_t)(val & 0xFF);
  401444:	9b01      	ldr	r3, [sp, #4]
  401446:	7023      	strb	r3, [r4, #0]
  401448:	e7d3      	b.n	4013f2 <usart_serial_getchar+0x36>
		while (usart_read(p_usart, &val));
  40144a:	461e      	mov	r6, r3
  40144c:	4d11      	ldr	r5, [pc, #68]	; (401494 <usart_serial_getchar+0xd8>)
  40144e:	a901      	add	r1, sp, #4
  401450:	4630      	mov	r0, r6
  401452:	47a8      	blx	r5
  401454:	2800      	cmp	r0, #0
  401456:	d1fa      	bne.n	40144e <usart_serial_getchar+0x92>
		*data = (uint8_t)(val & 0xFF);
  401458:	9b01      	ldr	r3, [sp, #4]
  40145a:	7023      	strb	r3, [r4, #0]
  40145c:	e7c9      	b.n	4013f2 <usart_serial_getchar+0x36>
		while (usart_read(p_usart, &val));
  40145e:	461e      	mov	r6, r3
  401460:	4d0c      	ldr	r5, [pc, #48]	; (401494 <usart_serial_getchar+0xd8>)
  401462:	a901      	add	r1, sp, #4
  401464:	4630      	mov	r0, r6
  401466:	47a8      	blx	r5
  401468:	2800      	cmp	r0, #0
  40146a:	d1fa      	bne.n	401462 <usart_serial_getchar+0xa6>
		*data = (uint8_t)(val & 0xFF);
  40146c:	9b01      	ldr	r3, [sp, #4]
  40146e:	7023      	strb	r3, [r4, #0]
}
  401470:	e7bf      	b.n	4013f2 <usart_serial_getchar+0x36>
  401472:	bf00      	nop
  401474:	400e0800 	.word	0x400e0800
  401478:	400e0a00 	.word	0x400e0a00
  40147c:	400e1a00 	.word	0x400e1a00
  401480:	400e1c00 	.word	0x400e1c00
  401484:	40024000 	.word	0x40024000
  401488:	40028000 	.word	0x40028000
  40148c:	4002c000 	.word	0x4002c000
  401490:	00401fd7 	.word	0x00401fd7
  401494:	00401347 	.word	0x00401347

00401498 <usart_serial_putchar>:
{
  401498:	b570      	push	{r4, r5, r6, lr}
  40149a:	460c      	mov	r4, r1
	if (UART0 == (Uart*)p_usart) {
  40149c:	4b2a      	ldr	r3, [pc, #168]	; (401548 <usart_serial_putchar+0xb0>)
  40149e:	4298      	cmp	r0, r3
  4014a0:	d013      	beq.n	4014ca <usart_serial_putchar+0x32>
	if (UART1 == (Uart*)p_usart) {
  4014a2:	4b2a      	ldr	r3, [pc, #168]	; (40154c <usart_serial_putchar+0xb4>)
  4014a4:	4298      	cmp	r0, r3
  4014a6:	d019      	beq.n	4014dc <usart_serial_putchar+0x44>
	if (UART2 == (Uart*)p_usart) {
  4014a8:	4b29      	ldr	r3, [pc, #164]	; (401550 <usart_serial_putchar+0xb8>)
  4014aa:	4298      	cmp	r0, r3
  4014ac:	d01f      	beq.n	4014ee <usart_serial_putchar+0x56>
	if (UART3 == (Uart*)p_usart) {
  4014ae:	4b29      	ldr	r3, [pc, #164]	; (401554 <usart_serial_putchar+0xbc>)
  4014b0:	4298      	cmp	r0, r3
  4014b2:	d025      	beq.n	401500 <usart_serial_putchar+0x68>
	if (USART0 == p_usart) {
  4014b4:	4b28      	ldr	r3, [pc, #160]	; (401558 <usart_serial_putchar+0xc0>)
  4014b6:	4298      	cmp	r0, r3
  4014b8:	d02b      	beq.n	401512 <usart_serial_putchar+0x7a>
	if (USART1 == p_usart) {
  4014ba:	4b28      	ldr	r3, [pc, #160]	; (40155c <usart_serial_putchar+0xc4>)
  4014bc:	4298      	cmp	r0, r3
  4014be:	d031      	beq.n	401524 <usart_serial_putchar+0x8c>
	if (USART2 == p_usart) {
  4014c0:	4b27      	ldr	r3, [pc, #156]	; (401560 <usart_serial_putchar+0xc8>)
  4014c2:	4298      	cmp	r0, r3
  4014c4:	d037      	beq.n	401536 <usart_serial_putchar+0x9e>
	return 0;
  4014c6:	2000      	movs	r0, #0
}
  4014c8:	bd70      	pop	{r4, r5, r6, pc}
		while (uart_write((Uart*)p_usart, c)!=0);
  4014ca:	461e      	mov	r6, r3
  4014cc:	4d25      	ldr	r5, [pc, #148]	; (401564 <usart_serial_putchar+0xcc>)
  4014ce:	4621      	mov	r1, r4
  4014d0:	4630      	mov	r0, r6
  4014d2:	47a8      	blx	r5
  4014d4:	2800      	cmp	r0, #0
  4014d6:	d1fa      	bne.n	4014ce <usart_serial_putchar+0x36>
		return 1;
  4014d8:	2001      	movs	r0, #1
  4014da:	bd70      	pop	{r4, r5, r6, pc}
		while (uart_write((Uart*)p_usart, c)!=0);
  4014dc:	461e      	mov	r6, r3
  4014de:	4d21      	ldr	r5, [pc, #132]	; (401564 <usart_serial_putchar+0xcc>)
  4014e0:	4621      	mov	r1, r4
  4014e2:	4630      	mov	r0, r6
  4014e4:	47a8      	blx	r5
  4014e6:	2800      	cmp	r0, #0
  4014e8:	d1fa      	bne.n	4014e0 <usart_serial_putchar+0x48>
		return 1;
  4014ea:	2001      	movs	r0, #1
  4014ec:	bd70      	pop	{r4, r5, r6, pc}
		while (uart_write((Uart*)p_usart, c)!=0);
  4014ee:	461e      	mov	r6, r3
  4014f0:	4d1c      	ldr	r5, [pc, #112]	; (401564 <usart_serial_putchar+0xcc>)
  4014f2:	4621      	mov	r1, r4
  4014f4:	4630      	mov	r0, r6
  4014f6:	47a8      	blx	r5
  4014f8:	2800      	cmp	r0, #0
  4014fa:	d1fa      	bne.n	4014f2 <usart_serial_putchar+0x5a>
		return 1;
  4014fc:	2001      	movs	r0, #1
  4014fe:	bd70      	pop	{r4, r5, r6, pc}
		while (uart_write((Uart*)p_usart, c)!=0);
  401500:	461e      	mov	r6, r3
  401502:	4d18      	ldr	r5, [pc, #96]	; (401564 <usart_serial_putchar+0xcc>)
  401504:	4621      	mov	r1, r4
  401506:	4630      	mov	r0, r6
  401508:	47a8      	blx	r5
  40150a:	2800      	cmp	r0, #0
  40150c:	d1fa      	bne.n	401504 <usart_serial_putchar+0x6c>
		return 1;
  40150e:	2001      	movs	r0, #1
  401510:	bd70      	pop	{r4, r5, r6, pc}
		while (usart_write(p_usart, c)!=0);
  401512:	461e      	mov	r6, r3
  401514:	4d14      	ldr	r5, [pc, #80]	; (401568 <usart_serial_putchar+0xd0>)
  401516:	4621      	mov	r1, r4
  401518:	4630      	mov	r0, r6
  40151a:	47a8      	blx	r5
  40151c:	2800      	cmp	r0, #0
  40151e:	d1fa      	bne.n	401516 <usart_serial_putchar+0x7e>
		return 1;
  401520:	2001      	movs	r0, #1
  401522:	bd70      	pop	{r4, r5, r6, pc}
		while (usart_write(p_usart, c)!=0);
  401524:	461e      	mov	r6, r3
  401526:	4d10      	ldr	r5, [pc, #64]	; (401568 <usart_serial_putchar+0xd0>)
  401528:	4621      	mov	r1, r4
  40152a:	4630      	mov	r0, r6
  40152c:	47a8      	blx	r5
  40152e:	2800      	cmp	r0, #0
  401530:	d1fa      	bne.n	401528 <usart_serial_putchar+0x90>
		return 1;
  401532:	2001      	movs	r0, #1
  401534:	bd70      	pop	{r4, r5, r6, pc}
		while (usart_write(p_usart, c)!=0);
  401536:	461e      	mov	r6, r3
  401538:	4d0b      	ldr	r5, [pc, #44]	; (401568 <usart_serial_putchar+0xd0>)
  40153a:	4621      	mov	r1, r4
  40153c:	4630      	mov	r0, r6
  40153e:	47a8      	blx	r5
  401540:	2800      	cmp	r0, #0
  401542:	d1fa      	bne.n	40153a <usart_serial_putchar+0xa2>
		return 1;
  401544:	2001      	movs	r0, #1
  401546:	bd70      	pop	{r4, r5, r6, pc}
  401548:	400e0800 	.word	0x400e0800
  40154c:	400e0a00 	.word	0x400e0a00
  401550:	400e1a00 	.word	0x400e1a00
  401554:	400e1c00 	.word	0x400e1c00
  401558:	40024000 	.word	0x40024000
  40155c:	40028000 	.word	0x40028000
  401560:	4002c000 	.word	0x4002c000
  401564:	00401fc5 	.word	0x00401fc5
  401568:	00401331 	.word	0x00401331

0040156c <main>:
	wm8904_write_register(WM8904_ANALOGUE_OUT1_RIGHT, WM8904_HPOUT_VU | WM8904_HPOUTR_VOL(0x39));
	delay_ms(100);
}

int main(void)
{
  40156c:	e92d 4ff0 	stmdb	sp!, {r4, r5, r6, r7, r8, r9, sl, fp, lr}
  401570:	b0a1      	sub	sp, #132	; 0x84
	/* Initialize the SAM system. */
	sysclk_init();
  401572:	4b34      	ldr	r3, [pc, #208]	; (401644 <main+0xd8>)
  401574:	4798      	blx	r3
	board_init();
  401576:	4b34      	ldr	r3, [pc, #208]	; (401648 <main+0xdc>)
  401578:	4798      	blx	r3
  __ASM volatile ("MRS %0, primask" : "=r" (result) :: "memory");
  40157a:	f3ef 8310 	mrs	r3, PRIMASK
static volatile uint32_t cpu_irq_critical_section_counter;
static volatile bool     cpu_irq_prev_interrupt_state;

static inline irqflags_t cpu_irq_save(void)
{
	volatile irqflags_t flags = cpu_irq_is_enabled();
  40157e:	fab3 f383 	clz	r3, r3
  401582:	095b      	lsrs	r3, r3, #5
  401584:	9302      	str	r3, [sp, #8]
  __ASM volatile ("cpsid i" : : : "memory");
  401586:	b672      	cpsid	i
  \details Ensures the apparent order of the explicit memory operations before
           and after the instruction, without ensuring their completion.
 */
__STATIC_FORCEINLINE void __DMB(void)
{
  __ASM volatile ("dmb 0xF":::"memory");
  401588:	f3bf 8f5f 	dmb	sy
	cpu_irq_disable();
  40158c:	2200      	movs	r2, #0
  40158e:	4b2f      	ldr	r3, [pc, #188]	; (40164c <main+0xe0>)
  401590:	701a      	strb	r2, [r3, #0]
	return flags;
  401592:	9902      	ldr	r1, [sp, #8]
 */
__always_inline static void fpu_enable(void)
{
	irqflags_t flags;
	flags = cpu_irq_save();
	REG_CPACR |=  (0xFu << 20);
  401594:	4a2e      	ldr	r2, [pc, #184]	; (401650 <main+0xe4>)
  401596:	6813      	ldr	r3, [r2, #0]
  401598:	f443 0370 	orr.w	r3, r3, #15728640	; 0xf00000
  40159c:	6013      	str	r3, [r2, #0]
  __ASM volatile ("dsb 0xF":::"memory");
  40159e:	f3bf 8f4f 	dsb	sy
  __ASM volatile ("isb 0xF":::"memory");
  4015a2:	f3bf 8f6f 	isb	sy
	return (flags);
}

static inline void cpu_irq_restore(irqflags_t flags)
{
	if (cpu_irq_is_enabled_flags(flags))
  4015a6:	b129      	cbz	r1, 4015b4 <main+0x48>
		cpu_irq_enable();
  4015a8:	2201      	movs	r2, #1
  4015aa:	4b28      	ldr	r3, [pc, #160]	; (40164c <main+0xe0>)
  4015ac:	701a      	strb	r2, [r3, #0]
  __ASM volatile ("dmb 0xF":::"memory");
  4015ae:	f3bf 8f5f 	dmb	sy
  __ASM volatile ("cpsie i" : : : "memory");
  4015b2:	b662      	cpsie	i
 *
 * \param ul_id Id (number) of the peripheral clock.
 */
static inline void sysclk_enable_peripheral_clock(uint32_t ul_id)
{
	pmc_enable_periph_clk(ul_id);
  4015b4:	200e      	movs	r0, #14
  4015b6:	4e27      	ldr	r6, [pc, #156]	; (401654 <main+0xe8>)
  4015b8:	47b0      	blx	r6
 * \param opt         Options needed to set up RS232 communication (see \ref usart_options_t).
 *
 */
static inline void stdio_serial_init(volatile void *usart, const usart_serial_options_t *opt)
{
	stdio_base = (void *)usart;
  4015ba:	4d27      	ldr	r5, [pc, #156]	; (401658 <main+0xec>)
  4015bc:	4b27      	ldr	r3, [pc, #156]	; (40165c <main+0xf0>)
  4015be:	601d      	str	r5, [r3, #0]
	ptr_put = (int (*)(void volatile*,char))&usart_serial_putchar;
  4015c0:	4a27      	ldr	r2, [pc, #156]	; (401660 <main+0xf4>)
  4015c2:	4b28      	ldr	r3, [pc, #160]	; (401664 <main+0xf8>)
  4015c4:	601a      	str	r2, [r3, #0]
	ptr_get = (void (*)(void volatile*,char*))&usart_serial_getchar;
  4015c6:	4a28      	ldr	r2, [pc, #160]	; (401668 <main+0xfc>)
  4015c8:	4b28      	ldr	r3, [pc, #160]	; (40166c <main+0x100>)
  4015ca:	601a      	str	r2, [r3, #0]
	usart_settings.baudrate = opt->baudrate;
  4015cc:	f44f 33e1 	mov.w	r3, #115200	; 0x1c200
  4015d0:	9318      	str	r3, [sp, #96]	; 0x60
	usart_settings.char_length = opt->charlength;
  4015d2:	23c0      	movs	r3, #192	; 0xc0
  4015d4:	9319      	str	r3, [sp, #100]	; 0x64
	usart_settings.parity_type = opt->paritytype;
  4015d6:	f44f 6300 	mov.w	r3, #2048	; 0x800
  4015da:	931a      	str	r3, [sp, #104]	; 0x68
	usart_settings.stop_bits= opt->stopbits;
  4015dc:	2400      	movs	r4, #0
  4015de:	941b      	str	r4, [sp, #108]	; 0x6c
	usart_settings.channel_mode= US_MR_CHMODE_NORMAL;
  4015e0:	941c      	str	r4, [sp, #112]	; 0x70
  4015e2:	200e      	movs	r0, #14
  4015e4:	47b0      	blx	r6
		usart_init_rs232(p_usart, &usart_settings,
  4015e6:	4a22      	ldr	r2, [pc, #136]	; (401670 <main+0x104>)
  4015e8:	a918      	add	r1, sp, #96	; 0x60
  4015ea:	4628      	mov	r0, r5
  4015ec:	4b21      	ldr	r3, [pc, #132]	; (401674 <main+0x108>)
  4015ee:	4798      	blx	r3
		usart_enable_tx(p_usart);
  4015f0:	4628      	mov	r0, r5
  4015f2:	4b21      	ldr	r3, [pc, #132]	; (401678 <main+0x10c>)
  4015f4:	4798      	blx	r3
		usart_enable_rx(p_usart);
  4015f6:	4628      	mov	r0, r5
  4015f8:	4b20      	ldr	r3, [pc, #128]	; (40167c <main+0x110>)
  4015fa:	4798      	blx	r3
	fdevopen((int (*)(char, FILE*))(_write),(int (*)(FILE*))(_read));
#  endif
#  if UC3 || SAM
	// For AVR32 and SAM GCC
	// Specify that stdout and stdin should not be buffered.
	setbuf(stdout, NULL);
  4015fc:	4e20      	ldr	r6, [pc, #128]	; (401680 <main+0x114>)
  4015fe:	6833      	ldr	r3, [r6, #0]
  401600:	4621      	mov	r1, r4
  401602:	6898      	ldr	r0, [r3, #8]
  401604:	4d1f      	ldr	r5, [pc, #124]	; (401684 <main+0x118>)
  401606:	47a8      	blx	r5
	setbuf(stdin, NULL);
  401608:	6833      	ldr	r3, [r6, #0]
  40160a:	4621      	mov	r1, r4
  40160c:	6858      	ldr	r0, [r3, #4]
  40160e:	47a8      	blx	r5

	/* Initialize the console UART. */
	configure_console();

	/* Initialize WM8904 TWI interface*/
	if (wm8904_twi_init() != TWIHS_SUCCESS) {
  401610:	4b1d      	ldr	r3, [pc, #116]	; (401688 <main+0x11c>)
  401612:	4798      	blx	r3
  401614:	b118      	cbz	r0, 40161e <main+0xb2>
		printf("-E-\tWM8904 initialization failed.\r");
  401616:	481d      	ldr	r0, [pc, #116]	; (40168c <main+0x120>)
  401618:	4b1d      	ldr	r3, [pc, #116]	; (401690 <main+0x124>)
  40161a:	4798      	blx	r3
  40161c:	e7fe      	b.n	40161c <main+0xb0>
		while (1) {
			/* Capture error */
		}
	}
	printf("WM8904 twi init!\n\r");
  40161e:	481d      	ldr	r0, [pc, #116]	; (401694 <main+0x128>)
  401620:	4b1b      	ldr	r3, [pc, #108]	; (401690 <main+0x124>)
  401622:	4798      	blx	r3
	wm8904_write_register(WM8904_SW_RESET_AND_ID, 0xFFFF);
  401624:	f64f 71ff 	movw	r1, #65535	; 0xffff
  401628:	2000      	movs	r0, #0
  40162a:	4b1b      	ldr	r3, [pc, #108]	; (401698 <main+0x12c>)
  40162c:	4798      	blx	r3
	data = wm8904_read_register(WM8904_SW_RESET_AND_ID);
  40162e:	2000      	movs	r0, #0
  401630:	4b1a      	ldr	r3, [pc, #104]	; (40169c <main+0x130>)
  401632:	4798      	blx	r3
	if(data != 0x8904) {
  401634:	f648 1304 	movw	r3, #35076	; 0x8904
  401638:	4298      	cmp	r0, r3
  40163a:	d033      	beq.n	4016a4 <main+0x138>
		printf("WM8904 not found!\n\r");
  40163c:	4818      	ldr	r0, [pc, #96]	; (4016a0 <main+0x134>)
  40163e:	4b14      	ldr	r3, [pc, #80]	; (401690 <main+0x124>)
  401640:	4798      	blx	r3
  401642:	e7fe      	b.n	401642 <main+0xd6>
  401644:	00402029 	.word	0x00402029
  401648:	0040209d 	.word	0x0040209d
  40164c:	20400010 	.word	0x20400010
  401650:	e000ed88 	.word	0xe000ed88
  401654:	00402675 	.word	0x00402675
  401658:	40028000 	.word	0x40028000
  40165c:	20440b28 	.word	0x20440b28
  401660:	00401499 	.word	0x00401499
  401664:	20440b24 	.word	0x20440b24
  401668:	004013bd 	.word	0x004013bd
  40166c:	20410b14 	.word	0x20410b14
  401670:	07270e00 	.word	0x07270e00
  401674:	004012d1 	.word	0x004012d1
  401678:	00401325 	.word	0x00401325
  40167c:	0040132b 	.word	0x0040132b
  401680:	2040001c 	.word	0x2040001c
  401684:	00403a5d 	.word	0x00403a5d
  401688:	00401c01 	.word	0x00401c01
  40168c:	004113c8 	.word	0x004113c8
  401690:	00403999 	.word	0x00403999
  401694:	004113ec 	.word	0x004113ec
  401698:	00401b89 	.word	0x00401b89
  40169c:	00401bc5 	.word	0x00401bc5
  4016a0:	00411400 	.word	0x00411400
	wm8904_write_register(WM8904_BIAS_CONTROL_0, WM8904_ISEL_HP_BIAS);
  4016a4:	2108      	movs	r1, #8
  4016a6:	2004      	movs	r0, #4
  4016a8:	4cb5      	ldr	r4, [pc, #724]	; (401980 <main+0x414>)
  4016aa:	47a0      	blx	r4
	wm8904_write_register(WM8904_VMID_CONTROL_0, WM8904_VMID_BUF_ENA |
  4016ac:	2147      	movs	r1, #71	; 0x47
  4016ae:	2005      	movs	r0, #5
  4016b0:	47a0      	blx	r4
	delay_ms(5);
  4016b2:	4db4      	ldr	r5, [pc, #720]	; (401984 <main+0x418>)
  4016b4:	4628      	mov	r0, r5
  4016b6:	4eb4      	ldr	r6, [pc, #720]	; (401988 <main+0x41c>)
  4016b8:	47b0      	blx	r6
	wm8904_write_register(WM8904_VMID_CONTROL_0, WM8904_VMID_BUF_ENA |
  4016ba:	2143      	movs	r1, #67	; 0x43
  4016bc:	2005      	movs	r0, #5
  4016be:	47a0      	blx	r4
	wm8904_write_register(WM8904_BIAS_CONTROL_0, WM8904_ISEL_HP_BIAS | WM8904_BIAS_ENA);
  4016c0:	2109      	movs	r1, #9
  4016c2:	2004      	movs	r0, #4
  4016c4:	47a0      	blx	r4
	wm8904_write_register(WM8904_POWER_MANAGEMENT_0, WM8904_INL_ENA | WM8904_INR_ENA);
  4016c6:	2103      	movs	r1, #3
  4016c8:	200c      	movs	r0, #12
  4016ca:	47a0      	blx	r4
	wm8904_write_register(WM8904_POWER_MANAGEMENT_2, WM8904_HPL_PGA_ENA | WM8904_HPR_PGA_ENA);
  4016cc:	2103      	movs	r1, #3
  4016ce:	200e      	movs	r0, #14
  4016d0:	47a0      	blx	r4
	wm8904_write_register(WM8904_DAC_DIGITAL_1, WM8904_DEEMPH(0));
  4016d2:	2100      	movs	r1, #0
  4016d4:	2021      	movs	r0, #33	; 0x21
  4016d6:	47a0      	blx	r4
	wm8904_write_register(WM8904_ANALOGUE_OUT12_ZC, 0x0000);
  4016d8:	2100      	movs	r1, #0
  4016da:	203d      	movs	r0, #61	; 0x3d
  4016dc:	47a0      	blx	r4
	wm8904_write_register(WM8904_CHARGE_PUMP_0, WM8904_CP_ENA);
  4016de:	2101      	movs	r1, #1
  4016e0:	2062      	movs	r0, #98	; 0x62
  4016e2:	47a0      	blx	r4
	wm8904_write_register(WM8904_CLASS_W_0, WM8904_CP_DYN_PWR);
  4016e4:	2101      	movs	r1, #1
  4016e6:	2068      	movs	r0, #104	; 0x68
  4016e8:	47a0      	blx	r4
	wm8904_write_register(WM8904_FLL_CONTROL_1, 0x0000);
  4016ea:	2100      	movs	r1, #0
  4016ec:	2074      	movs	r0, #116	; 0x74
  4016ee:	47a0      	blx	r4
	wm8904_write_register(WM8904_FLL_CONTROL_2, WM8904_FLL_OUTDIV(7)| WM8904_FLL_FRATIO(4));
  4016f0:	f240 7104 	movw	r1, #1796	; 0x704
  4016f4:	2075      	movs	r0, #117	; 0x75
  4016f6:	47a0      	blx	r4
	wm8904_write_register(WM8904_FLL_CONTROL_3, WM8904_FLL_K(0x8000));
  4016f8:	f44f 4100 	mov.w	r1, #32768	; 0x8000
  4016fc:	2076      	movs	r0, #118	; 0x76
  4016fe:	47a0      	blx	r4
	wm8904_write_register(WM8904_FLL_CONTROL_4, WM8904_FLL_N(0xBB));
  401700:	f44f 51bb 	mov.w	r1, #5984	; 0x1760
  401704:	2077      	movs	r0, #119	; 0x77
  401706:	47a0      	blx	r4
	wm8904_write_register(WM8904_FLL_CONTROL_1, WM8904_FLL_FRACN_ENA | WM8904_FLL_ENA);
  401708:	2105      	movs	r1, #5
  40170a:	2074      	movs	r0, #116	; 0x74
  40170c:	47a0      	blx	r4
	delay_ms(5);
  40170e:	4628      	mov	r0, r5
  401710:	47b0      	blx	r6
	wm8904_write_register(WM8904_CLOCK_RATES_1, WM8904_CLK_SYS_RATE(3) | WM8904_SAMPLE_RATE(5));
  401712:	f640 4105 	movw	r1, #3077	; 0xc05
  401716:	2015      	movs	r0, #21
  401718:	47a0      	blx	r4
	wm8904_write_register(WM8904_CLOCK_RATES_0, 0x0000);
  40171a:	2100      	movs	r1, #0
  40171c:	2014      	movs	r0, #20
  40171e:	47a0      	blx	r4
	wm8904_write_register(WM8904_CLOCK_RATES_2, 
  401720:	f244 0106 	movw	r1, #16390	; 0x4006
  401724:	2016      	movs	r0, #22
  401726:	47a0      	blx	r4
	wm8904_write_register(WM8904_AUDIO_INTERFACE_1, WM8904_BCLK_DIR | WM8904_AIF_FMT_I2S);
  401728:	2142      	movs	r1, #66	; 0x42
  40172a:	2019      	movs	r0, #25
  40172c:	47a0      	blx	r4
	wm8904_write_register(WM8904_AUDIO_INTERFACE_2, WM8904_BCLK_DIV(8));
  40172e:	2108      	movs	r1, #8
  401730:	201a      	movs	r0, #26
  401732:	47a0      	blx	r4
	wm8904_write_register(WM8904_AUDIO_INTERFACE_3, WM8904_LRCLK_DIR | WM8904_LRCLK_RATE(0x20));
  401734:	f44f 6102 	mov.w	r1, #2080	; 0x820
  401738:	201b      	movs	r0, #27
  40173a:	47a0      	blx	r4
	wm8904_write_register(WM8904_POWER_MANAGEMENT_6, 
  40173c:	210f      	movs	r1, #15
  40173e:	2012      	movs	r0, #18
  401740:	47a0      	blx	r4
	delay_ms(5);
  401742:	4628      	mov	r0, r5
  401744:	47b0      	blx	r6
	wm8904_write_register(WM8904_ANALOGUE_LEFT_INPUT_0, WM8904_LIN_VOL(0x10));
  401746:	2110      	movs	r1, #16
  401748:	202c      	movs	r0, #44	; 0x2c
  40174a:	47a0      	blx	r4
	wm8904_write_register(WM8904_ANALOGUE_RIGHT_INPUT_0, WM8904_RIN_VOL(0x10));
  40174c:	2110      	movs	r1, #16
  40174e:	202d      	movs	r0, #45	; 0x2d
  401750:	47a0      	blx	r4
	wm8904_write_register(WM8904_ANALOGUE_HP_0, 
  401752:	2111      	movs	r1, #17
  401754:	205a      	movs	r0, #90	; 0x5a
  401756:	47a0      	blx	r4
	wm8904_write_register(WM8904_ANALOGUE_HP_0, 
  401758:	2133      	movs	r1, #51	; 0x33
  40175a:	205a      	movs	r0, #90	; 0x5a
  40175c:	47a0      	blx	r4
	wm8904_write_register(WM8904_DC_SERVO_0, 
  40175e:	210f      	movs	r1, #15
  401760:	2043      	movs	r0, #67	; 0x43
  401762:	47a0      	blx	r4
	wm8904_write_register(WM8904_DC_SERVO_1, 
  401764:	21f0      	movs	r1, #240	; 0xf0
  401766:	2044      	movs	r0, #68	; 0x44
  401768:	47a0      	blx	r4
	delay_ms(100);
  40176a:	4d88      	ldr	r5, [pc, #544]	; (40198c <main+0x420>)
  40176c:	4628      	mov	r0, r5
  40176e:	47b0      	blx	r6
	wm8904_write_register(WM8904_ANALOGUE_HP_0, 
  401770:	2177      	movs	r1, #119	; 0x77
  401772:	205a      	movs	r0, #90	; 0x5a
  401774:	47a0      	blx	r4
	wm8904_write_register(WM8904_ANALOGUE_HP_0, 
  401776:	21ff      	movs	r1, #255	; 0xff
  401778:	205a      	movs	r0, #90	; 0x5a
  40177a:	47a0      	blx	r4
	wm8904_write_register(WM8904_ANALOGUE_OUT1_LEFT, WM8904_HPOUT_VU | WM8904_HPOUTL_VOL(0x39));
  40177c:	21b9      	movs	r1, #185	; 0xb9
  40177e:	2039      	movs	r0, #57	; 0x39
  401780:	47a0      	blx	r4
	wm8904_write_register(WM8904_ANALOGUE_OUT1_RIGHT, WM8904_HPOUT_VU | WM8904_HPOUTR_VOL(0x39));
  401782:	21b9      	movs	r1, #185	; 0xb9
  401784:	203a      	movs	r0, #58	; 0x3a
  401786:	47a0      	blx	r4
	delay_ms(100);
  401788:	4628      	mov	r0, r5
  40178a:	47b0      	blx	r6
	/* Configure CODEC */
	configure_codec();
	printf("codec configured!\n\r");
  40178c:	4880      	ldr	r0, [pc, #512]	; (401990 <main+0x424>)
  40178e:	4b81      	ldr	r3, [pc, #516]	; (401994 <main+0x428>)
  401790:	4798      	blx	r3
	pmc_enable_periph_clk(ID_SSC);
  401792:	2016      	movs	r0, #22
  401794:	f8df 8260 	ldr.w	r8, [pc, #608]	; 4019f8 <main+0x48c>
  401798:	47c0      	blx	r8
	ssc_reset(SSC);
  40179a:	f04f 2040 	mov.w	r0, #1073758208	; 0x40004000
  40179e:	4b7e      	ldr	r3, [pc, #504]	; (401998 <main+0x42c>)
  4017a0:	4798      	blx	r3
	tx_clk_option.ul_cks = SSC_TCMR_CKS_TK;
  4017a2:	2502      	movs	r5, #2
  4017a4:	9503      	str	r5, [sp, #12]
	tx_clk_option.ul_cko = SSC_TCMR_CKO_NONE;
  4017a6:	2400      	movs	r4, #0
  4017a8:	9404      	str	r4, [sp, #16]
	tx_clk_option.ul_cki = 0;
  4017aa:	9405      	str	r4, [sp, #20]
	tx_clk_option.ul_ckg = SSC_TCMR_CKG_CONTINUOUS;
  4017ac:	9406      	str	r4, [sp, #24]
	tx_clk_option.ul_start_sel = SSC_TCMR_START_TF_EDGE;
  4017ae:	f44f 6be0 	mov.w	fp, #1792	; 0x700
  4017b2:	f8cd b024 	str.w	fp, [sp, #36]	; 0x24
	tx_clk_option.ul_sttdly = SSC_TCMR_STTDLY(1);
  4017b6:	f44f 3a80 	mov.w	sl, #65536	; 0x10000
  4017ba:	f8cd a020 	str.w	sl, [sp, #32]
	tx_clk_option.ul_period = SSC_TCMR_PERIOD(0);
  4017be:	9407      	str	r4, [sp, #28]
	tx_data_frame_option.ul_datlen = BITS_BY_SLOT - 1;
  4017c0:	270f      	movs	r7, #15
  4017c2:	9711      	str	r7, [sp, #68]	; 0x44
	tx_data_frame_option.ul_msbf = SSC_TFMR_MSBF;
  4017c4:	f04f 0980 	mov.w	r9, #128	; 0x80
  4017c8:	f8cd 9048 	str.w	r9, [sp, #72]	; 0x48
	tx_data_frame_option.ul_datnb = 0;
  4017cc:	9413      	str	r4, [sp, #76]	; 0x4c
	tx_data_frame_option.ul_fslen = SLOT_BY_FRAME - 1;
  4017ce:	9414      	str	r4, [sp, #80]	; 0x50
	tx_data_frame_option.ul_fslen_ext = 0;
  4017d0:	9415      	str	r4, [sp, #84]	; 0x54
	tx_data_frame_option.ul_fsos = SSC_TFMR_FSOS_NONE;
  4017d2:	9416      	str	r4, [sp, #88]	; 0x58
	tx_data_frame_option.ul_fsedge = SSC_TFMR_FSEDGE_POSITIVE;
  4017d4:	9417      	str	r4, [sp, #92]	; 0x5c
	ssc_set_transmitter(SSC, &tx_clk_option, &tx_data_frame_option);
  4017d6:	aa11      	add	r2, sp, #68	; 0x44
  4017d8:	a903      	add	r1, sp, #12
  4017da:	f04f 2040 	mov.w	r0, #1073758208	; 0x40004000
  4017de:	4b6f      	ldr	r3, [pc, #444]	; (40199c <main+0x430>)
  4017e0:	4798      	blx	r3
	rx_clk_option.ul_cks = SSC_RCMR_CKS_TK;
  4017e2:	2301      	movs	r3, #1
  4017e4:	930a      	str	r3, [sp, #40]	; 0x28
	rx_clk_option.ul_cko = SSC_RCMR_CKO_NONE;
  4017e6:	940b      	str	r4, [sp, #44]	; 0x2c
	rx_clk_option.ul_cki = SSC_RCMR_CKI;
  4017e8:	2320      	movs	r3, #32
  4017ea:	930c      	str	r3, [sp, #48]	; 0x30
	rx_clk_option.ul_ckg = SSC_RCMR_CKG_CONTINUOUS;
  4017ec:	940d      	str	r4, [sp, #52]	; 0x34
	rx_clk_option.ul_start_sel = SSC_RCMR_START_RF_EDGE;
  4017ee:	f8cd b040 	str.w	fp, [sp, #64]	; 0x40
	rx_clk_option.ul_sttdly = SSC_RCMR_STTDLY(1);
  4017f2:	f8cd a03c 	str.w	sl, [sp, #60]	; 0x3c
	rx_clk_option.ul_period = SSC_RCMR_PERIOD(0);
  4017f6:	940e      	str	r4, [sp, #56]	; 0x38
	rx_data_frame_option.ul_datlen = BITS_BY_SLOT - 1;
  4017f8:	9718      	str	r7, [sp, #96]	; 0x60
	rx_data_frame_option.ul_msbf = SSC_RFMR_MSBF;
  4017fa:	f8cd 9064 	str.w	r9, [sp, #100]	; 0x64
	rx_data_frame_option.ul_datnb = 0;
  4017fe:	941a      	str	r4, [sp, #104]	; 0x68
	rx_data_frame_option.ul_fslen = SLOT_BY_FRAME - 1;
  401800:	941b      	str	r4, [sp, #108]	; 0x6c
	rx_data_frame_option.ul_fslen_ext = 0;
  401802:	941c      	str	r4, [sp, #112]	; 0x70
	rx_data_frame_option.ul_fsos = SSC_TFMR_FSOS_NONE;
  401804:	941d      	str	r4, [sp, #116]	; 0x74
	rx_data_frame_option.ul_fsedge = SSC_TFMR_FSEDGE_POSITIVE;
  401806:	941e      	str	r4, [sp, #120]	; 0x78
	ssc_set_receiver(SSC, &rx_clk_option, &rx_data_frame_option);
  401808:	aa18      	add	r2, sp, #96	; 0x60
  40180a:	a90a      	add	r1, sp, #40	; 0x28
  40180c:	f04f 2040 	mov.w	r0, #1073758208	; 0x40004000
  401810:	4b63      	ldr	r3, [pc, #396]	; (4019a0 <main+0x434>)
  401812:	4798      	blx	r3
	ssc_disable_tx(SSC);
  401814:	f04f 2040 	mov.w	r0, #1073758208	; 0x40004000
  401818:	4b62      	ldr	r3, [pc, #392]	; (4019a4 <main+0x438>)
  40181a:	4798      	blx	r3
	ssc_disable_rx(SSC);
  40181c:	f04f 2040 	mov.w	r0, #1073758208	; 0x40004000
  401820:	4b61      	ldr	r3, [pc, #388]	; (4019a8 <main+0x43c>)
  401822:	4798      	blx	r3
	ssc_disable_interrupt(SSC, 0xFFFFFFFF);
  401824:	f04f 31ff 	mov.w	r1, #4294967295
  401828:	f04f 2040 	mov.w	r0, #1073758208	; 0x40004000
  40182c:	4b5f      	ldr	r3, [pc, #380]	; (4019ac <main+0x440>)
  40182e:	4798      	blx	r3

	/* Configure SSC */
	configure_ssc();
	printf("configured ssc!\n\r");
  401830:	485f      	ldr	r0, [pc, #380]	; (4019b0 <main+0x444>)
  401832:	4b58      	ldr	r3, [pc, #352]	; (401994 <main+0x428>)
  401834:	4798      	blx	r3
	xdmac_channel_config_t xdmac_channel_cfg = {0};
  401836:	2220      	movs	r2, #32
  401838:	4621      	mov	r1, r4
  40183a:	a818      	add	r0, sp, #96	; 0x60
  40183c:	4b5d      	ldr	r3, [pc, #372]	; (4019b4 <main+0x448>)
  40183e:	4798      	blx	r3
	pmc_enable_periph_clk(ID_XDMAC);
  401840:	203a      	movs	r0, #58	; 0x3a
  401842:	47c0      	blx	r8
	xdmac_channel_cfg.mbr_cfg = XDMAC_CC_TYPE_PER_TRAN
  401844:	4b5c      	ldr	r3, [pc, #368]	; (4019b8 <main+0x44c>)
  401846:	931b      	str	r3, [sp, #108]	; 0x6c
	xdmac_configure_transfer(XDMAC, XDMA_CH_SSC_RX, &xdmac_channel_cfg);
  401848:	f8df 81b0 	ldr.w	r8, [pc, #432]	; 4019fc <main+0x490>
  40184c:	aa18      	add	r2, sp, #96	; 0x60
  40184e:	4621      	mov	r1, r4
  401850:	4640      	mov	r0, r8
  401852:	4b5a      	ldr	r3, [pc, #360]	; (4019bc <main+0x450>)
  401854:	4798      	blx	r3
		linklist_read[i].mbr_ubc = XDMAC_UBC_NVIEW_NDV1
  401856:	4b5a      	ldr	r3, [pc, #360]	; (4019c0 <main+0x454>)
  401858:	f8df 91a4 	ldr.w	r9, [pc, #420]	; 401a00 <main+0x494>
  40185c:	f8c3 9004 	str.w	r9, [r3, #4]
		linklist_read[i].mbr_sa = (uint32_t)&(SSC->SSC_RHR);
  401860:	4a58      	ldr	r2, [pc, #352]	; (4019c4 <main+0x458>)
  401862:	609a      	str	r2, [r3, #8]
		linklist_read[i].mbr_da = (uint32_t)(src);										
  401864:	f8df a19c 	ldr.w	sl, [pc, #412]	; 401a04 <main+0x498>
  401868:	f8c3 a00c 	str.w	sl, [r3, #12]
			linklist_read[i].mbr_nda = (uint32_t)&linklist_read[i+1];
  40186c:	f103 0110 	add.w	r1, r3, #16
  401870:	6019      	str	r1, [r3, #0]
		linklist_read[i].mbr_ubc = XDMAC_UBC_NVIEW_NDV1
  401872:	f8c3 9014 	str.w	r9, [r3, #20]
		linklist_read[i].mbr_sa = (uint32_t)&(SSC->SSC_RHR);
  401876:	619a      	str	r2, [r3, #24]
		linklist_read[i].mbr_da = (uint32_t)(src);										
  401878:	f50a 5100 	add.w	r1, sl, #8192	; 0x2000
  40187c:	61d9      	str	r1, [r3, #28]
			linklist_read[i].mbr_nda = (uint32_t)&linklist_read[i+1];
  40187e:	f103 0120 	add.w	r1, r3, #32
  401882:	6119      	str	r1, [r3, #16]
		linklist_read[i].mbr_ubc = XDMAC_UBC_NVIEW_NDV1
  401884:	f8c3 9024 	str.w	r9, [r3, #36]	; 0x24
		linklist_read[i].mbr_sa = (uint32_t)&(SSC->SSC_RHR);
  401888:	629a      	str	r2, [r3, #40]	; 0x28
		linklist_read[i].mbr_da = (uint32_t)(src);										
  40188a:	f50a 4180 	add.w	r1, sl, #16384	; 0x4000
  40188e:	62d9      	str	r1, [r3, #44]	; 0x2c
			linklist_read[i].mbr_nda = (uint32_t)&linklist_read[i+1];
  401890:	f103 0130 	add.w	r1, r3, #48	; 0x30
  401894:	6219      	str	r1, [r3, #32]
		linklist_read[i].mbr_ubc = XDMAC_UBC_NVIEW_NDV1
  401896:	f8c3 9034 	str.w	r9, [r3, #52]	; 0x34
		linklist_read[i].mbr_sa = (uint32_t)&(SSC->SSC_RHR);
  40189a:	639a      	str	r2, [r3, #56]	; 0x38
		linklist_read[i].mbr_da = (uint32_t)(src);										
  40189c:	f50a 4bc0 	add.w	fp, sl, #24576	; 0x6000
  4018a0:	f8c3 b03c 	str.w	fp, [r3, #60]	; 0x3c
			linklist_read[i].mbr_nda = (uint32_t)&linklist_read[0];
  4018a4:	631b      	str	r3, [r3, #48]	; 0x30
 */
static inline void xdmac_channel_set_descriptor_control(Xdmac *xdmac, uint32_t channel_num, uint32_t config)
{
	Assert(xdmac);
	Assert(channel_num < XDMACCHID_NUMBER);
	xdmac->XDMAC_CHID[channel_num].XDMAC_CNDC = config;
  4018a6:	f8c8 706c 	str.w	r7, [r8, #108]	; 0x6c
	xdmac->XDMAC_CHID[channel_num].XDMAC_CNDA = (desc_addr & 0xFFFFFFFC) | ndaif;
  4018aa:	f023 0303 	bic.w	r3, r3, #3
  4018ae:	f8c8 3068 	str.w	r3, [r8, #104]	; 0x68
	xdmac->XDMAC_GIE = ( XDMAC_GIE_IE0 << channel_num) ;
  4018b2:	2301      	movs	r3, #1
  4018b4:	f8c8 300c 	str.w	r3, [r8, #12]
	xdmac->XDMAC_CHID[channel_num].XDMAC_CIE = mask;
  4018b8:	f8c8 5050 	str.w	r5, [r8, #80]	; 0x50
	xdmac_channel_cfg.mbr_cfg = XDMAC_CC_TYPE_PER_TRAN
  4018bc:	4b42      	ldr	r3, [pc, #264]	; (4019c8 <main+0x45c>)
  4018be:	931b      	str	r3, [sp, #108]	; 0x6c
	xdmac_configure_transfer(XDMAC, XDMA_CH_SSC_TX, &xdmac_channel_cfg);
  4018c0:	aa18      	add	r2, sp, #96	; 0x60
  4018c2:	2101      	movs	r1, #1
  4018c4:	4640      	mov	r0, r8
  4018c6:	4b3d      	ldr	r3, [pc, #244]	; (4019bc <main+0x450>)
  4018c8:	4798      	blx	r3
		linklist_write[i].mbr_ubc = XDMAC_UBC_NVIEW_NDV1
  4018ca:	4b40      	ldr	r3, [pc, #256]	; (4019cc <main+0x460>)
  4018cc:	f8c3 9004 	str.w	r9, [r3, #4]
		linklist_write[i].mbr_sa = (uint32_t)(src);
  4018d0:	f8c3 a008 	str.w	sl, [r3, #8]
		linklist_write[i].mbr_da = (uint32_t)&(SSC->SSC_THR);
  4018d4:	4a3e      	ldr	r2, [pc, #248]	; (4019d0 <main+0x464>)
  4018d6:	60da      	str	r2, [r3, #12]
			linklist_write[i].mbr_nda = (uint32_t)&linklist_write[i+1];
  4018d8:	f103 0110 	add.w	r1, r3, #16
  4018dc:	6019      	str	r1, [r3, #0]
		linklist_write[i].mbr_ubc = XDMAC_UBC_NVIEW_NDV1
  4018de:	f8c3 9014 	str.w	r9, [r3, #20]
		linklist_write[i].mbr_sa = (uint32_t)(src);
  4018e2:	f50a 5100 	add.w	r1, sl, #8192	; 0x2000
  4018e6:	6199      	str	r1, [r3, #24]
		linklist_write[i].mbr_da = (uint32_t)&(SSC->SSC_THR);
  4018e8:	61da      	str	r2, [r3, #28]
			linklist_write[i].mbr_nda = (uint32_t)&linklist_write[i+1];
  4018ea:	f103 0120 	add.w	r1, r3, #32
  4018ee:	6119      	str	r1, [r3, #16]
		linklist_write[i].mbr_ubc = XDMAC_UBC_NVIEW_NDV1
  4018f0:	f8c3 9024 	str.w	r9, [r3, #36]	; 0x24
		linklist_write[i].mbr_sa = (uint32_t)(src);
  4018f4:	f50a 4180 	add.w	r1, sl, #16384	; 0x4000
  4018f8:	6299      	str	r1, [r3, #40]	; 0x28
		linklist_write[i].mbr_da = (uint32_t)&(SSC->SSC_THR);
  4018fa:	62da      	str	r2, [r3, #44]	; 0x2c
			linklist_write[i].mbr_nda = (uint32_t)&linklist_write[i+1];
  4018fc:	f103 0130 	add.w	r1, r3, #48	; 0x30
  401900:	6219      	str	r1, [r3, #32]
		linklist_write[i].mbr_ubc = XDMAC_UBC_NVIEW_NDV1
  401902:	f8c3 9034 	str.w	r9, [r3, #52]	; 0x34
		linklist_write[i].mbr_sa = (uint32_t)(src);
  401906:	f8c3 b038 	str.w	fp, [r3, #56]	; 0x38
		linklist_write[i].mbr_da = (uint32_t)&(SSC->SSC_THR);
  40190a:	63da      	str	r2, [r3, #60]	; 0x3c
			linklist_write[i].mbr_nda = (uint32_t)&linklist_write[0];
  40190c:	631b      	str	r3, [r3, #48]	; 0x30
	xdmac->XDMAC_CHID[channel_num].XDMAC_CNDC = config;
  40190e:	f8c8 70ac 	str.w	r7, [r8, #172]	; 0xac
	xdmac->XDMAC_CHID[channel_num].XDMAC_CNDA = (desc_addr & 0xFFFFFFFC) | ndaif;
  401912:	f023 0303 	bic.w	r3, r3, #3
  401916:	f8c8 30a8 	str.w	r3, [r8, #168]	; 0xa8
	xdmac->XDMAC_GIE = ( XDMAC_GIE_IE0 << channel_num) ;
  40191a:	f8c8 500c 	str.w	r5, [r8, #12]
	xdmac->XDMAC_CHID[channel_num].XDMAC_CIE = mask;
  40191e:	f8c8 5090 	str.w	r5, [r8, #144]	; 0x90
    NVIC->ICPR[(((uint32_t)IRQn) >> 5UL)] = (uint32_t)(1UL << (((uint32_t)IRQn) & 0x1FUL));
  401922:	4b2c      	ldr	r3, [pc, #176]	; (4019d4 <main+0x468>)
  401924:	f04f 6280 	mov.w	r2, #67108864	; 0x4000000
  401928:	f8c3 2184 	str.w	r2, [r3, #388]	; 0x184
    NVIC->IP[((uint32_t)IRQn)]                = (uint8_t)((priority << (8U - __NVIC_PRIO_BITS)) & (uint32_t)0xFFUL);
  40192c:	f04f 0120 	mov.w	r1, #32
  401930:	f883 133a 	strb.w	r1, [r3, #826]	; 0x33a
    NVIC->ISER[(((uint32_t)IRQn) >> 5UL)] = (uint32_t)(1UL << (((uint32_t)IRQn) & 0x1FUL));
  401934:	605a      	str	r2, [r3, #4]

	/* Configure XDMA */
	configure_xdma();
	printf("configured xdma!\n\r");
  401936:	4828      	ldr	r0, [pc, #160]	; (4019d8 <main+0x46c>)
  401938:	4b16      	ldr	r3, [pc, #88]	; (401994 <main+0x428>)
  40193a:	4798      	blx	r3

	/* Enable the DAC master clock */
	pmc_pck_set_prescaler(PMC_PCK_2, PMC_MCKR_PRES_CLK_1);
  40193c:	4621      	mov	r1, r4
  40193e:	4628      	mov	r0, r5
  401940:	4b26      	ldr	r3, [pc, #152]	; (4019dc <main+0x470>)
  401942:	4798      	blx	r3
	pmc_pck_set_source(PMC_PCK_2, PMC_MCKR_CSS_SLOW_CLK);
  401944:	4621      	mov	r1, r4
  401946:	4628      	mov	r0, r5
  401948:	4b25      	ldr	r3, [pc, #148]	; (4019e0 <main+0x474>)
  40194a:	4798      	blx	r3
	pmc_enable_pck(PMC_PCK_2);
  40194c:	4628      	mov	r0, r5
  40194e:	4b25      	ldr	r3, [pc, #148]	; (4019e4 <main+0x478>)
  401950:	4798      	blx	r3

	/* Start playing */
	ssc_enable_rx(SSC);
  401952:	f04f 2040 	mov.w	r0, #1073758208	; 0x40004000
  401956:	4b24      	ldr	r3, [pc, #144]	; (4019e8 <main+0x47c>)
  401958:	4798      	blx	r3
	SCB_CleanInvalidateDCache();
  40195a:	4c24      	ldr	r4, [pc, #144]	; (4019ec <main+0x480>)
  40195c:	47a0      	blx	r4
	xdmac->XDMAC_GE = (XDMAC_GE_EN0 << channel_num);
  40195e:	2301      	movs	r3, #1
  401960:	f8c8 301c 	str.w	r3, [r8, #28]
	xdmac_channel_enable(XDMAC, XDMA_CH_SSC_RX);
	delay_ms(300);
  401964:	4822      	ldr	r0, [pc, #136]	; (4019f0 <main+0x484>)
  401966:	47b0      	blx	r6
	ssc_enable_tx(SSC);
  401968:	f04f 2040 	mov.w	r0, #1073758208	; 0x40004000
  40196c:	4b21      	ldr	r3, [pc, #132]	; (4019f4 <main+0x488>)
  40196e:	4798      	blx	r3
	SCB_CleanInvalidateDCache();
  401970:	47a0      	blx	r4
	xdmac->XDMAC_GE = (XDMAC_GE_EN0 << channel_num);
  401972:	f8c8 501c 	str.w	r5, [r8, #28]
  401976:	4657      	mov	r7, sl
  401978:	f64f 74fe 	movw	r4, #65534	; 0xfffe
  40197c:	4454      	add	r4, sl
  40197e:	e043      	b.n	401a08 <main+0x49c>
  401980:	00401b89 	.word	0x00401b89
  401984:	00031635 	.word	0x00031635
  401988:	20400001 	.word	0x20400001
  40198c:	003dbc1e 	.word	0x003dbc1e
  401990:	00411414 	.word	0x00411414
  401994:	00403999 	.word	0x00403999
  401998:	00401c79 	.word	0x00401c79
  40199c:	00401d1d 	.word	0x00401d1d
  4019a0:	00401ca9 	.word	0x00401ca9
  4019a4:	00401ca1 	.word	0x00401ca1
  4019a8:	00401c93 	.word	0x00401c93
  4019ac:	00401d91 	.word	0x00401d91
  4019b0:	00411428 	.word	0x00411428
  4019b4:	004039c1 	.word	0x004039c1
  4019b8:	21042801 	.word	0x21042801
  4019bc:	00401feb 	.word	0x00401feb
  4019c0:	204109e8 	.word	0x204109e8
  4019c4:	40004020 	.word	0x40004020
  4019c8:	20014811 	.word	0x20014811
  4019cc:	20410a28 	.word	0x20410a28
  4019d0:	40004024 	.word	0x40004024
  4019d4:	e000e100 	.word	0xe000e100
  4019d8:	0041143c 	.word	0x0041143c
  4019dc:	004026c9 	.word	0x004026c9
  4019e0:	004026f5 	.word	0x004026f5
  4019e4:	00402721 	.word	0x00402721
  4019e8:	00401c8d 	.word	0x00401c8d
  4019ec:	00401361 	.word	0x00401361
  4019f0:	00b93458 	.word	0x00b93458
  4019f4:	00401c99 	.word	0x00401c99
  4019f8:	00402675 	.word	0x00402675
  4019fc:	40078000 	.word	0x40078000
  401a00:	0b001000 	.word	0x0b001000
  401a04:	204009e8 	.word	0x204009e8
  fft(fft_inputData, fft_signalPower, BUFF_SIZE/2, &u32fft_maxPowerIndex, &fft_maxPower);
  401a08:	4e10      	ldr	r6, [pc, #64]	; (401a4c <main+0x4e0>)
  401a0a:	e012      	b.n	401a32 <main+0x4c6>
  401a0c:	4d10      	ldr	r5, [pc, #64]	; (401a50 <main+0x4e4>)
  401a0e:	9500      	str	r5, [sp, #0]
  401a10:	4633      	mov	r3, r6
  401a12:	f44f 4280 	mov.w	r2, #16384	; 0x4000
  401a16:	490f      	ldr	r1, [pc, #60]	; (401a54 <main+0x4e8>)
  401a18:	480f      	ldr	r0, [pc, #60]	; (401a58 <main+0x4ec>)
  401a1a:	f8df 804c 	ldr.w	r8, [pc, #76]	; 401a68 <main+0x4fc>
  401a1e:	47c0      	blx	r8
  printf("%5d  %5.4f \r\n", u32fft_maxPowerIndex, fft_maxPower);
  401a20:	6828      	ldr	r0, [r5, #0]
  401a22:	4b0e      	ldr	r3, [pc, #56]	; (401a5c <main+0x4f0>)
  401a24:	4798      	blx	r3
  401a26:	4602      	mov	r2, r0
  401a28:	460b      	mov	r3, r1
  401a2a:	6831      	ldr	r1, [r6, #0]
  401a2c:	480c      	ldr	r0, [pc, #48]	; (401a60 <main+0x4f4>)
  401a2e:	4d0d      	ldr	r5, [pc, #52]	; (401a64 <main+0x4f8>)
  401a30:	47a8      	blx	r5
  401a32:	1ebb      	subs	r3, r7, #2
  401a34:	4a08      	ldr	r2, [pc, #32]	; (401a58 <main+0x4ec>)

	while(1)
	{
		for(uint32_t c = 0; c<BUFF_SIZE; c++)
      {
          fft_inputData[c] = (float)(AudioBuffer[c]);
  401a36:	f833 1f02 	ldrh.w	r1, [r3, #2]!
  401a3a:	ee07 1a90 	vmov	s15, r1
  401a3e:	eef8 7a67 	vcvt.f32.u32	s15, s15
  401a42:	ece2 7a01 	vstmia	r2!, {s15}
		for(uint32_t c = 0; c<BUFF_SIZE; c++)
  401a46:	429c      	cmp	r4, r3
  401a48:	d1f5      	bne.n	401a36 <main+0x4ca>
  401a4a:	e7df      	b.n	401a0c <main+0x4a0>
  401a4c:	20420b18 	.word	0x20420b18
  401a50:	20440b1c 	.word	0x20440b1c
  401a54:	20410b18 	.word	0x20410b18
  401a58:	20420b1c 	.word	0x20420b1c
  401a5c:	00402dfd 	.word	0x00402dfd
  401a60:	00411450 	.word	0x00411450
  401a64:	00403999 	.word	0x00403999
  401a68:	00401a6d 	.word	0x00401a6d

00401a6c <fft>:
uint32_t doBitReverse = 1;
float    scale_factor;

/** Fast fourier transform */
void fft(float * fft_inputData, float * fft_signalPower, uint32_t fftSize, uint32_t * fft_maxPowerIndex, float * fft_maxPower)
{
  401a6c:	e92d 41f0 	stmdb	sp!, {r4, r5, r6, r7, r8, lr}
  401a70:	4605      	mov	r5, r0
  401a72:	460e      	mov	r6, r1
  401a74:	4614      	mov	r4, r2
  401a76:	461f      	mov	r7, r3
    uint32_t u32index;
    scale_factor = fftSize;
  401a78:	ee07 2a90 	vmov	s15, r2
  401a7c:	eef8 7a67 	vcvt.f32.u32	s15, s15
  401a80:	4b23      	ldr	r3, [pc, #140]	; (401b10 <fft+0xa4>)
  401a82:	edc3 7a00 	vstr	s15, [r3]
    const arm_cfft_instance_f32 *cfft_instance;
    
    switch(fftSize)
  401a86:	f5b2 7f00 	cmp.w	r2, #512	; 0x200
  401a8a:	d00d      	beq.n	401aa8 <fft+0x3c>
  401a8c:	d907      	bls.n	401a9e <fft+0x32>
  401a8e:	f5b2 6f80 	cmp.w	r2, #1024	; 0x400
  401a92:	d03a      	beq.n	401b0a <fft+0x9e>
  401a94:	f5b2 6f00 	cmp.w	r2, #2048	; 0x800
  401a98:	d12b      	bne.n	401af2 <fft+0x86>
            break;
        case(1024):
            cfft_instance = &arm_cfft_sR_f32_len1024;
            break;
        case(2048):
            cfft_instance = &arm_cfft_sR_f32_len2048;
  401a9a:	481e      	ldr	r0, [pc, #120]	; (401b14 <fft+0xa8>)
            break;    
  401a9c:	e005      	b.n	401aaa <fft+0x3e>
    switch(fftSize)
  401a9e:	f5b2 7f80 	cmp.w	r2, #256	; 0x100
  401aa2:	d126      	bne.n	401af2 <fft+0x86>
            cfft_instance = &arm_cfft_sR_f32_len256;
  401aa4:	481c      	ldr	r0, [pc, #112]	; (401b18 <fft+0xac>)
  401aa6:	e000      	b.n	401aaa <fft+0x3e>
            cfft_instance = &arm_cfft_sR_f32_len512;
  401aa8:	481c      	ldr	r0, [pc, #112]	; (401b1c <fft+0xb0>)
    }  
  /* Process the data through the CFFT/CIFFT module */
    arm_cfft_f32(cfft_instance, fft_inputData, ifftFlag, doBitReverse);
  401aaa:	4b1d      	ldr	r3, [pc, #116]	; (401b20 <fft+0xb4>)
  401aac:	781b      	ldrb	r3, [r3, #0]
  401aae:	4a1d      	ldr	r2, [pc, #116]	; (401b24 <fft+0xb8>)
  401ab0:	7812      	ldrb	r2, [r2, #0]
  401ab2:	4629      	mov	r1, r5
  401ab4:	f8df 807c 	ldr.w	r8, [pc, #124]	; 401b34 <fft+0xc8>
  401ab8:	47c0      	blx	r8

  /*Scale down magnitude */
    for (u32index = 0; u32index <fftSize*2; u32index++)
  401aba:	0061      	lsls	r1, r4, #1
  401abc:	462a      	mov	r2, r5
{
  401abe:	2300      	movs	r3, #0
    {
        fft_inputData[u32index] /= scale_factor;
  401ac0:	4813      	ldr	r0, [pc, #76]	; (401b10 <fft+0xa4>)
  401ac2:	edd2 6a00 	vldr	s13, [r2]
  401ac6:	ed90 7a00 	vldr	s14, [r0]
  401aca:	eec6 7a87 	vdiv.f32	s15, s13, s14
  401ace:	ece2 7a01 	vstmia	r2!, {s15}
    for (u32index = 0; u32index <fftSize*2; u32index++)
  401ad2:	3301      	adds	r3, #1
  401ad4:	428b      	cmp	r3, r1
  401ad6:	d3f4      	bcc.n	401ac2 <fft+0x56>
    }
      
  /* Process the data through the Complex Magnitude Module for calculating the magnitude at each bin */
    arm_cmplx_mag_f32(fft_inputData, fft_signalPower, fftSize);
  401ad8:	4622      	mov	r2, r4
  401ada:	4631      	mov	r1, r6
  401adc:	4628      	mov	r0, r5
  401ade:	4b12      	ldr	r3, [pc, #72]	; (401b28 <fft+0xbc>)
  401ae0:	4798      	blx	r3

  /* Calculates maxValue and returns corresponding BIN value */
    arm_max_f32(fft_signalPower, fftSize, fft_maxPower, fft_maxPowerIndex);
  401ae2:	463b      	mov	r3, r7
  401ae4:	9a06      	ldr	r2, [sp, #24]
  401ae6:	4621      	mov	r1, r4
  401ae8:	4630      	mov	r0, r6
  401aea:	4c10      	ldr	r4, [pc, #64]	; (401b2c <fft+0xc0>)
  401aec:	47a0      	blx	r4
}
  401aee:	e8bd 81f0 	ldmia.w	sp!, {r4, r5, r6, r7, r8, pc}
    arm_cfft_f32(cfft_instance, fft_inputData, ifftFlag, doBitReverse);
  401af2:	4b0b      	ldr	r3, [pc, #44]	; (401b20 <fft+0xb4>)
  401af4:	781b      	ldrb	r3, [r3, #0]
  401af6:	4a0b      	ldr	r2, [pc, #44]	; (401b24 <fft+0xb8>)
  401af8:	7812      	ldrb	r2, [r2, #0]
  401afa:	4629      	mov	r1, r5
  401afc:	2000      	movs	r0, #0
  401afe:	f8df 8034 	ldr.w	r8, [pc, #52]	; 401b34 <fft+0xc8>
  401b02:	47c0      	blx	r8
    for (u32index = 0; u32index <fftSize*2; u32index++)
  401b04:	0061      	lsls	r1, r4, #1
  401b06:	d1d9      	bne.n	401abc <fft+0x50>
  401b08:	e7e6      	b.n	401ad8 <fft+0x6c>
            cfft_instance = &arm_cfft_sR_f32_len1024;
  401b0a:	4809      	ldr	r0, [pc, #36]	; (401b30 <fft+0xc4>)
  401b0c:	e7cd      	b.n	401aaa <fft+0x3e>
  401b0e:	bf00      	nop
  401b10:	20440b20 	.word	0x20440b20
  401b14:	00411398 	.word	0x00411398
  401b18:	004113a8 	.word	0x004113a8
  401b1c:	004113b8 	.word	0x004113b8
  401b20:	2040000c 	.word	0x2040000c
  401b24:	20410a68 	.word	0x20410a68
  401b28:	00400fb1 	.word	0x00400fb1
  401b2c:	00401155 	.word	0x00401155
  401b30:	00411388 	.word	0x00411388
  401b34:	004008e9 	.word	0x004008e9

00401b38 <_write>:
int __attribute__((weak))
_write (int file, const char *ptr, int len)
{
	int nChars = 0;

	if ((file != 1) && (file != 2) && (file!=3)) {
  401b38:	3801      	subs	r0, #1
  401b3a:	2802      	cmp	r0, #2
  401b3c:	d815      	bhi.n	401b6a <_write+0x32>
{
  401b3e:	e92d 41f0 	stmdb	sp!, {r4, r5, r6, r7, r8, lr}
  401b42:	460e      	mov	r6, r1
  401b44:	4614      	mov	r4, r2
		return -1;
	}

	for (; len != 0; --len) {
  401b46:	b19a      	cbz	r2, 401b70 <_write+0x38>
  401b48:	460d      	mov	r5, r1
		if (ptr_put(stdio_base, *ptr++) < 0) {
  401b4a:	f8df 8038 	ldr.w	r8, [pc, #56]	; 401b84 <_write+0x4c>
  401b4e:	4f0c      	ldr	r7, [pc, #48]	; (401b80 <_write+0x48>)
  401b50:	f8d8 0000 	ldr.w	r0, [r8]
  401b54:	f815 1b01 	ldrb.w	r1, [r5], #1
  401b58:	683b      	ldr	r3, [r7, #0]
  401b5a:	4798      	blx	r3
  401b5c:	2800      	cmp	r0, #0
  401b5e:	db0a      	blt.n	401b76 <_write+0x3e>
  401b60:	1ba8      	subs	r0, r5, r6
	for (; len != 0; --len) {
  401b62:	3c01      	subs	r4, #1
  401b64:	d1f4      	bne.n	401b50 <_write+0x18>
  401b66:	e8bd 81f0 	ldmia.w	sp!, {r4, r5, r6, r7, r8, pc}
		return -1;
  401b6a:	f04f 30ff 	mov.w	r0, #4294967295
  401b6e:	4770      	bx	lr
	for (; len != 0; --len) {
  401b70:	4610      	mov	r0, r2
  401b72:	e8bd 81f0 	ldmia.w	sp!, {r4, r5, r6, r7, r8, pc}
			return -1;
  401b76:	f04f 30ff 	mov.w	r0, #4294967295
		}
		++nChars;
	}
	return nChars;
}
  401b7a:	e8bd 81f0 	ldmia.w	sp!, {r4, r5, r6, r7, r8, pc}
  401b7e:	bf00      	nop
  401b80:	20440b24 	.word	0x20440b24
  401b84:	20440b28 	.word	0x20440b28

00401b88 <wm8904_write_register>:
 *
 * \param uc_register_address Register address to write
 * \param us_data Data to write.
 */
void wm8904_write_register(uint8_t uc_register_address, uint16_t us_data)
{
  401b88:	b500      	push	{lr}
  401b8a:	b087      	sub	sp, #28
	uint8_t uc_temp_data[2];
	twihs_packet_t packet;

	uc_temp_data[0] = (us_data & 0xff00) >> 8;
  401b8c:	0a0b      	lsrs	r3, r1, #8
  401b8e:	f88d 3014 	strb.w	r3, [sp, #20]
	uc_temp_data[1] = us_data & 0xff;
  401b92:	f88d 1015 	strb.w	r1, [sp, #21]

	packet.addr[0]     = uc_register_address;
  401b96:	f88d 0000 	strb.w	r0, [sp]
	packet.addr_length = 0x1;
  401b9a:	2301      	movs	r3, #1
  401b9c:	9301      	str	r3, [sp, #4]
	packet.buffer      = uc_temp_data;
  401b9e:	ab05      	add	r3, sp, #20
  401ba0:	9302      	str	r3, [sp, #8]
	packet.length      = 0x2;
  401ba2:	2302      	movs	r3, #2
  401ba4:	9303      	str	r3, [sp, #12]
	packet.chip        = WM8904_SLAVE_ADDRESS;
  401ba6:	231a      	movs	r3, #26
  401ba8:	f88d 3010 	strb.w	r3, [sp, #16]

	twihs_master_write(WM8904_TWIHS, &packet);
  401bac:	4669      	mov	r1, sp
  401bae:	4803      	ldr	r0, [pc, #12]	; (401bbc <wm8904_write_register+0x34>)
  401bb0:	4b03      	ldr	r3, [pc, #12]	; (401bc0 <wm8904_write_register+0x38>)
  401bb2:	4798      	blx	r3
}
  401bb4:	b007      	add	sp, #28
  401bb6:	f85d fb04 	ldr.w	pc, [sp], #4
  401bba:	bf00      	nop
  401bbc:	40018000 	.word	0x40018000
  401bc0:	00401f25 	.word	0x00401f25

00401bc4 <wm8904_read_register>:
 *
 * \param uc_register_address Register address to write
 * \retun Register value.
 */
uint16_t wm8904_read_register(uint8_t uc_register_address)
{
  401bc4:	b500      	push	{lr}
  401bc6:	b087      	sub	sp, #28
	uint8_t uc_temp_data[2];
	twihs_packet_t packet;
	uint16_t us_data;

	packet.addr[0]     = uc_register_address;
  401bc8:	f88d 0000 	strb.w	r0, [sp]
	packet.addr_length = 0x1;
  401bcc:	2301      	movs	r3, #1
  401bce:	9301      	str	r3, [sp, #4]
	packet.buffer      = uc_temp_data;
  401bd0:	ab05      	add	r3, sp, #20
  401bd2:	9302      	str	r3, [sp, #8]
	packet.length      = 0x2;
  401bd4:	2302      	movs	r3, #2
  401bd6:	9303      	str	r3, [sp, #12]
	packet.chip        = WM8904_SLAVE_ADDRESS;
  401bd8:	231a      	movs	r3, #26
  401bda:	f88d 3010 	strb.w	r3, [sp, #16]

	twihs_master_read(WM8904_TWIHS, &packet);
  401bde:	4669      	mov	r1, sp
  401be0:	4805      	ldr	r0, [pc, #20]	; (401bf8 <wm8904_read_register+0x34>)
  401be2:	4b06      	ldr	r3, [pc, #24]	; (401bfc <wm8904_read_register+0x38>)
  401be4:	4798      	blx	r3
	us_data = (((uint16_t)uc_temp_data[0] << 8) & 0xff00) | uc_temp_data[1];
  401be6:	f89d 0014 	ldrb.w	r0, [sp, #20]
  401bea:	f89d 3015 	ldrb.w	r3, [sp, #21]

	return us_data;
}
  401bee:	ea43 2000 	orr.w	r0, r3, r0, lsl #8
  401bf2:	b007      	add	sp, #28
  401bf4:	f85d fb04 	ldr.w	pc, [sp], #4
  401bf8:	40018000 	.word	0x40018000
  401bfc:	00401e79 	.word	0x00401e79

00401c00 <wm8904_twi_init>:
 * \brief Initialize TWIHS connect to WM8904.
 *
 * \retun TWIHS_SUCCESS if initialization is complete, error code otherwise.
 */
uint32_t wm8904_twi_init(void)
{
  401c00:	b510      	push	{r4, lr}
  401c02:	b084      	sub	sp, #16
	pio_configure_pin(WM8904_TK_PIO, WM8904_TK_FLAGS);
  401c04:	f04f 5100 	mov.w	r1, #536870912	; 0x20000000
  401c08:	2021      	movs	r0, #33	; 0x21
  401c0a:	4c15      	ldr	r4, [pc, #84]	; (401c60 <wm8904_twi_init+0x60>)
  401c0c:	47a0      	blx	r4
	pio_configure_pin(WM8904_TF_PIO, WM8904_TF_FLAGS);
  401c0e:	f04f 5100 	mov.w	r1, #536870912	; 0x20000000
  401c12:	2020      	movs	r0, #32
  401c14:	47a0      	blx	r4
	pio_configure_pin(WM8904_TD_PIO, WM8904_TD_FLAGS);
  401c16:	f04f 5180 	mov.w	r1, #268435456	; 0x10000000
  401c1a:	207a      	movs	r0, #122	; 0x7a
  401c1c:	47a0      	blx	r4
	pio_configure_pin(WM8904_RK_PIO, WM8904_RK_FLAGS);
  401c1e:	f04f 6100 	mov.w	r1, #134217728	; 0x8000000
  401c22:	2016      	movs	r0, #22
  401c24:	47a0      	blx	r4
	pio_configure_pin(WM8904_RF_PIO, WM8904_RF_FLAGS);
  401c26:	f04f 5180 	mov.w	r1, #268435456	; 0x10000000
  401c2a:	2078      	movs	r0, #120	; 0x78
  401c2c:	47a0      	blx	r4
	pio_configure_pin(WM8904_RD_PIO, WM8904_RD_FLAGS);
  401c2e:	f04f 51c0 	mov.w	r1, #402653184	; 0x18000000
  401c32:	200a      	movs	r0, #10
  401c34:	47a0      	blx	r4
	pio_configure_pin(WM8904_PCK2_PIO, WM8904_PCK2_FLAGS);
  401c36:	f04f 5180 	mov.w	r1, #268435456	; 0x10000000
  401c3a:	2012      	movs	r0, #18
  401c3c:	47a0      	blx	r4

	twihs_options_t opt;
	opt.master_clk = sysclk_get_cpu_hz();
	opt.speed = WM8904_TWIHS_CLK;
  401c3e:	4b09      	ldr	r3, [pc, #36]	; (401c64 <wm8904_twi_init+0x64>)
  401c40:	9302      	str	r3, [sp, #8]
typedef twihs_packet_t twihs_package_t;

static inline uint32_t twihs_master_setup(twihs_master_t p_twihs,
		twihs_master_options_t *p_opt)
{
	p_opt->master_clk = sysclk_get_peripheral_hz();
  401c42:	4b09      	ldr	r3, [pc, #36]	; (401c68 <wm8904_twi_init+0x68>)
  401c44:	9301      	str	r3, [sp, #4]
	p_opt->smbus      = 0;
  401c46:	2300      	movs	r3, #0
  401c48:	f88d 300d 	strb.w	r3, [sp, #13]
  401c4c:	2013      	movs	r0, #19
  401c4e:	4b07      	ldr	r3, [pc, #28]	; (401c6c <wm8904_twi_init+0x6c>)
  401c50:	4798      	blx	r3
#endif		
	} else {
		// Do Nothing
	}
#endif
	return (twihs_master_init(p_twihs, p_opt));
  401c52:	a901      	add	r1, sp, #4
  401c54:	4806      	ldr	r0, [pc, #24]	; (401c70 <wm8904_twi_init+0x70>)
  401c56:	4b07      	ldr	r3, [pc, #28]	; (401c74 <wm8904_twi_init+0x74>)
  401c58:	4798      	blx	r3
	return twihs_master_setup(WM8904_TWIHS, &opt);
}
  401c5a:	b004      	add	sp, #16
  401c5c:	bd10      	pop	{r4, pc}
  401c5e:	bf00      	nop
  401c60:	00402371 	.word	0x00402371
  401c64:	00061a80 	.word	0x00061a80
  401c68:	07270e00 	.word	0x07270e00
  401c6c:	00402675 	.word	0x00402675
  401c70:	40018000 	.word	0x40018000
  401c74:	00401e45 	.word	0x00401e45

00401c78 <ssc_reset>:
 *
 * \param p_ssc Pointer to an SSC instance.
 */
void ssc_reset(Ssc *p_ssc)
{
	p_ssc->SSC_CR = SSC_CR_SWRST;
  401c78:	f44f 4300 	mov.w	r3, #32768	; 0x8000
  401c7c:	6003      	str	r3, [r0, #0]
	p_ssc->SSC_CMR = 0;
  401c7e:	2300      	movs	r3, #0
  401c80:	6043      	str	r3, [r0, #4]
	p_ssc->SSC_RCMR = 0;
  401c82:	6103      	str	r3, [r0, #16]
	p_ssc->SSC_RFMR = 0;
  401c84:	6143      	str	r3, [r0, #20]
	p_ssc->SSC_TCMR = 0;
  401c86:	6183      	str	r3, [r0, #24]
	p_ssc->SSC_TFMR = 0;
  401c88:	61c3      	str	r3, [r0, #28]
  401c8a:	4770      	bx	lr

00401c8c <ssc_enable_rx>:
 *
 * \param p_ssc Pointer to an SSC instance.
 */
void ssc_enable_rx(Ssc *p_ssc)
{
	p_ssc->SSC_CR = SSC_CR_RXEN;
  401c8c:	2301      	movs	r3, #1
  401c8e:	6003      	str	r3, [r0, #0]
  401c90:	4770      	bx	lr

00401c92 <ssc_disable_rx>:
 *
 * \param p_ssc Pointer to an SSC instance.
 */
void ssc_disable_rx(Ssc *p_ssc)
{
	p_ssc->SSC_CR = SSC_CR_RXDIS;
  401c92:	2302      	movs	r3, #2
  401c94:	6003      	str	r3, [r0, #0]
  401c96:	4770      	bx	lr

00401c98 <ssc_enable_tx>:
 *
 * \param p_ssc Pointer to an SSC instance.
 */
void ssc_enable_tx(Ssc *p_ssc)
{
	p_ssc->SSC_CR = SSC_CR_TXEN;
  401c98:	f44f 7380 	mov.w	r3, #256	; 0x100
  401c9c:	6003      	str	r3, [r0, #0]
  401c9e:	4770      	bx	lr

00401ca0 <ssc_disable_tx>:
 *
 * \param p_ssc Pointer to an SSC instance.
 */
void ssc_disable_tx(Ssc *p_ssc)
{
	p_ssc->SSC_CR = SSC_CR_TXDIS;
  401ca0:	f44f 7300 	mov.w	r3, #512	; 0x200
  401ca4:	6003      	str	r3, [r0, #0]
  401ca6:	4770      	bx	lr

00401ca8 <ssc_set_receiver>:
 * \param p_rx_clk_opt Pointer to the receiver clock configuration structure.
 * \param p_rx_data_frame Pointer to the receiver data frame configuration structure.
 */
void ssc_set_receiver(Ssc *p_ssc, clock_opt_t *p_rx_clk_opt,
		data_frame_opt_t *p_rx_data_frame)
{
  401ca8:	b430      	push	{r4, r5}
	if (p_rx_clk_opt == NULL) {
  401caa:	2900      	cmp	r1, #0
  401cac:	d030      	beq.n	401d10 <ssc_set_receiver+0x68>
  401cae:	460c      	mov	r4, r1
		p_ssc->SSC_RCMR = 0;
	} else {
		p_ssc->SSC_RCMR |= p_rx_clk_opt->ul_cks |
  401cb0:	6901      	ldr	r1, [r0, #16]
  401cb2:	6823      	ldr	r3, [r4, #0]
  401cb4:	6865      	ldr	r5, [r4, #4]
  401cb6:	432b      	orrs	r3, r5
  401cb8:	430b      	orrs	r3, r1
  401cba:	68a1      	ldr	r1, [r4, #8]
  401cbc:	430b      	orrs	r3, r1
  401cbe:	68e1      	ldr	r1, [r4, #12]
  401cc0:	430b      	orrs	r3, r1
  401cc2:	69a1      	ldr	r1, [r4, #24]
  401cc4:	430b      	orrs	r3, r1
				p_rx_clk_opt->ul_cko | p_rx_clk_opt->ul_cki |
				p_rx_clk_opt->ul_ckg |
				p_rx_clk_opt->ul_start_sel |
				SSC_RCMR_PERIOD(p_rx_clk_opt->ul_period) |
  401cc6:	6921      	ldr	r1, [r4, #16]
		p_ssc->SSC_RCMR |= p_rx_clk_opt->ul_cks |
  401cc8:	ea43 6301 	orr.w	r3, r3, r1, lsl #24
				SSC_RCMR_STTDLY(p_rx_clk_opt->ul_sttdly);
  401ccc:	6961      	ldr	r1, [r4, #20]
  401cce:	0409      	lsls	r1, r1, #16
  401cd0:	f401 017f 	and.w	r1, r1, #16711680	; 0xff0000
		p_ssc->SSC_RCMR |= p_rx_clk_opt->ul_cks |
  401cd4:	430b      	orrs	r3, r1
  401cd6:	6103      	str	r3, [r0, #16]
	}

	if (p_rx_data_frame == NULL) {
  401cd8:	b1ea      	cbz	r2, 401d16 <ssc_set_receiver+0x6e>
		p_ssc->SSC_RFMR = 0;
	} else {
		p_ssc->SSC_RFMR |= SSC_RFMR_DATLEN(p_rx_data_frame->ul_datlen) |
  401cda:	6941      	ldr	r1, [r0, #20]
  401cdc:	6853      	ldr	r3, [r2, #4]
  401cde:	6954      	ldr	r4, [r2, #20]
  401ce0:	4323      	orrs	r3, r4
  401ce2:	6994      	ldr	r4, [r2, #24]
  401ce4:	4323      	orrs	r3, r4
  401ce6:	430b      	orrs	r3, r1
  401ce8:	6811      	ldr	r1, [r2, #0]
  401cea:	f001 011f 	and.w	r1, r1, #31
  401cee:	430b      	orrs	r3, r1
				p_rx_data_frame->ul_msbf |
				SSC_RFMR_DATNB(p_rx_data_frame->ul_datnb) |
				SSC_RFMR_FSLEN(p_rx_data_frame->ul_fslen) |
				SSC_RFMR_FSLEN_EXT(p_rx_data_frame->ul_fslen_ext) |
  401cf0:	6911      	ldr	r1, [r2, #16]
		p_ssc->SSC_RFMR |= SSC_RFMR_DATLEN(p_rx_data_frame->ul_datlen) |
  401cf2:	ea43 7301 	orr.w	r3, r3, r1, lsl #28
				SSC_RFMR_DATNB(p_rx_data_frame->ul_datnb) |
  401cf6:	6891      	ldr	r1, [r2, #8]
  401cf8:	0209      	lsls	r1, r1, #8
  401cfa:	f401 6170 	and.w	r1, r1, #3840	; 0xf00
		p_ssc->SSC_RFMR |= SSC_RFMR_DATLEN(p_rx_data_frame->ul_datlen) |
  401cfe:	430b      	orrs	r3, r1
				SSC_RFMR_FSLEN(p_rx_data_frame->ul_fslen) |
  401d00:	68d2      	ldr	r2, [r2, #12]
  401d02:	0412      	lsls	r2, r2, #16
  401d04:	f402 2270 	and.w	r2, r2, #983040	; 0xf0000
		p_ssc->SSC_RFMR |= SSC_RFMR_DATLEN(p_rx_data_frame->ul_datlen) |
  401d08:	4313      	orrs	r3, r2
  401d0a:	6143      	str	r3, [r0, #20]
				p_rx_data_frame->ul_fsos |
				p_rx_data_frame->ul_fsedge;
	}
}
  401d0c:	bc30      	pop	{r4, r5}
  401d0e:	4770      	bx	lr
		p_ssc->SSC_RCMR = 0;
  401d10:	2300      	movs	r3, #0
  401d12:	6103      	str	r3, [r0, #16]
  401d14:	e7e0      	b.n	401cd8 <ssc_set_receiver+0x30>
		p_ssc->SSC_RFMR = 0;
  401d16:	2300      	movs	r3, #0
  401d18:	6143      	str	r3, [r0, #20]
  401d1a:	e7f7      	b.n	401d0c <ssc_set_receiver+0x64>

00401d1c <ssc_set_transmitter>:
 * \param p_tx_clk_opt Pointer to the transmitter clock configuration structure.
 * \param p_tx_data_frame Pointer to the transmitter data frame configuration structure.
 */
void ssc_set_transmitter(Ssc *p_ssc, clock_opt_t *p_tx_clk_opt,
		data_frame_opt_t *p_tx_data_frame)
{
  401d1c:	b430      	push	{r4, r5}
	if (p_tx_clk_opt == NULL) {
  401d1e:	2900      	cmp	r1, #0
  401d20:	d030      	beq.n	401d84 <ssc_set_transmitter+0x68>
  401d22:	460c      	mov	r4, r1
		p_ssc->SSC_TCMR = 0;
	} else {
		p_ssc->SSC_TCMR |= p_tx_clk_opt->ul_cks |
  401d24:	6981      	ldr	r1, [r0, #24]
  401d26:	6823      	ldr	r3, [r4, #0]
  401d28:	6865      	ldr	r5, [r4, #4]
  401d2a:	432b      	orrs	r3, r5
  401d2c:	430b      	orrs	r3, r1
  401d2e:	68a1      	ldr	r1, [r4, #8]
  401d30:	430b      	orrs	r3, r1
  401d32:	68e1      	ldr	r1, [r4, #12]
  401d34:	430b      	orrs	r3, r1
  401d36:	69a1      	ldr	r1, [r4, #24]
  401d38:	430b      	orrs	r3, r1
				p_tx_clk_opt->ul_cko | p_tx_clk_opt->ul_cki |
				p_tx_clk_opt->ul_ckg |
				p_tx_clk_opt->ul_start_sel |
				SSC_TCMR_PERIOD(p_tx_clk_opt->ul_period) |
  401d3a:	6921      	ldr	r1, [r4, #16]
		p_ssc->SSC_TCMR |= p_tx_clk_opt->ul_cks |
  401d3c:	ea43 6301 	orr.w	r3, r3, r1, lsl #24
				SSC_TCMR_STTDLY(p_tx_clk_opt->ul_sttdly);
  401d40:	6961      	ldr	r1, [r4, #20]
  401d42:	0409      	lsls	r1, r1, #16
  401d44:	f401 017f 	and.w	r1, r1, #16711680	; 0xff0000
		p_ssc->SSC_TCMR |= p_tx_clk_opt->ul_cks |
  401d48:	430b      	orrs	r3, r1
  401d4a:	6183      	str	r3, [r0, #24]
	}

	if (p_tx_data_frame == NULL) {
  401d4c:	b1ea      	cbz	r2, 401d8a <ssc_set_transmitter+0x6e>
		p_ssc->SSC_TFMR = 0;
	} else {
		p_ssc->SSC_TFMR |= SSC_RFMR_DATLEN(p_tx_data_frame->ul_datlen) |
  401d4e:	69c1      	ldr	r1, [r0, #28]
  401d50:	6853      	ldr	r3, [r2, #4]
  401d52:	6954      	ldr	r4, [r2, #20]
  401d54:	4323      	orrs	r3, r4
  401d56:	6994      	ldr	r4, [r2, #24]
  401d58:	4323      	orrs	r3, r4
  401d5a:	430b      	orrs	r3, r1
  401d5c:	6811      	ldr	r1, [r2, #0]
  401d5e:	f001 011f 	and.w	r1, r1, #31
  401d62:	430b      	orrs	r3, r1
				p_tx_data_frame->ul_msbf |
				SSC_TFMR_DATNB(p_tx_data_frame->ul_datnb) |
				SSC_TFMR_FSLEN(p_tx_data_frame->ul_fslen) |
				SSC_TFMR_FSLEN_EXT(p_tx_data_frame->ul_fslen_ext) |
  401d64:	6911      	ldr	r1, [r2, #16]
		p_ssc->SSC_TFMR |= SSC_RFMR_DATLEN(p_tx_data_frame->ul_datlen) |
  401d66:	ea43 7301 	orr.w	r3, r3, r1, lsl #28
				SSC_TFMR_DATNB(p_tx_data_frame->ul_datnb) |
  401d6a:	6891      	ldr	r1, [r2, #8]
  401d6c:	0209      	lsls	r1, r1, #8
  401d6e:	f401 6170 	and.w	r1, r1, #3840	; 0xf00
		p_ssc->SSC_TFMR |= SSC_RFMR_DATLEN(p_tx_data_frame->ul_datlen) |
  401d72:	430b      	orrs	r3, r1
				SSC_TFMR_FSLEN(p_tx_data_frame->ul_fslen) |
  401d74:	68d2      	ldr	r2, [r2, #12]
  401d76:	0412      	lsls	r2, r2, #16
  401d78:	f402 2270 	and.w	r2, r2, #983040	; 0xf0000
		p_ssc->SSC_TFMR |= SSC_RFMR_DATLEN(p_tx_data_frame->ul_datlen) |
  401d7c:	4313      	orrs	r3, r2
  401d7e:	61c3      	str	r3, [r0, #28]
				p_tx_data_frame->ul_fsos |
				p_tx_data_frame->ul_fsedge;
	}
}
  401d80:	bc30      	pop	{r4, r5}
  401d82:	4770      	bx	lr
		p_ssc->SSC_TCMR = 0;
  401d84:	2300      	movs	r3, #0
  401d86:	6183      	str	r3, [r0, #24]
  401d88:	e7e0      	b.n	401d4c <ssc_set_transmitter+0x30>
		p_ssc->SSC_TFMR = 0;
  401d8a:	2300      	movs	r3, #0
  401d8c:	61c3      	str	r3, [r0, #28]
  401d8e:	e7f7      	b.n	401d80 <ssc_set_transmitter+0x64>

00401d90 <ssc_disable_interrupt>:
 * \param p_ssc Pointer to an SSC instance.
 * \param ul_sources Interrupts to be enabled.
 */
void ssc_disable_interrupt(Ssc *p_ssc, uint32_t ul_sources)
{
	p_ssc->SSC_IDR = ul_sources;
  401d90:	6481      	str	r1, [r0, #72]	; 0x48
  401d92:	4770      	bx	lr

00401d94 <twihs_set_speed>:
	uint32_t ckdiv = 0;
	uint32_t c_lh_div;
	uint32_t cldiv, chdiv;

	/* High-Speed can be only used in slave mode, 400k is the max speed allowed for master */
	if (ul_speed > I2C_FAST_MODE_SPEED) {
  401d94:	4b28      	ldr	r3, [pc, #160]	; (401e38 <twihs_set_speed+0xa4>)
  401d96:	4299      	cmp	r1, r3
  401d98:	d84b      	bhi.n	401e32 <twihs_set_speed+0x9e>
		return FAIL;
	}

	/* Low level time not less than 1.3us of I2C Fast Mode. */
	if (ul_speed > LOW_LEVEL_TIME_LIMIT) {
  401d9a:	f5a3 537a 	sub.w	r3, r3, #16000	; 0x3e80
  401d9e:	4299      	cmp	r1, r3
  401da0:	d92d      	bls.n	401dfe <twihs_set_speed+0x6a>
{
  401da2:	b410      	push	{r4}
		/* Low level of time fixed for 1.3us. */
		cldiv = ul_mck / (LOW_LEVEL_TIME_LIMIT * TWIHS_CLK_DIVIDER) - TWIHS_CLK_CALC_ARGU;
  401da4:	4c25      	ldr	r4, [pc, #148]	; (401e3c <twihs_set_speed+0xa8>)
  401da6:	fba4 3402 	umull	r3, r4, r4, r2
  401daa:	0ba4      	lsrs	r4, r4, #14
  401dac:	3c03      	subs	r4, #3
		chdiv = ul_mck / ((ul_speed + (ul_speed - LOW_LEVEL_TIME_LIMIT)) * TWIHS_CLK_DIVIDER) - TWIHS_CLK_CALC_ARGU;
  401dae:	4b24      	ldr	r3, [pc, #144]	; (401e40 <twihs_set_speed+0xac>)
  401db0:	440b      	add	r3, r1
  401db2:	009b      	lsls	r3, r3, #2
  401db4:	fbb2 f2f3 	udiv	r2, r2, r3
  401db8:	3a03      	subs	r2, #3
		
		/* cldiv must fit in 8 bits, ckdiv must fit in 3 bits */
		while ((cldiv > TWIHS_CLK_DIV_MAX) && (ckdiv < TWIHS_CLK_DIV_MIN)) {
  401dba:	2cff      	cmp	r4, #255	; 0xff
  401dbc:	d91d      	bls.n	401dfa <twihs_set_speed+0x66>
  401dbe:	2100      	movs	r1, #0
			/* Increase clock divider */
			ckdiv++;
  401dc0:	3101      	adds	r1, #1
			/* Divide cldiv value */
			cldiv /= TWIHS_CLK_DIVIDER;
  401dc2:	0864      	lsrs	r4, r4, #1
		while ((cldiv > TWIHS_CLK_DIV_MAX) && (ckdiv < TWIHS_CLK_DIV_MIN)) {
  401dc4:	2cff      	cmp	r4, #255	; 0xff
  401dc6:	d901      	bls.n	401dcc <twihs_set_speed+0x38>
  401dc8:	2906      	cmp	r1, #6
  401dca:	d9f9      	bls.n	401dc0 <twihs_set_speed+0x2c>
		}
		/* chdiv must fit in 8 bits, ckdiv must fit in 3 bits */
		while ((chdiv > TWIHS_CLK_DIV_MAX) && (ckdiv < TWIHS_CLK_DIV_MIN)) {
  401dcc:	2aff      	cmp	r2, #255	; 0xff
  401dce:	d907      	bls.n	401de0 <twihs_set_speed+0x4c>
  401dd0:	2906      	cmp	r1, #6
  401dd2:	d805      	bhi.n	401de0 <twihs_set_speed+0x4c>
			/* Increase clock divider */
			ckdiv++;
  401dd4:	3101      	adds	r1, #1
			/* Divide cldiv value */
			chdiv /= TWIHS_CLK_DIVIDER;
  401dd6:	0852      	lsrs	r2, r2, #1
		while ((chdiv > TWIHS_CLK_DIV_MAX) && (ckdiv < TWIHS_CLK_DIV_MIN)) {
  401dd8:	2aff      	cmp	r2, #255	; 0xff
  401dda:	d901      	bls.n	401de0 <twihs_set_speed+0x4c>
  401ddc:	2906      	cmp	r1, #6
  401dde:	d9f9      	bls.n	401dd4 <twihs_set_speed+0x40>
		}

		/* set clock waveform generator register */
		p_twihs->TWIHS_CWGR =
				TWIHS_CWGR_CLDIV(cldiv) | TWIHS_CWGR_CHDIV(chdiv) |
  401de0:	0213      	lsls	r3, r2, #8
  401de2:	b29b      	uxth	r3, r3
				TWIHS_CWGR_CKDIV(ckdiv);
  401de4:	0409      	lsls	r1, r1, #16
  401de6:	f401 21e0 	and.w	r1, r1, #458752	; 0x70000
				TWIHS_CWGR_CLDIV(cldiv) | TWIHS_CWGR_CHDIV(chdiv) |
  401dea:	430b      	orrs	r3, r1
  401dec:	b2e4      	uxtb	r4, r4
  401dee:	4323      	orrs	r3, r4
		p_twihs->TWIHS_CWGR =
  401df0:	6103      	str	r3, [r0, #16]
		p_twihs->TWIHS_CWGR =
				TWIHS_CWGR_CLDIV(c_lh_div) | TWIHS_CWGR_CHDIV(c_lh_div) |
				TWIHS_CWGR_CKDIV(ckdiv);
	}

	return PASS;
  401df2:	2000      	movs	r0, #0
}
  401df4:	f85d 4b04 	ldr.w	r4, [sp], #4
  401df8:	4770      	bx	lr
	uint32_t ckdiv = 0;
  401dfa:	2100      	movs	r1, #0
  401dfc:	e7e6      	b.n	401dcc <twihs_set_speed+0x38>
		c_lh_div = ul_mck / (ul_speed * TWIHS_CLK_DIVIDER) - TWIHS_CLK_CALC_ARGU;
  401dfe:	0049      	lsls	r1, r1, #1
  401e00:	fbb2 f2f1 	udiv	r2, r2, r1
  401e04:	3a03      	subs	r2, #3
		while ((c_lh_div > TWIHS_CLK_DIV_MAX) && (ckdiv < TWIHS_CLK_DIV_MIN)) {
  401e06:	2aff      	cmp	r2, #255	; 0xff
  401e08:	d911      	bls.n	401e2e <twihs_set_speed+0x9a>
  401e0a:	2300      	movs	r3, #0
			ckdiv++;
  401e0c:	3301      	adds	r3, #1
			c_lh_div /= TWIHS_CLK_DIVIDER;
  401e0e:	0852      	lsrs	r2, r2, #1
		while ((c_lh_div > TWIHS_CLK_DIV_MAX) && (ckdiv < TWIHS_CLK_DIV_MIN)) {
  401e10:	2aff      	cmp	r2, #255	; 0xff
  401e12:	d901      	bls.n	401e18 <twihs_set_speed+0x84>
  401e14:	2b06      	cmp	r3, #6
  401e16:	d9f9      	bls.n	401e0c <twihs_set_speed+0x78>
				TWIHS_CWGR_CLDIV(c_lh_div) | TWIHS_CWGR_CHDIV(c_lh_div) |
  401e18:	0211      	lsls	r1, r2, #8
  401e1a:	b289      	uxth	r1, r1
				TWIHS_CWGR_CKDIV(ckdiv);
  401e1c:	041b      	lsls	r3, r3, #16
  401e1e:	f403 23e0 	and.w	r3, r3, #458752	; 0x70000
				TWIHS_CWGR_CLDIV(c_lh_div) | TWIHS_CWGR_CHDIV(c_lh_div) |
  401e22:	430b      	orrs	r3, r1
  401e24:	b2d2      	uxtb	r2, r2
  401e26:	431a      	orrs	r2, r3
		p_twihs->TWIHS_CWGR =
  401e28:	6102      	str	r2, [r0, #16]
	return PASS;
  401e2a:	2000      	movs	r0, #0
  401e2c:	4770      	bx	lr
	uint32_t ckdiv = 0;
  401e2e:	2300      	movs	r3, #0
  401e30:	e7f2      	b.n	401e18 <twihs_set_speed+0x84>
		return FAIL;
  401e32:	2001      	movs	r0, #1
  401e34:	4770      	bx	lr
  401e36:	bf00      	nop
  401e38:	00061a80 	.word	0x00061a80
  401e3c:	057619f1 	.word	0x057619f1
  401e40:	3ffd1200 	.word	0x3ffd1200

00401e44 <twihs_master_init>:
{
  401e44:	b508      	push	{r3, lr}
	p_twihs->TWIHS_IDR = ~0UL;
  401e46:	f04f 32ff 	mov.w	r2, #4294967295
  401e4a:	6282      	str	r2, [r0, #40]	; 0x28
	p_twihs->TWIHS_SR;
  401e4c:	6a02      	ldr	r2, [r0, #32]
 * \param p_twihs Pointer to a TWIHS instance.
 */
void twihs_reset(Twihs *p_twihs)
{
	/* Set SWRST bit to reset TWIHS peripheral */
	p_twihs->TWIHS_CR = TWIHS_CR_SWRST;
  401e4e:	2280      	movs	r2, #128	; 0x80
  401e50:	6002      	str	r2, [r0, #0]
	p_twihs->TWIHS_RHR;
  401e52:	6b02      	ldr	r2, [r0, #48]	; 0x30
	p_twihs->TWIHS_CR = TWIHS_CR_MSDIS;
  401e54:	2208      	movs	r2, #8
  401e56:	6002      	str	r2, [r0, #0]
	p_twihs->TWIHS_CR = TWIHS_CR_SVDIS;
  401e58:	2220      	movs	r2, #32
  401e5a:	6002      	str	r2, [r0, #0]
	p_twihs->TWIHS_CR = TWIHS_CR_MSEN;
  401e5c:	2204      	movs	r2, #4
  401e5e:	6002      	str	r2, [r0, #0]
	if (twihs_set_speed(p_twihs, p_opt->speed, p_opt->master_clk) == FAIL) {
  401e60:	680a      	ldr	r2, [r1, #0]
  401e62:	6849      	ldr	r1, [r1, #4]
  401e64:	4b03      	ldr	r3, [pc, #12]	; (401e74 <twihs_master_init+0x30>)
  401e66:	4798      	blx	r3
}
  401e68:	2801      	cmp	r0, #1
  401e6a:	bf14      	ite	ne
  401e6c:	2000      	movne	r0, #0
  401e6e:	2001      	moveq	r0, #1
  401e70:	bd08      	pop	{r3, pc}
  401e72:	bf00      	nop
  401e74:	00401d95 	.word	0x00401d95

00401e78 <twihs_master_read>:
	uint32_t status, cnt = p_packet->length;
  401e78:	68ca      	ldr	r2, [r1, #12]
	if (cnt == 0) {
  401e7a:	2a00      	cmp	r2, #0
  401e7c:	d04c      	beq.n	401f18 <twihs_master_read+0xa0>
{
  401e7e:	b470      	push	{r4, r5, r6}
	uint8_t *buffer = p_packet->buffer;
  401e80:	688c      	ldr	r4, [r1, #8]
	p_twihs->TWIHS_MMR = 0;
  401e82:	2600      	movs	r6, #0
  401e84:	6046      	str	r6, [r0, #4]
			((p_packet->addr_length << TWIHS_MMR_IADRSZ_Pos) &
  401e86:	684b      	ldr	r3, [r1, #4]
  401e88:	021b      	lsls	r3, r3, #8
  401e8a:	f403 7340 	and.w	r3, r3, #768	; 0x300
	p_twihs->TWIHS_MMR = TWIHS_MMR_MREAD | TWIHS_MMR_DADR(p_packet->chip) |
  401e8e:	f443 5380 	orr.w	r3, r3, #4096	; 0x1000
  401e92:	7c0d      	ldrb	r5, [r1, #16]
  401e94:	042d      	lsls	r5, r5, #16
  401e96:	f405 05fe 	and.w	r5, r5, #8323072	; 0x7f0000
  401e9a:	432b      	orrs	r3, r5
  401e9c:	6043      	str	r3, [r0, #4]
	p_twihs->TWIHS_IADR = 0;
  401e9e:	60c6      	str	r6, [r0, #12]
	p_twihs->TWIHS_IADR = twihs_mk_addr(p_packet->addr, p_packet->addr_length);
  401ea0:	684d      	ldr	r5, [r1, #4]
	if (len == 0)
  401ea2:	b15d      	cbz	r5, 401ebc <twihs_master_read+0x44>
	val = addr[0];
  401ea4:	780b      	ldrb	r3, [r1, #0]
	if (len > 1) {
  401ea6:	2d01      	cmp	r5, #1
  401ea8:	dd02      	ble.n	401eb0 <twihs_master_read+0x38>
		val |= addr[1];
  401eaa:	784e      	ldrb	r6, [r1, #1]
  401eac:	ea46 2303 	orr.w	r3, r6, r3, lsl #8
	if (len > 2) {
  401eb0:	2d02      	cmp	r5, #2
  401eb2:	dd04      	ble.n	401ebe <twihs_master_read+0x46>
		val |= addr[2];
  401eb4:	7889      	ldrb	r1, [r1, #2]
  401eb6:	ea41 2303 	orr.w	r3, r1, r3, lsl #8
  401eba:	e000      	b.n	401ebe <twihs_master_read+0x46>
		return 0;
  401ebc:	2300      	movs	r3, #0
	p_twihs->TWIHS_IADR = twihs_mk_addr(p_packet->addr, p_packet->addr_length);
  401ebe:	60c3      	str	r3, [r0, #12]
	p_twihs->TWIHS_CR = TWIHS_CR_START;
  401ec0:	2301      	movs	r3, #1
  401ec2:	6003      	str	r3, [r0, #0]
			p_twihs->TWIHS_CR = TWIHS_CR_STOP;
  401ec4:	2502      	movs	r5, #2
  401ec6:	e012      	b.n	401eee <twihs_master_read+0x76>
  401ec8:	6005      	str	r5, [r0, #0]
		if (!(status & TWIHS_SR_RXRDY)) {
  401eca:	f013 0f02 	tst.w	r3, #2
  401ece:	d01b      	beq.n	401f08 <twihs_master_read+0x90>
		*buffer++ = p_twihs->TWIHS_RHR;
  401ed0:	6b03      	ldr	r3, [r0, #48]	; 0x30
  401ed2:	7023      	strb	r3, [r4, #0]
	while (!(p_twihs->TWIHS_SR & TWIHS_SR_TXCOMP)) {
  401ed4:	6a03      	ldr	r3, [r0, #32]
  401ed6:	f013 0f01 	tst.w	r3, #1
  401eda:	d0fb      	beq.n	401ed4 <twihs_master_read+0x5c>
	p_twihs->TWIHS_SR;
  401edc:	6a03      	ldr	r3, [r0, #32]
	return TWIHS_SUCCESS;
  401ede:	2000      	movs	r0, #0
}
  401ee0:	bc70      	pop	{r4, r5, r6}
  401ee2:	4770      	bx	lr
		*buffer++ = p_twihs->TWIHS_RHR;
  401ee4:	6b03      	ldr	r3, [r0, #48]	; 0x30
  401ee6:	f804 3b01 	strb.w	r3, [r4], #1
	while (cnt > 0) {
  401eea:	3a01      	subs	r2, #1
  401eec:	d0f2      	beq.n	401ed4 <twihs_master_read+0x5c>
		status = p_twihs->TWIHS_SR;
  401eee:	6a03      	ldr	r3, [r0, #32]
		if (status & TWIHS_SR_NACK) {
  401ef0:	f413 7f80 	tst.w	r3, #256	; 0x100
  401ef4:	d114      	bne.n	401f20 <twihs_master_read+0xa8>
  401ef6:	f247 5130 	movw	r1, #30000	; 0x7530
		if (cnt == 1) {
  401efa:	2a01      	cmp	r2, #1
  401efc:	d0e4      	beq.n	401ec8 <twihs_master_read+0x50>
		if (!(status & TWIHS_SR_RXRDY)) {
  401efe:	f013 0f02 	tst.w	r3, #2
  401f02:	d1ef      	bne.n	401ee4 <twihs_master_read+0x6c>
	while (cnt > 0) {
  401f04:	2a00      	cmp	r2, #0
  401f06:	d0e5      	beq.n	401ed4 <twihs_master_read+0x5c>
		status = p_twihs->TWIHS_SR;
  401f08:	6a03      	ldr	r3, [r0, #32]
		if (status & TWIHS_SR_NACK) {
  401f0a:	f413 7f80 	tst.w	r3, #256	; 0x100
  401f0e:	d105      	bne.n	401f1c <twihs_master_read+0xa4>
		if (!timeout--) {
  401f10:	3901      	subs	r1, #1
  401f12:	d1f2      	bne.n	401efa <twihs_master_read+0x82>
			return TWIHS_ERROR_TIMEOUT;
  401f14:	2009      	movs	r0, #9
  401f16:	e7e3      	b.n	401ee0 <twihs_master_read+0x68>
		return TWIHS_INVALID_ARGUMENT;
  401f18:	2001      	movs	r0, #1
  401f1a:	4770      	bx	lr
			return TWIHS_RECEIVE_NACK;
  401f1c:	2005      	movs	r0, #5
  401f1e:	e7df      	b.n	401ee0 <twihs_master_read+0x68>
  401f20:	2005      	movs	r0, #5
  401f22:	e7dd      	b.n	401ee0 <twihs_master_read+0x68>

00401f24 <twihs_master_write>:
	uint32_t status, cnt = p_packet->length;
  401f24:	68cb      	ldr	r3, [r1, #12]
	if (cnt == 0) {
  401f26:	2b00      	cmp	r3, #0
  401f28:	d043      	beq.n	401fb2 <twihs_master_write+0x8e>
{
  401f2a:	b470      	push	{r4, r5, r6}
	uint8_t *buffer = p_packet->buffer;
  401f2c:	688c      	ldr	r4, [r1, #8]
	p_twihs->TWIHS_MMR = 0;
  401f2e:	2600      	movs	r6, #0
  401f30:	6046      	str	r6, [r0, #4]
	p_twihs->TWIHS_MMR = TWIHS_MMR_DADR(p_packet->chip) |
  401f32:	7c0a      	ldrb	r2, [r1, #16]
  401f34:	0412      	lsls	r2, r2, #16
  401f36:	f402 02fe 	and.w	r2, r2, #8323072	; 0x7f0000
			((p_packet->addr_length << TWIHS_MMR_IADRSZ_Pos) &
  401f3a:	684d      	ldr	r5, [r1, #4]
  401f3c:	022d      	lsls	r5, r5, #8
  401f3e:	f405 7540 	and.w	r5, r5, #768	; 0x300
	p_twihs->TWIHS_MMR = TWIHS_MMR_DADR(p_packet->chip) |
  401f42:	432a      	orrs	r2, r5
  401f44:	6042      	str	r2, [r0, #4]
	p_twihs->TWIHS_IADR = 0;
  401f46:	60c6      	str	r6, [r0, #12]
	p_twihs->TWIHS_IADR = twihs_mk_addr(p_packet->addr, p_packet->addr_length);
  401f48:	684d      	ldr	r5, [r1, #4]
	if (len == 0)
  401f4a:	b15d      	cbz	r5, 401f64 <twihs_master_write+0x40>
	val = addr[0];
  401f4c:	780a      	ldrb	r2, [r1, #0]
	if (len > 1) {
  401f4e:	2d01      	cmp	r5, #1
  401f50:	dd02      	ble.n	401f58 <twihs_master_write+0x34>
		val |= addr[1];
  401f52:	784e      	ldrb	r6, [r1, #1]
  401f54:	ea46 2202 	orr.w	r2, r6, r2, lsl #8
	if (len > 2) {
  401f58:	2d02      	cmp	r5, #2
  401f5a:	dd04      	ble.n	401f66 <twihs_master_write+0x42>
		val |= addr[2];
  401f5c:	7889      	ldrb	r1, [r1, #2]
  401f5e:	ea41 2202 	orr.w	r2, r1, r2, lsl #8
  401f62:	e000      	b.n	401f66 <twihs_master_write+0x42>
		return 0;
  401f64:	2200      	movs	r2, #0
	p_twihs->TWIHS_IADR = twihs_mk_addr(p_packet->addr, p_packet->addr_length);
  401f66:	60c2      	str	r2, [r0, #12]
  401f68:	e004      	b.n	401f74 <twihs_master_write+0x50>
		p_twihs->TWIHS_THR = *buffer++;
  401f6a:	f814 2b01 	ldrb.w	r2, [r4], #1
  401f6e:	6342      	str	r2, [r0, #52]	; 0x34
	while (cnt > 0) {
  401f70:	3b01      	subs	r3, #1
  401f72:	d00f      	beq.n	401f94 <twihs_master_write+0x70>
		status = p_twihs->TWIHS_SR;
  401f74:	6a02      	ldr	r2, [r0, #32]
		if (status & TWIHS_SR_NACK) {
  401f76:	f412 7f80 	tst.w	r2, #256	; 0x100
  401f7a:	d11e      	bne.n	401fba <twihs_master_write+0x96>
		if (!(status & TWIHS_SR_TXRDY)) {
  401f7c:	f012 0f04 	tst.w	r2, #4
  401f80:	d1f3      	bne.n	401f6a <twihs_master_write+0x46>
		status = p_twihs->TWIHS_SR;
  401f82:	6a02      	ldr	r2, [r0, #32]
		if (status & TWIHS_SR_NACK) {
  401f84:	f412 7f80 	tst.w	r2, #256	; 0x100
  401f88:	d115      	bne.n	401fb6 <twihs_master_write+0x92>
		if (!(status & TWIHS_SR_TXRDY)) {
  401f8a:	f012 0f04 	tst.w	r2, #4
  401f8e:	d1ec      	bne.n	401f6a <twihs_master_write+0x46>
	while (cnt > 0) {
  401f90:	2b00      	cmp	r3, #0
  401f92:	d1f6      	bne.n	401f82 <twihs_master_write+0x5e>
		status = p_twihs->TWIHS_SR;
  401f94:	6a03      	ldr	r3, [r0, #32]
		if (status & TWIHS_SR_NACK) {
  401f96:	f413 7f80 	tst.w	r3, #256	; 0x100
  401f9a:	d111      	bne.n	401fc0 <twihs_master_write+0x9c>
		if (status & TWIHS_SR_TXRDY) {
  401f9c:	f013 0f04 	tst.w	r3, #4
  401fa0:	d0f8      	beq.n	401f94 <twihs_master_write+0x70>
	p_twihs->TWIHS_CR = TWIHS_CR_STOP;
  401fa2:	2302      	movs	r3, #2
  401fa4:	6003      	str	r3, [r0, #0]
	while (!(p_twihs->TWIHS_SR & TWIHS_SR_TXCOMP)) {
  401fa6:	6a03      	ldr	r3, [r0, #32]
  401fa8:	f013 0f01 	tst.w	r3, #1
  401fac:	d0fb      	beq.n	401fa6 <twihs_master_write+0x82>
	return TWIHS_SUCCESS;
  401fae:	2000      	movs	r0, #0
  401fb0:	e004      	b.n	401fbc <twihs_master_write+0x98>
		return TWIHS_INVALID_ARGUMENT;
  401fb2:	2001      	movs	r0, #1
  401fb4:	4770      	bx	lr
			return TWIHS_RECEIVE_NACK;
  401fb6:	2005      	movs	r0, #5
  401fb8:	e000      	b.n	401fbc <twihs_master_write+0x98>
  401fba:	2005      	movs	r0, #5
}
  401fbc:	bc70      	pop	{r4, r5, r6}
  401fbe:	4770      	bx	lr
			return TWIHS_RECEIVE_NACK;
  401fc0:	2005      	movs	r0, #5
  401fc2:	e7fb      	b.n	401fbc <twihs_master_write+0x98>

00401fc4 <uart_write>:
 * \retval 1 I/O Failure, UART is not ready.
 */
uint32_t uart_write(Uart *p_uart, const uint8_t uc_data)
{
	/* Check if the transmitter is ready */
	if (!(p_uart->UART_SR & UART_SR_TXRDY))
  401fc4:	6943      	ldr	r3, [r0, #20]
  401fc6:	f013 0f02 	tst.w	r3, #2
  401fca:	d002      	beq.n	401fd2 <uart_write+0xe>
		return 1;

	/* Send character */
	p_uart->UART_THR = uc_data;
  401fcc:	61c1      	str	r1, [r0, #28]
	return 0;
  401fce:	2000      	movs	r0, #0
  401fd0:	4770      	bx	lr
		return 1;
  401fd2:	2001      	movs	r0, #1
}
  401fd4:	4770      	bx	lr

00401fd6 <uart_read>:
 * \retval 1 I/O Failure, UART is not ready.
 */
uint32_t uart_read(Uart *p_uart, uint8_t *puc_data)
{
	/* Check if the receiver is ready */
	if ((p_uart->UART_SR & UART_SR_RXRDY) == 0)
  401fd6:	6943      	ldr	r3, [r0, #20]
  401fd8:	f013 0f01 	tst.w	r3, #1
  401fdc:	d003      	beq.n	401fe6 <uart_read+0x10>
		return 1;

	/* Read character */
	*puc_data = (uint8_t) p_uart->UART_RHR;
  401fde:	6983      	ldr	r3, [r0, #24]
  401fe0:	700b      	strb	r3, [r1, #0]
	return 0;
  401fe2:	2000      	movs	r0, #0
  401fe4:	4770      	bx	lr
		return 1;
  401fe6:	2001      	movs	r0, #1
}
  401fe8:	4770      	bx	lr

00401fea <xdmac_configure_transfer>:
	return xdmac->XDMAC_CHID[channel_num].XDMAC_CIS;
  401fea:	eb00 1181 	add.w	r1, r0, r1, lsl #6
  401fee:	6dcb      	ldr	r3, [r1, #92]	; 0x5c
	Assert(xdmac);
	Assert(channel_num < XDMACCHID_NUMBER);
	Assert(cfg);
	
	xdmac_channel_get_interrupt_status( xdmac, channel_num);
	xdmac_channel_set_source_addr(xdmac, channel_num, cfg->mbr_sa);
  401ff0:	6853      	ldr	r3, [r2, #4]
	xdmac->XDMAC_CHID[channel_num].XDMAC_CSA = src_addr;
  401ff2:	660b      	str	r3, [r1, #96]	; 0x60
	xdmac_channel_set_destination_addr(xdmac, channel_num, cfg->mbr_da);
  401ff4:	6893      	ldr	r3, [r2, #8]
	xdmac->XDMAC_CHID[channel_num].XDMAC_CDA = dst_addr;
  401ff6:	664b      	str	r3, [r1, #100]	; 0x64
 */
static inline void xdmac_channel_set_microblock_control(Xdmac *xdmac, uint32_t channel_num, uint32_t ublen)
{
	Assert(xdmac);
	Assert(channel_num < XDMACCHID_NUMBER);
	xdmac->XDMAC_CHID[channel_num].XDMAC_CUBC = XDMAC_CUBC_UBLEN(ublen);
  401ff8:	6813      	ldr	r3, [r2, #0]
  401ffa:	f023 437f 	bic.w	r3, r3, #4278190080	; 0xff000000
  401ffe:	670b      	str	r3, [r1, #112]	; 0x70
 */
static inline void xdmac_channel_set_block_control(Xdmac *xdmac, uint32_t channel_num, uint32_t blen)
{
	Assert(xdmac);
	Assert(channel_num < XDMACCHID_NUMBER);
	xdmac->XDMAC_CHID[channel_num].XDMAC_CBC = XDMAC_CBC_BLEN(blen);
  402000:	6913      	ldr	r3, [r2, #16]
  402002:	f3c3 030b 	ubfx	r3, r3, #0, #12
  402006:	674b      	str	r3, [r1, #116]	; 0x74
	xdmac_channel_set_microblock_control(xdmac, channel_num, cfg->mbr_ubc);
	xdmac_channel_set_block_control(xdmac, channel_num, cfg->mbr_bc);
	xdmac_channel_set_datastride_mempattern(xdmac, channel_num, cfg->mbr_ds);
  402008:	6953      	ldr	r3, [r2, #20]
 */
static inline void xdmac_channel_set_datastride_mempattern(Xdmac *xdmac, uint32_t channel_num, uint32_t dds_msp)
{
	Assert(xdmac);
	Assert(channel_num < XDMACCHID_NUMBER);
	xdmac->XDMAC_CHID[channel_num].XDMAC_CDS_MSP = dds_msp;
  40200a:	67cb      	str	r3, [r1, #124]	; 0x7c
static inline void xdmac_channel_set_source_microblock_stride(Xdmac *xdmac,
		uint32_t channel_num, uint32_t subs)
{
	Assert(xdmac);
	Assert(channel_num < XDMACCHID_NUMBER);
	xdmac->XDMAC_CHID[channel_num].XDMAC_CSUS = XDMAC_CSUS_SUBS(subs);
  40200c:	6993      	ldr	r3, [r2, #24]
  40200e:	f023 437f 	bic.w	r3, r3, #4278190080	; 0xff000000
  402012:	f8c1 3080 	str.w	r3, [r1, #128]	; 0x80
static inline void xdmac_channel_set_destination_microblock_stride(Xdmac *xdmac,
		uint32_t channel_num, uint32_t dubs)
{
	Assert(xdmac);
	Assert(channel_num < XDMACCHID_NUMBER);
	xdmac->XDMAC_CHID[channel_num].XDMAC_CDUS = XDMAC_CDUS_DUBS(dubs);
  402016:	69d3      	ldr	r3, [r2, #28]
  402018:	f023 437f 	bic.w	r3, r3, #4278190080	; 0xff000000
  40201c:	f8c1 3084 	str.w	r3, [r1, #132]	; 0x84
	xdmac_channel_set_source_microblock_stride(xdmac, channel_num, cfg->mbr_sus);
	xdmac_channel_set_destination_microblock_stride(xdmac, channel_num, cfg->mbr_dus);
	xdmac_channel_set_config(xdmac, channel_num, cfg->mbr_cfg );
  402020:	68d3      	ldr	r3, [r2, #12]
	xdmac->XDMAC_CHID[channel_num].XDMAC_CC = config;
  402022:	678b      	str	r3, [r1, #120]	; 0x78
  402024:	4770      	bx	lr
	...

00402028 <sysclk_init>:
	pmc_disable_udpck();
}
#endif // CONFIG_USBCLK_SOURCE

void sysclk_init(void)
{
  402028:	b510      	push	{r4, lr}
	struct pll_config pllcfg;

	/* Set flash wait state to max in case the below clock switching. */
	system_init_flash(CHIP_FREQ_CPU_MAX);
  40202a:	4810      	ldr	r0, [pc, #64]	; (40206c <sysclk_init+0x44>)
  40202c:	4b10      	ldr	r3, [pc, #64]	; (402070 <sysclk_init+0x48>)
  40202e:	4798      	blx	r3
		pmc_switch_mainck_to_fastrc(CKGR_MOR_MOSCRCF_12_MHz);
		break;


	case OSC_MAINCK_XTAL:
		pmc_switch_mainck_to_xtal(PMC_OSC_XTAL,
  402030:	213e      	movs	r1, #62	; 0x3e
  402032:	2000      	movs	r0, #0
  402034:	4b0f      	ldr	r3, [pc, #60]	; (402074 <sysclk_init+0x4c>)
  402036:	4798      	blx	r3
	case OSC_MAINCK_4M_RC:
	case OSC_MAINCK_8M_RC:
	case OSC_MAINCK_12M_RC:
	case OSC_MAINCK_XTAL:
	case OSC_MAINCK_BYPASS:
		return pmc_osc_is_ready_mainck();
  402038:	4c0f      	ldr	r4, [pc, #60]	; (402078 <sysclk_init+0x50>)
  40203a:	47a0      	blx	r4
 *
 * \param id A number identifying the oscillator to wait for.
 */
static inline void osc_wait_ready(uint8_t id)
{
	while (!osc_is_ready(id)) {
  40203c:	2800      	cmp	r0, #0
  40203e:	d0fc      	beq.n	40203a <sysclk_init+0x12>
static inline void pll_enable(const struct pll_config *p_cfg, uint32_t ul_pll_id)
{
	Assert(ul_pll_id < NR_PLLS);

	if (ul_pll_id == PLLA_ID) {
		pmc_disable_pllack(); // Always stop PLL first!
  402040:	4b0e      	ldr	r3, [pc, #56]	; (40207c <sysclk_init+0x54>)
  402042:	4798      	blx	r3
		PMC->CKGR_PLLAR = CKGR_PLLAR_ONE | p_cfg->ctrl;
  402044:	4a0e      	ldr	r2, [pc, #56]	; (402080 <sysclk_init+0x58>)
  402046:	4b0f      	ldr	r3, [pc, #60]	; (402084 <sysclk_init+0x5c>)
  402048:	629a      	str	r2, [r3, #40]	; 0x28
static inline uint32_t pll_is_locked(uint32_t ul_pll_id)
{
	Assert(ul_pll_id < NR_PLLS);

	if (ul_pll_id == PLLA_ID) {
	return pmc_is_locked_pllack();
  40204a:	4c0f      	ldr	r4, [pc, #60]	; (402088 <sysclk_init+0x60>)
  40204c:	47a0      	blx	r4
 */
static inline int pll_wait_for_lock(unsigned int pll_id)
{
	Assert(pll_id < NR_PLLS);

	while (!pll_is_locked(pll_id)) {
  40204e:	2800      	cmp	r0, #0
  402050:	d0fc      	beq.n	40204c <sysclk_init+0x24>
	else if (CONFIG_SYSCLK_SOURCE == SYSCLK_SRC_PLLACK) {
		pll_enable_source(CONFIG_PLL0_SOURCE);
		pll_config_defaults(&pllcfg, 0);
		pll_enable(&pllcfg, 0);
		pll_wait_for_lock(0);
		pmc_mck_set_division(CONFIG_SYSCLK_DIV);
  402052:	2002      	movs	r0, #2
  402054:	4b0d      	ldr	r3, [pc, #52]	; (40208c <sysclk_init+0x64>)
  402056:	4798      	blx	r3
		pmc_switch_mck_to_pllack(CONFIG_SYSCLK_PRES);
  402058:	2000      	movs	r0, #0
  40205a:	4b0d      	ldr	r3, [pc, #52]	; (402090 <sysclk_init+0x68>)
  40205c:	4798      	blx	r3
		pll_wait_for_lock(1);
		pmc_mck_set_division(CONFIG_SYSCLK_DIV);
		pmc_switch_mck_to_upllck(CONFIG_SYSCLK_PRES);
	}
	/* Update the SystemFrequency variable */
	SystemCoreClockUpdate();
  40205e:	4b0d      	ldr	r3, [pc, #52]	; (402094 <sysclk_init+0x6c>)
  402060:	4798      	blx	r3

	/* Set a flash wait state depending on the new cpu frequency */
	system_init_flash(sysclk_get_cpu_hz());
  402062:	480d      	ldr	r0, [pc, #52]	; (402098 <sysclk_init+0x70>)
  402064:	4b02      	ldr	r3, [pc, #8]	; (402070 <sysclk_init+0x48>)
  402066:	4798      	blx	r3
  402068:	bd10      	pop	{r4, pc}
  40206a:	bf00      	nop
  40206c:	11e1a300 	.word	0x11e1a300
  402070:	0040290d 	.word	0x0040290d
  402074:	004025f1 	.word	0x004025f1
  402078:	00402645 	.word	0x00402645
  40207c:	00402655 	.word	0x00402655
  402080:	20133f01 	.word	0x20133f01
  402084:	400e0600 	.word	0x400e0600
  402088:	00402665 	.word	0x00402665
  40208c:	00402555 	.word	0x00402555
  402090:	0040258d 	.word	0x0040258d
  402094:	00402801 	.word	0x00402801
  402098:	0e4e1c00 	.word	0x0e4e1c00

0040209c <board_init>:
	__ISB();
}
#endif

void board_init(void)
{
  40209c:	b5f8      	push	{r3, r4, r5, r6, r7, lr}
#ifndef CONF_BOARD_KEEP_WATCHDOG_AT_INIT
	/* Disable the watchdog */
	WDT->WDT_MR = WDT_MR_WDDIS;
  40209e:	f44f 4200 	mov.w	r2, #32768	; 0x8000
  4020a2:	4b6d      	ldr	r3, [pc, #436]	; (402258 <board_init+0x1bc>)
  4020a4:	605a      	str	r2, [r3, #4]
  __ASM volatile ("dsb 0xF":::"memory");
  4020a6:	f3bf 8f4f 	dsb	sy
  __ASM volatile ("isb 0xF":::"memory");
  4020aa:	f3bf 8f6f 	isb	sy
    SCB->ICIALLU = 0UL;                     /* invalidate I-Cache */
  4020ae:	4b6b      	ldr	r3, [pc, #428]	; (40225c <board_init+0x1c0>)
  4020b0:	2100      	movs	r1, #0
  4020b2:	f8c3 1250 	str.w	r1, [r3, #592]	; 0x250
  __ASM volatile ("dsb 0xF":::"memory");
  4020b6:	f3bf 8f4f 	dsb	sy
  __ASM volatile ("isb 0xF":::"memory");
  4020ba:	f3bf 8f6f 	isb	sy
    SCB->CCR |=  (uint32_t)SCB_CCR_IC_Msk;  /* enable I-Cache */
  4020be:	695a      	ldr	r2, [r3, #20]
  4020c0:	f442 3200 	orr.w	r2, r2, #131072	; 0x20000
  4020c4:	615a      	str	r2, [r3, #20]
  __ASM volatile ("dsb 0xF":::"memory");
  4020c6:	f3bf 8f4f 	dsb	sy
  __ASM volatile ("isb 0xF":::"memory");
  4020ca:	f3bf 8f6f 	isb	sy
    SCB->CSSELR = 0U; /*(0U << 1U) | 0U;*/  /* Level 1 data cache */
  4020ce:	f8c3 1084 	str.w	r1, [r3, #132]	; 0x84
  __ASM volatile ("dsb 0xF":::"memory");
  4020d2:	f3bf 8f4f 	dsb	sy
    ccsidr = SCB->CCSIDR;
  4020d6:	f8d3 7080 	ldr.w	r7, [r3, #128]	; 0x80
    sets = (uint32_t)(CCSIDR_SETS(ccsidr));
  4020da:	f3c7 354e 	ubfx	r5, r7, #13, #15
      ways = (uint32_t)(CCSIDR_WAYS(ccsidr));
  4020de:	f3c7 07c9 	ubfx	r7, r7, #3, #10
  4020e2:	016e      	lsls	r6, r5, #5
  4020e4:	ea4f 7c87 	mov.w	ip, r7, lsl #30
        SCB->DCISW = (((sets << SCB_DCISW_SET_Pos) & SCB_DCISW_SET_Msk) |
  4020e8:	f643 7ee0 	movw	lr, #16352	; 0x3fe0
  4020ec:	461c      	mov	r4, r3
  4020ee:	ea06 000e 	and.w	r0, r6, lr
  4020f2:	4662      	mov	r2, ip
      ways = (uint32_t)(CCSIDR_WAYS(ccsidr));
  4020f4:	463b      	mov	r3, r7
        SCB->DCISW = (((sets << SCB_DCISW_SET_Pos) & SCB_DCISW_SET_Msk) |
  4020f6:	ea40 0102 	orr.w	r1, r0, r2
  4020fa:	f8c4 1260 	str.w	r1, [r4, #608]	; 0x260
      } while (ways-- != 0U);
  4020fe:	3b01      	subs	r3, #1
  402100:	f102 4240 	add.w	r2, r2, #3221225472	; 0xc0000000
  402104:	f1b3 3fff 	cmp.w	r3, #4294967295
  402108:	d1f5      	bne.n	4020f6 <board_init+0x5a>
    } while(sets-- != 0U);
  40210a:	3d01      	subs	r5, #1
  40210c:	3e20      	subs	r6, #32
  40210e:	f1b5 3fff 	cmp.w	r5, #4294967295
  402112:	d1ec      	bne.n	4020ee <board_init+0x52>
  402114:	f3bf 8f4f 	dsb	sy
    SCB->CCR |=  (uint32_t)SCB_CCR_DC_Msk;  /* enable D-Cache */
  402118:	4b50      	ldr	r3, [pc, #320]	; (40225c <board_init+0x1c0>)
  40211a:	695a      	ldr	r2, [r3, #20]
  40211c:	f442 3280 	orr.w	r2, r2, #65536	; 0x10000
  402120:	615a      	str	r2, [r3, #20]
  402122:	f3bf 8f4f 	dsb	sy
  __ASM volatile ("isb 0xF":::"memory");
  402126:	f3bf 8f6f 	isb	sy
		*dst++ = *src++;
	}
#endif
#else
	/* TCM Configuration */
	EFC->EEFC_FCR = (EEFC_FCR_FKEY_PASSWD | EEFC_FCR_FCMD_CGPB 
  40212a:	4a4d      	ldr	r2, [pc, #308]	; (402260 <board_init+0x1c4>)
  40212c:	494d      	ldr	r1, [pc, #308]	; (402264 <board_init+0x1c8>)
  40212e:	6051      	str	r1, [r2, #4]
					| EEFC_FCR_FARG(8));
	EFC->EEFC_FCR = (EEFC_FCR_FKEY_PASSWD | EEFC_FCR_FCMD_CGPB 
  402130:	f5a1 7180 	sub.w	r1, r1, #256	; 0x100
  402134:	6051      	str	r1, [r2, #4]
  __ASM volatile ("dsb 0xF":::"memory");
  402136:	f3bf 8f4f 	dsb	sy
  __ASM volatile ("isb 0xF":::"memory");
  40213a:	f3bf 8f6f 	isb	sy
	SCB->ITCMCR &= ~(uint32_t)(1UL);
  40213e:	f8d3 2290 	ldr.w	r2, [r3, #656]	; 0x290
  402142:	f022 0201 	bic.w	r2, r2, #1
  402146:	f8c3 2290 	str.w	r2, [r3, #656]	; 0x290
	SCB->DTCMCR &= ~(uint32_t)SCB_DTCMCR_EN_Msk;
  40214a:	f8d3 2294 	ldr.w	r2, [r3, #660]	; 0x294
  40214e:	f022 0201 	bic.w	r2, r2, #1
  402152:	f8c3 2294 	str.w	r2, [r3, #660]	; 0x294
  __ASM volatile ("dsb 0xF":::"memory");
  402156:	f3bf 8f4f 	dsb	sy
  __ASM volatile ("isb 0xF":::"memory");
  40215a:	f3bf 8f6f 	isb	sy
  40215e:	200a      	movs	r0, #10
  402160:	4c41      	ldr	r4, [pc, #260]	; (402268 <board_init+0x1cc>)
  402162:	47a0      	blx	r4
  402164:	200b      	movs	r0, #11
  402166:	47a0      	blx	r4
  402168:	200c      	movs	r0, #12
  40216a:	47a0      	blx	r4
  40216c:	2010      	movs	r0, #16
  40216e:	47a0      	blx	r4
  402170:	2011      	movs	r0, #17
  402172:	47a0      	blx	r4
		enum ioport_direction dir)
{
	Pio *base = arch_ioport_pin_to_base(pin);

	if (dir == IOPORT_DIR_OUTPUT) {
		base->PIO_OER = arch_ioport_pin_to_mask(pin);
  402174:	4b3d      	ldr	r3, [pc, #244]	; (40226c <board_init+0x1d0>)
  402176:	f44f 0200 	mov.w	r2, #8388608	; 0x800000
  40217a:	611a      	str	r2, [r3, #16]
	} else if (dir == IOPORT_DIR_INPUT) {
		base->PIO_ODR = arch_ioport_pin_to_mask(pin);
	}

	base->PIO_OWER = arch_ioport_pin_to_mask(pin);
  40217c:	f8c3 20a0 	str.w	r2, [r3, #160]	; 0xa0
		bool level)
{
	Pio *base = arch_ioport_pin_to_base(pin);

	if (level) {
		base->PIO_SODR = arch_ioport_pin_to_mask(pin);
  402180:	631a      	str	r2, [r3, #48]	; 0x30
		base->PIO_OER = arch_ioport_pin_to_mask(pin);
  402182:	493b      	ldr	r1, [pc, #236]	; (402270 <board_init+0x1d4>)
  402184:	f44f 7200 	mov.w	r2, #512	; 0x200
  402188:	610a      	str	r2, [r1, #16]
	base->PIO_OWER = arch_ioport_pin_to_mask(pin);
  40218a:	f8c1 20a0 	str.w	r2, [r1, #160]	; 0xa0
		base->PIO_SODR = arch_ioport_pin_to_mask(pin);
  40218e:	630a      	str	r2, [r1, #48]	; 0x30
		base->PIO_ODR = arch_ioport_pin_to_mask(pin);
  402190:	615a      	str	r2, [r3, #20]
	base->PIO_OWER = arch_ioport_pin_to_mask(pin);
  402192:	f8c3 20a0 	str.w	r2, [r3, #160]	; 0xa0
		base->PIO_PUER = mask;
  402196:	665a      	str	r2, [r3, #100]	; 0x64
		base->PIO_PPDDR = mask;
  402198:	f8c3 2090 	str.w	r2, [r3, #144]	; 0x90
		base->PIO_MDDR = mask;
  40219c:	655a      	str	r2, [r3, #84]	; 0x54
		base->PIO_IFER = mask;
  40219e:	621a      	str	r2, [r3, #32]
		base->PIO_IFSCER = mask;
  4021a0:	f8c3 2084 	str.w	r2, [r3, #132]	; 0x84
		base->PIO_ABCDSR[0] &= ~mask;
  4021a4:	6f19      	ldr	r1, [r3, #112]	; 0x70
  4021a6:	f421 7100 	bic.w	r1, r1, #512	; 0x200
  4021aa:	6719      	str	r1, [r3, #112]	; 0x70
		base->PIO_ABCDSR[1] &= ~mask;
  4021ac:	6f59      	ldr	r1, [r3, #116]	; 0x74
  4021ae:	f421 7100 	bic.w	r1, r1, #512	; 0x200
  4021b2:	6759      	str	r1, [r3, #116]	; 0x74
	case IOPORT_SENSE_FALLING:
		base->PIO_ESR = mask;
		base->PIO_FELLSR = mask;
		break;
	case IOPORT_SENSE_RISING:
		base->PIO_ESR = mask;
  4021b4:	f8c3 20c0 	str.w	r2, [r3, #192]	; 0xc0
		base->PIO_REHLSR = mask;
  4021b8:	f8c3 20d4 	str.w	r2, [r3, #212]	; 0xd4
		break;
	default:
		base->PIO_AIMDR = mask;
		return;
	}
	base->PIO_AIMER = mask;
  4021bc:	f8c3 20b0 	str.w	r2, [r3, #176]	; 0xb0
		base->PIO_PUDR = mask;
  4021c0:	f44f 1200 	mov.w	r2, #2097152	; 0x200000
  4021c4:	661a      	str	r2, [r3, #96]	; 0x60
		base->PIO_PPDDR = mask;
  4021c6:	f8c3 2090 	str.w	r2, [r3, #144]	; 0x90
		base->PIO_MDDR = mask;
  4021ca:	655a      	str	r2, [r3, #84]	; 0x54
		base->PIO_IFDR = mask;
  4021cc:	625a      	str	r2, [r3, #36]	; 0x24
		base->PIO_IFSCDR = mask;
  4021ce:	f8c3 2080 	str.w	r2, [r3, #128]	; 0x80
		base->PIO_ABCDSR[0] &= ~mask;
  4021d2:	6f19      	ldr	r1, [r3, #112]	; 0x70
  4021d4:	f421 1100 	bic.w	r1, r1, #2097152	; 0x200000
  4021d8:	6719      	str	r1, [r3, #112]	; 0x70
		base->PIO_ABCDSR[1] &= ~mask;
  4021da:	6f59      	ldr	r1, [r3, #116]	; 0x74
  4021dc:	f421 1100 	bic.w	r1, r1, #2097152	; 0x200000
  4021e0:	6759      	str	r1, [r3, #116]	; 0x74
	arch_ioport_port_to_base(port)->PIO_PDR = mask;
  4021e2:	605a      	str	r2, [r3, #4]
			GPIO_PUSH_BUTTON_1_SENSE);

#ifdef CONF_BOARD_UART_CONSOLE
	/* Configure UART pins */
	ioport_set_pin_peripheral_mode(USART1_RXD_GPIO, USART1_RXD_FLAGS);
	MATRIX->CCFG_SYSIO |= CCFG_SYSIO_SYSIO4;
  4021e4:	4923      	ldr	r1, [pc, #140]	; (402274 <board_init+0x1d8>)
  4021e6:	f8d1 2114 	ldr.w	r2, [r1, #276]	; 0x114
  4021ea:	f042 0210 	orr.w	r2, r2, #16
  4021ee:	f8c1 2114 	str.w	r2, [r1, #276]	; 0x114
		base->PIO_PUDR = mask;
  4021f2:	f501 21b2 	add.w	r1, r1, #364544	; 0x59000
  4021f6:	2210      	movs	r2, #16
  4021f8:	660a      	str	r2, [r1, #96]	; 0x60
		base->PIO_PPDDR = mask;
  4021fa:	f8c1 2090 	str.w	r2, [r1, #144]	; 0x90
		base->PIO_MDDR = mask;
  4021fe:	654a      	str	r2, [r1, #84]	; 0x54
		base->PIO_IFDR = mask;
  402200:	624a      	str	r2, [r1, #36]	; 0x24
		base->PIO_IFSCDR = mask;
  402202:	f8c1 2080 	str.w	r2, [r1, #128]	; 0x80
		base->PIO_ABCDSR[0] |= mask;
  402206:	6f08      	ldr	r0, [r1, #112]	; 0x70
  402208:	4310      	orrs	r0, r2
  40220a:	6708      	str	r0, [r1, #112]	; 0x70
		base->PIO_ABCDSR[1] |= mask;
  40220c:	6f48      	ldr	r0, [r1, #116]	; 0x74
  40220e:	4310      	orrs	r0, r2
  402210:	6748      	str	r0, [r1, #116]	; 0x74
	arch_ioport_port_to_base(port)->PIO_PDR = mask;
  402212:	604a      	str	r2, [r1, #4]
		base->PIO_PUDR = mask;
  402214:	2108      	movs	r1, #8
  402216:	6619      	str	r1, [r3, #96]	; 0x60
		base->PIO_PPDDR = mask;
  402218:	f8c3 1090 	str.w	r1, [r3, #144]	; 0x90
		base->PIO_MDDR = mask;
  40221c:	6559      	str	r1, [r3, #84]	; 0x54
		base->PIO_IFDR = mask;
  40221e:	6259      	str	r1, [r3, #36]	; 0x24
		base->PIO_IFSCDR = mask;
  402220:	f8c3 1080 	str.w	r1, [r3, #128]	; 0x80
		base->PIO_ABCDSR[0] &= ~mask;
  402224:	6f18      	ldr	r0, [r3, #112]	; 0x70
  402226:	f020 0008 	bic.w	r0, r0, #8
  40222a:	6718      	str	r0, [r3, #112]	; 0x70
		base->PIO_ABCDSR[1] &= ~mask;
  40222c:	6f58      	ldr	r0, [r3, #116]	; 0x74
  40222e:	f020 0008 	bic.w	r0, r0, #8
  402232:	6758      	str	r0, [r3, #116]	; 0x74
	arch_ioport_port_to_base(port)->PIO_PDR = mask;
  402234:	6059      	str	r1, [r3, #4]
		base->PIO_PUDR = mask;
  402236:	661a      	str	r2, [r3, #96]	; 0x60
		base->PIO_PPDDR = mask;
  402238:	f8c3 2090 	str.w	r2, [r3, #144]	; 0x90
		base->PIO_MDDR = mask;
  40223c:	655a      	str	r2, [r3, #84]	; 0x54
		base->PIO_IFDR = mask;
  40223e:	625a      	str	r2, [r3, #36]	; 0x24
		base->PIO_IFSCDR = mask;
  402240:	f8c3 2080 	str.w	r2, [r3, #128]	; 0x80
		base->PIO_ABCDSR[0] &= ~mask;
  402244:	6f19      	ldr	r1, [r3, #112]	; 0x70
  402246:	f021 0110 	bic.w	r1, r1, #16
  40224a:	6719      	str	r1, [r3, #112]	; 0x70
		base->PIO_ABCDSR[1] &= ~mask;
  40224c:	6f59      	ldr	r1, [r3, #116]	; 0x74
  40224e:	f021 0110 	bic.w	r1, r1, #16
  402252:	6759      	str	r1, [r3, #116]	; 0x74
	arch_ioport_port_to_base(port)->PIO_PDR = mask;
  402254:	605a      	str	r2, [r3, #4]
  402256:	bdf8      	pop	{r3, r4, r5, r6, r7, pc}
  402258:	400e1850 	.word	0x400e1850
  40225c:	e000ed00 	.word	0xe000ed00
  402260:	400e0c00 	.word	0x400e0c00
  402264:	5a00080c 	.word	0x5a00080c
  402268:	00402675 	.word	0x00402675
  40226c:	400e0e00 	.word	0x400e0e00
  402270:	400e1200 	.word	0x400e1200
  402274:	40088000 	.word	0x40088000

00402278 <pio_set_peripheral>:
		const uint32_t ul_mask)
{
	uint32_t ul_sr;

	/* Disable interrupts on the pin(s) */
	p_pio->PIO_IDR = ul_mask;
  402278:	6442      	str	r2, [r0, #68]	; 0x44

#if (SAM3S || SAM3N || SAM4S || SAM4E || SAM4N || SAM4C || SAMG || SAM4CP || SAM4CM || SAMV71 || SAMV70 || SAME70 || SAMS70)
	switch (ul_type) {
  40227a:	f1b1 5fc0 	cmp.w	r1, #402653184	; 0x18000000
  40227e:	d03a      	beq.n	4022f6 <pio_set_peripheral+0x7e>
  402280:	d813      	bhi.n	4022aa <pio_set_peripheral+0x32>
  402282:	f1b1 6f00 	cmp.w	r1, #134217728	; 0x8000000
  402286:	d025      	beq.n	4022d4 <pio_set_peripheral+0x5c>
  402288:	f1b1 5f80 	cmp.w	r1, #268435456	; 0x10000000
  40228c:	d10a      	bne.n	4022a4 <pio_set_peripheral+0x2c>

		ul_sr = p_pio->PIO_ABCDSR[1];
		p_pio->PIO_ABCDSR[1] &= (~ul_mask & ul_sr);
		break;
	case PIO_PERIPH_B:
		ul_sr = p_pio->PIO_ABCDSR[0];
  40228e:	6f03      	ldr	r3, [r0, #112]	; 0x70
		p_pio->PIO_ABCDSR[0] = (ul_mask | ul_sr);
  402290:	4313      	orrs	r3, r2
  402292:	6703      	str	r3, [r0, #112]	; 0x70

		ul_sr = p_pio->PIO_ABCDSR[1];
  402294:	6f43      	ldr	r3, [r0, #116]	; 0x74
		p_pio->PIO_ABCDSR[1] &= (~ul_mask & ul_sr);
  402296:	6f41      	ldr	r1, [r0, #116]	; 0x74
  402298:	400b      	ands	r3, r1
  40229a:	ea23 0302 	bic.w	r3, r3, r2
  40229e:	6743      	str	r3, [r0, #116]	; 0x74
#else
#error "Unsupported device"
#endif

	/* Remove the pins from under the control of PIO */
	p_pio->PIO_PDR = ul_mask;
  4022a0:	6042      	str	r2, [r0, #4]
  4022a2:	4770      	bx	lr
	switch (ul_type) {
  4022a4:	2900      	cmp	r1, #0
  4022a6:	d1fb      	bne.n	4022a0 <pio_set_peripheral+0x28>
  4022a8:	4770      	bx	lr
  4022aa:	f1b1 5f20 	cmp.w	r1, #671088640	; 0x28000000
  4022ae:	d021      	beq.n	4022f4 <pio_set_peripheral+0x7c>
  4022b0:	d809      	bhi.n	4022c6 <pio_set_peripheral+0x4e>
  4022b2:	f1b1 5f00 	cmp.w	r1, #536870912	; 0x20000000
  4022b6:	d1f3      	bne.n	4022a0 <pio_set_peripheral+0x28>
		ul_sr = p_pio->PIO_ABCDSR[0];
  4022b8:	6f03      	ldr	r3, [r0, #112]	; 0x70
		p_pio->PIO_ABCDSR[0] = (ul_mask | ul_sr);
  4022ba:	4313      	orrs	r3, r2
  4022bc:	6703      	str	r3, [r0, #112]	; 0x70
		ul_sr = p_pio->PIO_ABCDSR[1];
  4022be:	6f43      	ldr	r3, [r0, #116]	; 0x74
		p_pio->PIO_ABCDSR[1] = (ul_mask | ul_sr);
  4022c0:	4313      	orrs	r3, r2
  4022c2:	6743      	str	r3, [r0, #116]	; 0x74
		break;
  4022c4:	e7ec      	b.n	4022a0 <pio_set_peripheral+0x28>
	switch (ul_type) {
  4022c6:	f1b1 5f40 	cmp.w	r1, #805306368	; 0x30000000
  4022ca:	d013      	beq.n	4022f4 <pio_set_peripheral+0x7c>
  4022cc:	f1b1 5f60 	cmp.w	r1, #939524096	; 0x38000000
  4022d0:	d010      	beq.n	4022f4 <pio_set_peripheral+0x7c>
  4022d2:	e7e5      	b.n	4022a0 <pio_set_peripheral+0x28>
{
  4022d4:	b410      	push	{r4}
		ul_sr = p_pio->PIO_ABCDSR[0];
  4022d6:	6f01      	ldr	r1, [r0, #112]	; 0x70
		p_pio->PIO_ABCDSR[0] &= (~ul_mask & ul_sr);
  4022d8:	6f04      	ldr	r4, [r0, #112]	; 0x70
  4022da:	43d3      	mvns	r3, r2
  4022dc:	4021      	ands	r1, r4
  4022de:	461c      	mov	r4, r3
  4022e0:	4019      	ands	r1, r3
  4022e2:	6701      	str	r1, [r0, #112]	; 0x70
		ul_sr = p_pio->PIO_ABCDSR[1];
  4022e4:	6f43      	ldr	r3, [r0, #116]	; 0x74
		p_pio->PIO_ABCDSR[1] &= (~ul_mask & ul_sr);
  4022e6:	6f41      	ldr	r1, [r0, #116]	; 0x74
  4022e8:	400b      	ands	r3, r1
  4022ea:	4023      	ands	r3, r4
  4022ec:	6743      	str	r3, [r0, #116]	; 0x74
	p_pio->PIO_PDR = ul_mask;
  4022ee:	6042      	str	r2, [r0, #4]
}
  4022f0:	f85d 4b04 	ldr.w	r4, [sp], #4
  4022f4:	4770      	bx	lr
		ul_sr = p_pio->PIO_ABCDSR[0];
  4022f6:	6f03      	ldr	r3, [r0, #112]	; 0x70
		p_pio->PIO_ABCDSR[0] &= (~ul_mask & ul_sr);
  4022f8:	6f01      	ldr	r1, [r0, #112]	; 0x70
  4022fa:	400b      	ands	r3, r1
  4022fc:	ea23 0302 	bic.w	r3, r3, r2
  402300:	6703      	str	r3, [r0, #112]	; 0x70
		ul_sr = p_pio->PIO_ABCDSR[1];
  402302:	6f43      	ldr	r3, [r0, #116]	; 0x74
		p_pio->PIO_ABCDSR[1] = (ul_mask | ul_sr);
  402304:	4313      	orrs	r3, r2
  402306:	6743      	str	r3, [r0, #116]	; 0x74
		break;
  402308:	e7ca      	b.n	4022a0 <pio_set_peripheral+0x28>

0040230a <pio_set_input>:
 * \param p_pio Pointer to a PIO instance.
 * \param ul_mask Interrupt sources bit map.
 */
void pio_disable_interrupt(Pio *p_pio, const uint32_t ul_mask)
{
	p_pio->PIO_IDR = ul_mask;
  40230a:	6441      	str	r1, [r0, #68]	; 0x44
	if (ul_pull_up_enable) {
  40230c:	f012 0f01 	tst.w	r2, #1
  402310:	d10d      	bne.n	40232e <pio_set_input+0x24>
		p_pio->PIO_PUDR = ul_mask;
  402312:	6601      	str	r1, [r0, #96]	; 0x60
	if (ul_attribute & (PIO_DEGLITCH | PIO_DEBOUNCE)) {
  402314:	f012 0f0a 	tst.w	r2, #10
  402318:	d00b      	beq.n	402332 <pio_set_input+0x28>
		p_pio->PIO_IFER = ul_mask;
  40231a:	6201      	str	r1, [r0, #32]
	if (ul_attribute & PIO_DEGLITCH) {
  40231c:	f012 0f02 	tst.w	r2, #2
  402320:	d109      	bne.n	402336 <pio_set_input+0x2c>
		if (ul_attribute & PIO_DEBOUNCE) {
  402322:	f012 0f08 	tst.w	r2, #8
  402326:	d008      	beq.n	40233a <pio_set_input+0x30>
			p_pio->PIO_IFSCER = ul_mask;
  402328:	f8c0 1084 	str.w	r1, [r0, #132]	; 0x84
  40232c:	e005      	b.n	40233a <pio_set_input+0x30>
		p_pio->PIO_PUER = ul_mask;
  40232e:	6641      	str	r1, [r0, #100]	; 0x64
  402330:	e7f0      	b.n	402314 <pio_set_input+0xa>
		p_pio->PIO_IFDR = ul_mask;
  402332:	6241      	str	r1, [r0, #36]	; 0x24
  402334:	e7f2      	b.n	40231c <pio_set_input+0x12>
		p_pio->PIO_IFSCDR = ul_mask;
  402336:	f8c0 1080 	str.w	r1, [r0, #128]	; 0x80
	p_pio->PIO_ODR = ul_mask;
  40233a:	6141      	str	r1, [r0, #20]
	p_pio->PIO_PER = ul_mask;
  40233c:	6001      	str	r1, [r0, #0]
  40233e:	4770      	bx	lr

00402340 <pio_set_output>:
{
  402340:	b410      	push	{r4}
  402342:	9c01      	ldr	r4, [sp, #4]
	p_pio->PIO_IDR = ul_mask;
  402344:	6441      	str	r1, [r0, #68]	; 0x44
	if (ul_pull_up_enable) {
  402346:	b94c      	cbnz	r4, 40235c <pio_set_output+0x1c>
		p_pio->PIO_PUDR = ul_mask;
  402348:	6601      	str	r1, [r0, #96]	; 0x60
	if (ul_multidrive_enable) {
  40234a:	b14b      	cbz	r3, 402360 <pio_set_output+0x20>
		p_pio->PIO_MDER = ul_mask;
  40234c:	6501      	str	r1, [r0, #80]	; 0x50
	if (ul_default_level) {
  40234e:	b94a      	cbnz	r2, 402364 <pio_set_output+0x24>
		p_pio->PIO_CODR = ul_mask;
  402350:	6341      	str	r1, [r0, #52]	; 0x34
	p_pio->PIO_OER = ul_mask;
  402352:	6101      	str	r1, [r0, #16]
	p_pio->PIO_PER = ul_mask;
  402354:	6001      	str	r1, [r0, #0]
}
  402356:	f85d 4b04 	ldr.w	r4, [sp], #4
  40235a:	4770      	bx	lr
		p_pio->PIO_PUER = ul_mask;
  40235c:	6641      	str	r1, [r0, #100]	; 0x64
  40235e:	e7f4      	b.n	40234a <pio_set_output+0xa>
		p_pio->PIO_MDDR = ul_mask;
  402360:	6541      	str	r1, [r0, #84]	; 0x54
  402362:	e7f4      	b.n	40234e <pio_set_output+0xe>
		p_pio->PIO_SODR = ul_mask;
  402364:	6301      	str	r1, [r0, #48]	; 0x30
  402366:	e7f4      	b.n	402352 <pio_set_output+0x12>

00402368 <pio_get_interrupt_status>:
 *
 * \return The interrupt status value.
 */
uint32_t pio_get_interrupt_status(const Pio *p_pio)
{
	return p_pio->PIO_ISR;
  402368:	6cc0      	ldr	r0, [r0, #76]	; 0x4c
}
  40236a:	4770      	bx	lr

0040236c <pio_get_interrupt_mask>:
 *
 * \return The interrupt mask value.
 */
uint32_t pio_get_interrupt_mask(const Pio *p_pio)
{
	return p_pio->PIO_IMR;
  40236c:	6c80      	ldr	r0, [r0, #72]	; 0x48
}
  40236e:	4770      	bx	lr

00402370 <pio_configure_pin>:
 * \param ul_flags Pins attributes.
 *
 * \return Whether the pin(s) have been configured properly.
 */
uint32_t pio_configure_pin(uint32_t ul_pin, const uint32_t ul_flags)
{
  402370:	b570      	push	{r4, r5, r6, lr}
  402372:	b082      	sub	sp, #8
  402374:	460d      	mov	r5, r1
		p_pio = PIOC;
	} else {
		p_pio = (Pio *)((uint32_t)PIOA + (PIO_DELTA * (ul_pin >> 5)));
	}
#else
	p_pio = (Pio *)((uint32_t)PIOA + (PIO_DELTA * (ul_pin >> 5)));
  402376:	4c46      	ldr	r4, [pc, #280]	; (402490 <pio_configure_pin+0x120>)
  402378:	eb04 1450 	add.w	r4, r4, r0, lsr #5
  40237c:	0264      	lsls	r4, r4, #9
	switch (ul_flags & PIO_TYPE_Msk) {
  40237e:	f001 43f0 	and.w	r3, r1, #2013265920	; 0x78000000
  402382:	f1b3 5f00 	cmp.w	r3, #536870912	; 0x20000000
  402386:	d059      	beq.n	40243c <pio_configure_pin+0xcc>
  402388:	d80a      	bhi.n	4023a0 <pio_configure_pin+0x30>
  40238a:	f1b3 5f80 	cmp.w	r3, #268435456	; 0x10000000
  40238e:	d02f      	beq.n	4023f0 <pio_configure_pin+0x80>
  402390:	f1b3 5fc0 	cmp.w	r3, #402653184	; 0x18000000
  402394:	d03f      	beq.n	402416 <pio_configure_pin+0xa6>
  402396:	f1b3 6f00 	cmp.w	r3, #134217728	; 0x8000000
  40239a:	d016      	beq.n	4023ca <pio_configure_pin+0x5a>
		return 0;
  40239c:	2000      	movs	r0, #0
  40239e:	e012      	b.n	4023c6 <pio_configure_pin+0x56>
	switch (ul_flags & PIO_TYPE_Msk) {
  4023a0:	f1b3 5f40 	cmp.w	r3, #805306368	; 0x30000000
  4023a4:	d05d      	beq.n	402462 <pio_configure_pin+0xf2>
  4023a6:	f1b3 5f60 	cmp.w	r3, #939524096	; 0x38000000
  4023aa:	d05a      	beq.n	402462 <pio_configure_pin+0xf2>
  4023ac:	f1b3 5f20 	cmp.w	r3, #671088640	; 0x28000000
  4023b0:	d1f4      	bne.n	40239c <pio_configure_pin+0x2c>
		pio_set_input(p_pio, (1 << (ul_pin & 0x1F)), ul_flags);
  4023b2:	f000 011f 	and.w	r1, r0, #31
  4023b6:	2601      	movs	r6, #1
  4023b8:	462a      	mov	r2, r5
  4023ba:	fa06 f101 	lsl.w	r1, r6, r1
  4023be:	4620      	mov	r0, r4
  4023c0:	4b34      	ldr	r3, [pc, #208]	; (402494 <pio_configure_pin+0x124>)
  4023c2:	4798      	blx	r3
	return 1;
  4023c4:	4630      	mov	r0, r6
}
  4023c6:	b002      	add	sp, #8
  4023c8:	bd70      	pop	{r4, r5, r6, pc}
		pio_set_peripheral(p_pio, PIO_PERIPH_A, (1 << (ul_pin & 0x1F)));
  4023ca:	f000 001f 	and.w	r0, r0, #31
  4023ce:	2601      	movs	r6, #1
  4023d0:	4086      	lsls	r6, r0
  4023d2:	4632      	mov	r2, r6
  4023d4:	f04f 6100 	mov.w	r1, #134217728	; 0x8000000
  4023d8:	4620      	mov	r0, r4
  4023da:	4b2f      	ldr	r3, [pc, #188]	; (402498 <pio_configure_pin+0x128>)
  4023dc:	4798      	blx	r3
	if (ul_pull_up_enable) {
  4023de:	f015 0f01 	tst.w	r5, #1
  4023e2:	d102      	bne.n	4023ea <pio_configure_pin+0x7a>
		p_pio->PIO_PUDR = ul_mask;
  4023e4:	6626      	str	r6, [r4, #96]	; 0x60
	return 1;
  4023e6:	2001      	movs	r0, #1
  4023e8:	e7ed      	b.n	4023c6 <pio_configure_pin+0x56>
		p_pio->PIO_PUER = ul_mask;
  4023ea:	6666      	str	r6, [r4, #100]	; 0x64
	return 1;
  4023ec:	2001      	movs	r0, #1
  4023ee:	e7ea      	b.n	4023c6 <pio_configure_pin+0x56>
		pio_set_peripheral(p_pio, PIO_PERIPH_B, (1 << (ul_pin & 0x1F)));
  4023f0:	f000 001f 	and.w	r0, r0, #31
  4023f4:	2601      	movs	r6, #1
  4023f6:	4086      	lsls	r6, r0
  4023f8:	4632      	mov	r2, r6
  4023fa:	f04f 5180 	mov.w	r1, #268435456	; 0x10000000
  4023fe:	4620      	mov	r0, r4
  402400:	4b25      	ldr	r3, [pc, #148]	; (402498 <pio_configure_pin+0x128>)
  402402:	4798      	blx	r3
	if (ul_pull_up_enable) {
  402404:	f015 0f01 	tst.w	r5, #1
  402408:	d102      	bne.n	402410 <pio_configure_pin+0xa0>
		p_pio->PIO_PUDR = ul_mask;
  40240a:	6626      	str	r6, [r4, #96]	; 0x60
	return 1;
  40240c:	2001      	movs	r0, #1
  40240e:	e7da      	b.n	4023c6 <pio_configure_pin+0x56>
		p_pio->PIO_PUER = ul_mask;
  402410:	6666      	str	r6, [r4, #100]	; 0x64
	return 1;
  402412:	2001      	movs	r0, #1
  402414:	e7d7      	b.n	4023c6 <pio_configure_pin+0x56>
		pio_set_peripheral(p_pio, PIO_PERIPH_C, (1 << (ul_pin & 0x1F)));
  402416:	f000 001f 	and.w	r0, r0, #31
  40241a:	2601      	movs	r6, #1
  40241c:	4086      	lsls	r6, r0
  40241e:	4632      	mov	r2, r6
  402420:	f04f 51c0 	mov.w	r1, #402653184	; 0x18000000
  402424:	4620      	mov	r0, r4
  402426:	4b1c      	ldr	r3, [pc, #112]	; (402498 <pio_configure_pin+0x128>)
  402428:	4798      	blx	r3
	if (ul_pull_up_enable) {
  40242a:	f015 0f01 	tst.w	r5, #1
  40242e:	d102      	bne.n	402436 <pio_configure_pin+0xc6>
		p_pio->PIO_PUDR = ul_mask;
  402430:	6626      	str	r6, [r4, #96]	; 0x60
	return 1;
  402432:	2001      	movs	r0, #1
  402434:	e7c7      	b.n	4023c6 <pio_configure_pin+0x56>
		p_pio->PIO_PUER = ul_mask;
  402436:	6666      	str	r6, [r4, #100]	; 0x64
	return 1;
  402438:	2001      	movs	r0, #1
  40243a:	e7c4      	b.n	4023c6 <pio_configure_pin+0x56>
		pio_set_peripheral(p_pio, PIO_PERIPH_D, (1 << (ul_pin & 0x1F)));
  40243c:	f000 001f 	and.w	r0, r0, #31
  402440:	2601      	movs	r6, #1
  402442:	4086      	lsls	r6, r0
  402444:	4632      	mov	r2, r6
  402446:	f04f 5100 	mov.w	r1, #536870912	; 0x20000000
  40244a:	4620      	mov	r0, r4
  40244c:	4b12      	ldr	r3, [pc, #72]	; (402498 <pio_configure_pin+0x128>)
  40244e:	4798      	blx	r3
	if (ul_pull_up_enable) {
  402450:	f015 0f01 	tst.w	r5, #1
  402454:	d102      	bne.n	40245c <pio_configure_pin+0xec>
		p_pio->PIO_PUDR = ul_mask;
  402456:	6626      	str	r6, [r4, #96]	; 0x60
	return 1;
  402458:	2001      	movs	r0, #1
  40245a:	e7b4      	b.n	4023c6 <pio_configure_pin+0x56>
		p_pio->PIO_PUER = ul_mask;
  40245c:	6666      	str	r6, [r4, #100]	; 0x64
	return 1;
  40245e:	2001      	movs	r0, #1
  402460:	e7b1      	b.n	4023c6 <pio_configure_pin+0x56>
				((ul_flags & PIO_TYPE_PIO_OUTPUT_1)
  402462:	f005 5260 	and.w	r2, r5, #939524096	; 0x38000000
		pio_set_output(p_pio, (1 << (ul_pin & 0x1F)),
  402466:	f000 011f 	and.w	r1, r0, #31
  40246a:	2601      	movs	r6, #1
  40246c:	ea05 0306 	and.w	r3, r5, r6
  402470:	9300      	str	r3, [sp, #0]
  402472:	f3c5 0380 	ubfx	r3, r5, #2, #1
  402476:	f1b2 5f60 	cmp.w	r2, #939524096	; 0x38000000
  40247a:	bf14      	ite	ne
  40247c:	2200      	movne	r2, #0
  40247e:	2201      	moveq	r2, #1
  402480:	fa06 f101 	lsl.w	r1, r6, r1
  402484:	4620      	mov	r0, r4
  402486:	4c05      	ldr	r4, [pc, #20]	; (40249c <pio_configure_pin+0x12c>)
  402488:	47a0      	blx	r4
	return 1;
  40248a:	4630      	mov	r0, r6
		break;
  40248c:	e79b      	b.n	4023c6 <pio_configure_pin+0x56>
  40248e:	bf00      	nop
  402490:	00200707 	.word	0x00200707
  402494:	0040230b 	.word	0x0040230b
  402498:	00402279 	.word	0x00402279
  40249c:	00402341 	.word	0x00402341

004024a0 <pio_handler_process>:
 *
 * \param p_pio PIO controller base address.
 * \param ul_id PIO controller ID.
 */
void pio_handler_process(Pio *p_pio, uint32_t ul_id)
{
  4024a0:	e92d 41f0 	stmdb	sp!, {r4, r5, r6, r7, r8, lr}
  4024a4:	4604      	mov	r4, r0
  4024a6:	4688      	mov	r8, r1
	uint32_t status;
	uint32_t i;

	/* Read PIO controller status */
	status = pio_get_interrupt_status(p_pio);
  4024a8:	4b0e      	ldr	r3, [pc, #56]	; (4024e4 <pio_handler_process+0x44>)
  4024aa:	4798      	blx	r3
  4024ac:	4605      	mov	r5, r0
	status &= pio_get_interrupt_mask(p_pio);
  4024ae:	4620      	mov	r0, r4
  4024b0:	4b0d      	ldr	r3, [pc, #52]	; (4024e8 <pio_handler_process+0x48>)
  4024b2:	4798      	blx	r3

	/* Check pending events */
	if (status != 0) {
  4024b4:	4005      	ands	r5, r0
  4024b6:	d013      	beq.n	4024e0 <pio_handler_process+0x40>
  4024b8:	4c0c      	ldr	r4, [pc, #48]	; (4024ec <pio_handler_process+0x4c>)
  4024ba:	f104 0660 	add.w	r6, r4, #96	; 0x60
  4024be:	e003      	b.n	4024c8 <pio_handler_process+0x28>
							gs_interrupt_sources[i].mask);
					status &= ~(gs_interrupt_sources[i].mask);
				}
			}
			i++;
			if (i >= MAX_INTERRUPT_SOURCES) {
  4024c0:	42b4      	cmp	r4, r6
  4024c2:	d00d      	beq.n	4024e0 <pio_handler_process+0x40>
  4024c4:	3410      	adds	r4, #16
		while (status != 0) {
  4024c6:	b15d      	cbz	r5, 4024e0 <pio_handler_process+0x40>
			if (gs_interrupt_sources[i].id == ul_id) {
  4024c8:	6820      	ldr	r0, [r4, #0]
  4024ca:	4540      	cmp	r0, r8
  4024cc:	d1f8      	bne.n	4024c0 <pio_handler_process+0x20>
				if ((status & gs_interrupt_sources[i].mask) != 0) {
  4024ce:	6861      	ldr	r1, [r4, #4]
  4024d0:	4229      	tst	r1, r5
  4024d2:	d0f5      	beq.n	4024c0 <pio_handler_process+0x20>
					gs_interrupt_sources[i].handler(gs_interrupt_sources[i].id,
  4024d4:	68e3      	ldr	r3, [r4, #12]
  4024d6:	4798      	blx	r3
					status &= ~(gs_interrupt_sources[i].mask);
  4024d8:	6863      	ldr	r3, [r4, #4]
  4024da:	ea25 0503 	bic.w	r5, r5, r3
  4024de:	e7ef      	b.n	4024c0 <pio_handler_process+0x20>
  4024e0:	e8bd 81f0 	ldmia.w	sp!, {r4, r5, r6, r7, r8, pc}
  4024e4:	00402369 	.word	0x00402369
  4024e8:	0040236d 	.word	0x0040236d
  4024ec:	20410a6c 	.word	0x20410a6c

004024f0 <PIOA_Handler>:
/**
 * \brief Parallel IO Controller A interrupt handler.
 * Redefined PIOA interrupt handler for NVIC interrupt table.
 */
void PIOA_Handler(void)
{
  4024f0:	b508      	push	{r3, lr}
	pio_handler_process(PIOA, ID_PIOA);
  4024f2:	210a      	movs	r1, #10
  4024f4:	4801      	ldr	r0, [pc, #4]	; (4024fc <PIOA_Handler+0xc>)
  4024f6:	4b02      	ldr	r3, [pc, #8]	; (402500 <PIOA_Handler+0x10>)
  4024f8:	4798      	blx	r3
  4024fa:	bd08      	pop	{r3, pc}
  4024fc:	400e0e00 	.word	0x400e0e00
  402500:	004024a1 	.word	0x004024a1

00402504 <PIOB_Handler>:
/**
 * \brief Parallel IO Controller B interrupt handler
 * Redefined PIOB interrupt handler for NVIC interrupt table.
 */
void PIOB_Handler(void)
{
  402504:	b508      	push	{r3, lr}
    pio_handler_process(PIOB, ID_PIOB);
  402506:	210b      	movs	r1, #11
  402508:	4801      	ldr	r0, [pc, #4]	; (402510 <PIOB_Handler+0xc>)
  40250a:	4b02      	ldr	r3, [pc, #8]	; (402514 <PIOB_Handler+0x10>)
  40250c:	4798      	blx	r3
  40250e:	bd08      	pop	{r3, pc}
  402510:	400e1000 	.word	0x400e1000
  402514:	004024a1 	.word	0x004024a1

00402518 <PIOC_Handler>:
/**
 * \brief Parallel IO Controller C interrupt handler.
 * Redefined PIOC interrupt handler for NVIC interrupt table.
 */
void PIOC_Handler(void)
{
  402518:	b508      	push	{r3, lr}
	pio_handler_process(PIOC, ID_PIOC);
  40251a:	210c      	movs	r1, #12
  40251c:	4801      	ldr	r0, [pc, #4]	; (402524 <PIOC_Handler+0xc>)
  40251e:	4b02      	ldr	r3, [pc, #8]	; (402528 <PIOC_Handler+0x10>)
  402520:	4798      	blx	r3
  402522:	bd08      	pop	{r3, pc}
  402524:	400e1200 	.word	0x400e1200
  402528:	004024a1 	.word	0x004024a1

0040252c <PIOD_Handler>:
/**
 * \brief Parallel IO Controller D interrupt handler.
 * Redefined PIOD interrupt handler for NVIC interrupt table.
 */
void PIOD_Handler(void)
{
  40252c:	b508      	push	{r3, lr}
	pio_handler_process(PIOD, ID_PIOD);
  40252e:	2110      	movs	r1, #16
  402530:	4801      	ldr	r0, [pc, #4]	; (402538 <PIOD_Handler+0xc>)
  402532:	4b02      	ldr	r3, [pc, #8]	; (40253c <PIOD_Handler+0x10>)
  402534:	4798      	blx	r3
  402536:	bd08      	pop	{r3, pc}
  402538:	400e1400 	.word	0x400e1400
  40253c:	004024a1 	.word	0x004024a1

00402540 <PIOE_Handler>:
/**
 * \brief Parallel IO Controller E interrupt handler.
 * Redefined PIOE interrupt handler for NVIC interrupt table.
 */
void PIOE_Handler(void)
{
  402540:	b508      	push	{r3, lr}
	pio_handler_process(PIOE, ID_PIOE);
  402542:	2111      	movs	r1, #17
  402544:	4801      	ldr	r0, [pc, #4]	; (40254c <PIOE_Handler+0xc>)
  402546:	4b02      	ldr	r3, [pc, #8]	; (402550 <PIOE_Handler+0x10>)
  402548:	4798      	blx	r3
  40254a:	bd08      	pop	{r3, pc}
  40254c:	400e1600 	.word	0x400e1600
  402550:	004024a1 	.word	0x004024a1

00402554 <pmc_mck_set_division>:
 *
 * \param ul_div Division value.
 */
void pmc_mck_set_division(uint32_t ul_div)
{
	switch (ul_div) {
  402554:	2803      	cmp	r0, #3
  402556:	d011      	beq.n	40257c <pmc_mck_set_division+0x28>
  402558:	2804      	cmp	r0, #4
  40255a:	d012      	beq.n	402582 <pmc_mck_set_division+0x2e>
		case 1:
			ul_div = PMC_MCKR_MDIV_EQ_PCK;
  40255c:	2802      	cmp	r0, #2
  40255e:	bf0c      	ite	eq
  402560:	f44f 7180 	moveq.w	r1, #256	; 0x100
  402564:	2100      	movne	r1, #0
		default:
			ul_div = PMC_MCKR_MDIV_EQ_PCK;
			break;
	}
	PMC->PMC_MCKR =
			(PMC->PMC_MCKR & (~PMC_MCKR_MDIV_Msk)) | ul_div;
  402566:	4a08      	ldr	r2, [pc, #32]	; (402588 <pmc_mck_set_division+0x34>)
  402568:	6b13      	ldr	r3, [r2, #48]	; 0x30
  40256a:	f423 7340 	bic.w	r3, r3, #768	; 0x300
  40256e:	430b      	orrs	r3, r1
	PMC->PMC_MCKR =
  402570:	6313      	str	r3, [r2, #48]	; 0x30
	while (!(PMC->PMC_SR & PMC_SR_MCKRDY));
  402572:	6e93      	ldr	r3, [r2, #104]	; 0x68
  402574:	f013 0f08 	tst.w	r3, #8
  402578:	d0fb      	beq.n	402572 <pmc_mck_set_division+0x1e>
}
  40257a:	4770      	bx	lr
			ul_div = PMC_MCKR_MDIV_PCK_DIV3;
  40257c:	f44f 7140 	mov.w	r1, #768	; 0x300
			break;
  402580:	e7f1      	b.n	402566 <pmc_mck_set_division+0x12>
			ul_div = PMC_MCKR_MDIV_PCK_DIV4;
  402582:	f44f 7100 	mov.w	r1, #512	; 0x200
			break;
  402586:	e7ee      	b.n	402566 <pmc_mck_set_division+0x12>
  402588:	400e0600 	.word	0x400e0600

0040258c <pmc_switch_mck_to_pllack>:
 */
uint32_t pmc_switch_mck_to_pllack(uint32_t ul_pres)
{
	uint32_t ul_timeout;

	PMC->PMC_MCKR = (PMC->PMC_MCKR & (~PMC_MCKR_PRES_Msk)) | ul_pres;
  40258c:	4a17      	ldr	r2, [pc, #92]	; (4025ec <pmc_switch_mck_to_pllack+0x60>)
  40258e:	6b13      	ldr	r3, [r2, #48]	; 0x30
  402590:	f023 0370 	bic.w	r3, r3, #112	; 0x70
  402594:	4318      	orrs	r0, r3
  402596:	6310      	str	r0, [r2, #48]	; 0x30
	for (ul_timeout = PMC_TIMEOUT; !(PMC->PMC_SR & PMC_SR_MCKRDY);
  402598:	6e93      	ldr	r3, [r2, #104]	; 0x68
  40259a:	f013 0f08 	tst.w	r3, #8
  40259e:	d10a      	bne.n	4025b6 <pmc_switch_mck_to_pllack+0x2a>
  4025a0:	f44f 6300 	mov.w	r3, #2048	; 0x800
  4025a4:	4911      	ldr	r1, [pc, #68]	; (4025ec <pmc_switch_mck_to_pllack+0x60>)
  4025a6:	6e8a      	ldr	r2, [r1, #104]	; 0x68
  4025a8:	f012 0f08 	tst.w	r2, #8
  4025ac:	d103      	bne.n	4025b6 <pmc_switch_mck_to_pllack+0x2a>
			--ul_timeout) {
		if (ul_timeout == 0) {
  4025ae:	3b01      	subs	r3, #1
  4025b0:	d1f9      	bne.n	4025a6 <pmc_switch_mck_to_pllack+0x1a>
			return 1;
  4025b2:	2001      	movs	r0, #1
  4025b4:	4770      	bx	lr
		}
	}

	PMC->PMC_MCKR = (PMC->PMC_MCKR & (~PMC_MCKR_CSS_Msk)) |
  4025b6:	4a0d      	ldr	r2, [pc, #52]	; (4025ec <pmc_switch_mck_to_pllack+0x60>)
  4025b8:	6b13      	ldr	r3, [r2, #48]	; 0x30
  4025ba:	f023 0303 	bic.w	r3, r3, #3
  4025be:	f043 0302 	orr.w	r3, r3, #2
  4025c2:	6313      	str	r3, [r2, #48]	; 0x30
			PMC_MCKR_CSS_PLLA_CLK;

	for (ul_timeout = PMC_TIMEOUT; !(PMC->PMC_SR & PMC_SR_MCKRDY);
  4025c4:	6e93      	ldr	r3, [r2, #104]	; 0x68
  4025c6:	f013 0f08 	tst.w	r3, #8
  4025ca:	d10a      	bne.n	4025e2 <pmc_switch_mck_to_pllack+0x56>
  4025cc:	f44f 6300 	mov.w	r3, #2048	; 0x800
  4025d0:	4906      	ldr	r1, [pc, #24]	; (4025ec <pmc_switch_mck_to_pllack+0x60>)
  4025d2:	6e8a      	ldr	r2, [r1, #104]	; 0x68
  4025d4:	f012 0f08 	tst.w	r2, #8
  4025d8:	d105      	bne.n	4025e6 <pmc_switch_mck_to_pllack+0x5a>
			--ul_timeout) {
		if (ul_timeout == 0) {
  4025da:	3b01      	subs	r3, #1
  4025dc:	d1f9      	bne.n	4025d2 <pmc_switch_mck_to_pllack+0x46>
			return 1;
  4025de:	2001      	movs	r0, #1
		}
	}

	return 0;
}
  4025e0:	4770      	bx	lr
	return 0;
  4025e2:	2000      	movs	r0, #0
  4025e4:	4770      	bx	lr
  4025e6:	2000      	movs	r0, #0
  4025e8:	4770      	bx	lr
  4025ea:	bf00      	nop
  4025ec:	400e0600 	.word	0x400e0600

004025f0 <pmc_switch_mainck_to_xtal>:
 */
void pmc_switch_mainck_to_xtal(uint32_t ul_bypass,
		uint32_t ul_xtal_startup_time)
{
	/* Enable Main Xtal oscillator */
	if (ul_bypass) {
  4025f0:	b9a0      	cbnz	r0, 40261c <pmc_switch_mainck_to_xtal+0x2c>
		PMC->CKGR_MOR = (PMC->CKGR_MOR & ~CKGR_MOR_MOSCXTEN) |
				CKGR_MOR_KEY_PASSWD | CKGR_MOR_MOSCXTBY |
				CKGR_MOR_MOSCSEL;
	} else {
		PMC->CKGR_MOR = (PMC->CKGR_MOR & ~CKGR_MOR_MOSCXTBY) |
  4025f2:	480e      	ldr	r0, [pc, #56]	; (40262c <pmc_switch_mainck_to_xtal+0x3c>)
  4025f4:	6a03      	ldr	r3, [r0, #32]
				CKGR_MOR_KEY_PASSWD | CKGR_MOR_MOSCXTEN |
				CKGR_MOR_MOSCXTST(ul_xtal_startup_time);
  4025f6:	0209      	lsls	r1, r1, #8
  4025f8:	b289      	uxth	r1, r1
				CKGR_MOR_KEY_PASSWD | CKGR_MOR_MOSCXTEN |
  4025fa:	4a0d      	ldr	r2, [pc, #52]	; (402630 <pmc_switch_mainck_to_xtal+0x40>)
  4025fc:	401a      	ands	r2, r3
  4025fe:	4b0d      	ldr	r3, [pc, #52]	; (402634 <pmc_switch_mainck_to_xtal+0x44>)
  402600:	4313      	orrs	r3, r2
  402602:	4319      	orrs	r1, r3
		PMC->CKGR_MOR = (PMC->CKGR_MOR & ~CKGR_MOR_MOSCXTBY) |
  402604:	6201      	str	r1, [r0, #32]
		/* Wait the Xtal to stabilize */
		while (!(PMC->PMC_SR & PMC_SR_MOSCXTS));
  402606:	4602      	mov	r2, r0
  402608:	6e93      	ldr	r3, [r2, #104]	; 0x68
  40260a:	f013 0f01 	tst.w	r3, #1
  40260e:	d0fb      	beq.n	402608 <pmc_switch_mainck_to_xtal+0x18>

		PMC->CKGR_MOR |= CKGR_MOR_KEY_PASSWD | CKGR_MOR_MOSCSEL;
  402610:	4a06      	ldr	r2, [pc, #24]	; (40262c <pmc_switch_mainck_to_xtal+0x3c>)
  402612:	6a11      	ldr	r1, [r2, #32]
  402614:	4b08      	ldr	r3, [pc, #32]	; (402638 <pmc_switch_mainck_to_xtal+0x48>)
  402616:	430b      	orrs	r3, r1
  402618:	6213      	str	r3, [r2, #32]
  40261a:	4770      	bx	lr
		PMC->CKGR_MOR = (PMC->CKGR_MOR & ~CKGR_MOR_MOSCXTEN) |
  40261c:	4903      	ldr	r1, [pc, #12]	; (40262c <pmc_switch_mainck_to_xtal+0x3c>)
  40261e:	6a0b      	ldr	r3, [r1, #32]
				CKGR_MOR_KEY_PASSWD | CKGR_MOR_MOSCXTBY |
  402620:	4a06      	ldr	r2, [pc, #24]	; (40263c <pmc_switch_mainck_to_xtal+0x4c>)
  402622:	401a      	ands	r2, r3
  402624:	4b06      	ldr	r3, [pc, #24]	; (402640 <pmc_switch_mainck_to_xtal+0x50>)
  402626:	4313      	orrs	r3, r2
		PMC->CKGR_MOR = (PMC->CKGR_MOR & ~CKGR_MOR_MOSCXTEN) |
  402628:	620b      	str	r3, [r1, #32]
  40262a:	4770      	bx	lr
  40262c:	400e0600 	.word	0x400e0600
  402630:	ffc8fffc 	.word	0xffc8fffc
  402634:	00370001 	.word	0x00370001
  402638:	01370000 	.word	0x01370000
  40263c:	fec8fffc 	.word	0xfec8fffc
  402640:	01370002 	.word	0x01370002

00402644 <pmc_osc_is_ready_mainck>:
 * \retval 1 Xtal is ready.
 * \retval 0 Xtal is not ready.
 */
uint32_t pmc_osc_is_ready_mainck(void)
{
	return PMC->PMC_SR & PMC_SR_MOSCSELS;
  402644:	4b02      	ldr	r3, [pc, #8]	; (402650 <pmc_osc_is_ready_mainck+0xc>)
  402646:	6e98      	ldr	r0, [r3, #104]	; 0x68
}
  402648:	f400 3080 	and.w	r0, r0, #65536	; 0x10000
  40264c:	4770      	bx	lr
  40264e:	bf00      	nop
  402650:	400e0600 	.word	0x400e0600

00402654 <pmc_disable_pllack>:
void pmc_disable_pllack(void)
{
#if (SAM4C || SAM4CM || SAM4CP || SAMG)
	PMC->CKGR_PLLAR = CKGR_PLLAR_MULA(0);
#else
	PMC->CKGR_PLLAR = CKGR_PLLAR_ONE | CKGR_PLLAR_MULA(0);
  402654:	f04f 5200 	mov.w	r2, #536870912	; 0x20000000
  402658:	4b01      	ldr	r3, [pc, #4]	; (402660 <pmc_disable_pllack+0xc>)
  40265a:	629a      	str	r2, [r3, #40]	; 0x28
  40265c:	4770      	bx	lr
  40265e:	bf00      	nop
  402660:	400e0600 	.word	0x400e0600

00402664 <pmc_is_locked_pllack>:
 * \retval 0 Not locked.
 * \retval 1 Locked.
 */
uint32_t pmc_is_locked_pllack(void)
{
	return (PMC->PMC_SR & PMC_SR_LOCKA);
  402664:	4b02      	ldr	r3, [pc, #8]	; (402670 <pmc_is_locked_pllack+0xc>)
  402666:	6e98      	ldr	r0, [r3, #104]	; 0x68
}
  402668:	f000 0002 	and.w	r0, r0, #2
  40266c:	4770      	bx	lr
  40266e:	bf00      	nop
  402670:	400e0600 	.word	0x400e0600

00402674 <pmc_enable_periph_clk>:
 * \retval 0 Success.
 * \retval 1 Invalid parameter.
 */
uint32_t pmc_enable_periph_clk(uint32_t ul_id)
{
	if (ul_id > MAX_PERIPH_ID) {
  402674:	283f      	cmp	r0, #63	; 0x3f
  402676:	d81e      	bhi.n	4026b6 <pmc_enable_periph_clk+0x42>
		return 1;
	}

	if (ul_id < 32) {
  402678:	281f      	cmp	r0, #31
  40267a:	d80c      	bhi.n	402696 <pmc_enable_periph_clk+0x22>
		if ((PMC->PMC_PCSR0 & (1u << ul_id)) != (1u << ul_id)) {
  40267c:	4b11      	ldr	r3, [pc, #68]	; (4026c4 <pmc_enable_periph_clk+0x50>)
  40267e:	699a      	ldr	r2, [r3, #24]
  402680:	2301      	movs	r3, #1
  402682:	4083      	lsls	r3, r0
  402684:	4393      	bics	r3, r2
  402686:	d018      	beq.n	4026ba <pmc_enable_periph_clk+0x46>
			PMC->PMC_PCER0 = 1 << ul_id;
  402688:	2301      	movs	r3, #1
  40268a:	fa03 f000 	lsl.w	r0, r3, r0
  40268e:	4b0d      	ldr	r3, [pc, #52]	; (4026c4 <pmc_enable_periph_clk+0x50>)
  402690:	6118      	str	r0, [r3, #16]
			PMC->PMC_PCER1 = 1 << ul_id;
		}
#endif
	}

	return 0;
  402692:	2000      	movs	r0, #0
  402694:	4770      	bx	lr
		ul_id -= 32;
  402696:	3820      	subs	r0, #32
		if ((PMC->PMC_PCSR1 & (1u << ul_id)) != (1u << ul_id)) {
  402698:	4b0a      	ldr	r3, [pc, #40]	; (4026c4 <pmc_enable_periph_clk+0x50>)
  40269a:	f8d3 2108 	ldr.w	r2, [r3, #264]	; 0x108
  40269e:	2301      	movs	r3, #1
  4026a0:	4083      	lsls	r3, r0
  4026a2:	4393      	bics	r3, r2
  4026a4:	d00b      	beq.n	4026be <pmc_enable_periph_clk+0x4a>
			PMC->PMC_PCER1 = 1 << ul_id;
  4026a6:	2301      	movs	r3, #1
  4026a8:	fa03 f000 	lsl.w	r0, r3, r0
  4026ac:	4b05      	ldr	r3, [pc, #20]	; (4026c4 <pmc_enable_periph_clk+0x50>)
  4026ae:	f8c3 0100 	str.w	r0, [r3, #256]	; 0x100
	return 0;
  4026b2:	2000      	movs	r0, #0
  4026b4:	4770      	bx	lr
		return 1;
  4026b6:	2001      	movs	r0, #1
  4026b8:	4770      	bx	lr
	return 0;
  4026ba:	2000      	movs	r0, #0
  4026bc:	4770      	bx	lr
  4026be:	2000      	movs	r0, #0
}
  4026c0:	4770      	bx	lr
  4026c2:	bf00      	nop
  4026c4:	400e0600 	.word	0x400e0600

004026c8 <pmc_pck_set_prescaler>:
 *
 * \param ul_id Peripheral ID.
 * \param ul_pres Prescaler value.
 */
void pmc_pck_set_prescaler(uint32_t ul_id, uint32_t ul_pres)
{
  4026c8:	4a09      	ldr	r2, [pc, #36]	; (4026f0 <pmc_pck_set_prescaler+0x28>)
  4026ca:	eb02 0280 	add.w	r2, r2, r0, lsl #2
	PMC->PMC_PCK[ul_id] =
			(PMC->PMC_PCK[ul_id] & ~PMC_PCK_PRES_Msk) | ul_pres;
  4026ce:	6c13      	ldr	r3, [r2, #64]	; 0x40
  4026d0:	f423 637f 	bic.w	r3, r3, #4080	; 0xff0
  4026d4:	4319      	orrs	r1, r3
	PMC->PMC_PCK[ul_id] =
  4026d6:	6411      	str	r1, [r2, #64]	; 0x40
	while ((PMC->PMC_SCER & (PMC_SCER_PCK0 << ul_id))
  4026d8:	f44f 7380 	mov.w	r3, #256	; 0x100
  4026dc:	fa03 f000 	lsl.w	r0, r3, r0
  4026e0:	4b03      	ldr	r3, [pc, #12]	; (4026f0 <pmc_pck_set_prescaler+0x28>)
  4026e2:	681a      	ldr	r2, [r3, #0]
  4026e4:	4202      	tst	r2, r0
  4026e6:	d002      	beq.n	4026ee <pmc_pck_set_prescaler+0x26>
			&& !(PMC->PMC_SR & (PMC_SR_PCKRDY0 << ul_id)));
  4026e8:	6e9a      	ldr	r2, [r3, #104]	; 0x68
  4026ea:	4210      	tst	r0, r2
  4026ec:	d0f9      	beq.n	4026e2 <pmc_pck_set_prescaler+0x1a>
  4026ee:	4770      	bx	lr
  4026f0:	400e0600 	.word	0x400e0600

004026f4 <pmc_pck_set_source>:
 *
 * \param ul_id Peripheral ID.
 * \param ul_source Source selection value.
 */
void pmc_pck_set_source(uint32_t ul_id, uint32_t ul_source)
{
  4026f4:	4a09      	ldr	r2, [pc, #36]	; (40271c <pmc_pck_set_source+0x28>)
  4026f6:	eb02 0280 	add.w	r2, r2, r0, lsl #2
	PMC->PMC_PCK[ul_id] =
			(PMC->PMC_PCK[ul_id] & ~PMC_PCK_CSS_Msk) | ul_source;
  4026fa:	6c13      	ldr	r3, [r2, #64]	; 0x40
  4026fc:	f023 0307 	bic.w	r3, r3, #7
  402700:	4319      	orrs	r1, r3
	PMC->PMC_PCK[ul_id] =
  402702:	6411      	str	r1, [r2, #64]	; 0x40
	while ((PMC->PMC_SCER & (PMC_SCER_PCK0 << ul_id))
  402704:	f44f 7380 	mov.w	r3, #256	; 0x100
  402708:	fa03 f000 	lsl.w	r0, r3, r0
  40270c:	4b03      	ldr	r3, [pc, #12]	; (40271c <pmc_pck_set_source+0x28>)
  40270e:	681a      	ldr	r2, [r3, #0]
  402710:	4202      	tst	r2, r0
  402712:	d002      	beq.n	40271a <pmc_pck_set_source+0x26>
			&& !(PMC->PMC_SR & (PMC_SR_PCKRDY0 << ul_id)));
  402714:	6e9a      	ldr	r2, [r3, #104]	; 0x68
  402716:	4210      	tst	r0, r2
  402718:	d0f9      	beq.n	40270e <pmc_pck_set_source+0x1a>
  40271a:	4770      	bx	lr
  40271c:	400e0600 	.word	0x400e0600

00402720 <pmc_enable_pck>:
 *
 * \param ul_id Id of the programmable clock.
 */
void pmc_enable_pck(uint32_t ul_id)
{
	PMC->PMC_SCER = PMC_SCER_PCK0 << ul_id;
  402720:	f44f 7380 	mov.w	r3, #256	; 0x100
  402724:	fa03 f000 	lsl.w	r0, r3, r0
  402728:	4b01      	ldr	r3, [pc, #4]	; (402730 <pmc_enable_pck+0x10>)
  40272a:	6018      	str	r0, [r3, #0]
  40272c:	4770      	bx	lr
  40272e:	bf00      	nop
  402730:	400e0600 	.word	0x400e0600

00402734 <Dummy_Handler>:

/**
 * \brief Default interrupt handler for unused IRQs.
 */
void Dummy_Handler(void)
{
  402734:	e7fe      	b.n	402734 <Dummy_Handler>
	...

00402738 <Reset_Handler>:
{
  402738:	b500      	push	{lr}
  40273a:	b083      	sub	sp, #12
        if (pSrc != pDest) {
  40273c:	4b25      	ldr	r3, [pc, #148]	; (4027d4 <Reset_Handler+0x9c>)
  40273e:	4a26      	ldr	r2, [pc, #152]	; (4027d8 <Reset_Handler+0xa0>)
  402740:	429a      	cmp	r2, r3
  402742:	d010      	beq.n	402766 <Reset_Handler+0x2e>
                for (; pDest < &_erelocate;) {
  402744:	4b25      	ldr	r3, [pc, #148]	; (4027dc <Reset_Handler+0xa4>)
  402746:	4a23      	ldr	r2, [pc, #140]	; (4027d4 <Reset_Handler+0x9c>)
  402748:	429a      	cmp	r2, r3
  40274a:	d20c      	bcs.n	402766 <Reset_Handler+0x2e>
  40274c:	3b01      	subs	r3, #1
  40274e:	1a9b      	subs	r3, r3, r2
  402750:	f023 0303 	bic.w	r3, r3, #3
  402754:	3304      	adds	r3, #4
  402756:	4413      	add	r3, r2
  402758:	491f      	ldr	r1, [pc, #124]	; (4027d8 <Reset_Handler+0xa0>)
                        *pDest++ = *pSrc++;
  40275a:	f851 0b04 	ldr.w	r0, [r1], #4
  40275e:	f842 0b04 	str.w	r0, [r2], #4
                for (; pDest < &_erelocate;) {
  402762:	429a      	cmp	r2, r3
  402764:	d1f9      	bne.n	40275a <Reset_Handler+0x22>
        for (pDest = &_szero; pDest < &_ezero;) {
  402766:	4b1e      	ldr	r3, [pc, #120]	; (4027e0 <Reset_Handler+0xa8>)
  402768:	4a1e      	ldr	r2, [pc, #120]	; (4027e4 <Reset_Handler+0xac>)
  40276a:	429a      	cmp	r2, r3
  40276c:	d20a      	bcs.n	402784 <Reset_Handler+0x4c>
  40276e:	3b01      	subs	r3, #1
  402770:	1a9b      	subs	r3, r3, r2
  402772:	f023 0303 	bic.w	r3, r3, #3
  402776:	3304      	adds	r3, #4
  402778:	4413      	add	r3, r2
                *pDest++ = 0;
  40277a:	2100      	movs	r1, #0
  40277c:	f842 1b04 	str.w	r1, [r2], #4
        for (pDest = &_szero; pDest < &_ezero;) {
  402780:	4293      	cmp	r3, r2
  402782:	d1fb      	bne.n	40277c <Reset_Handler+0x44>
        SCB->VTOR = ((uint32_t) pSrc & SCB_VTOR_TBLOFF_Msk);
  402784:	4a18      	ldr	r2, [pc, #96]	; (4027e8 <Reset_Handler+0xb0>)
  402786:	4b19      	ldr	r3, [pc, #100]	; (4027ec <Reset_Handler+0xb4>)
  402788:	f023 037f 	bic.w	r3, r3, #127	; 0x7f
  40278c:	6093      	str	r3, [r2, #8]
  __ASM volatile ("MRS %0, primask" : "=r" (result) :: "memory");
  40278e:	f3ef 8310 	mrs	r3, PRIMASK
	volatile irqflags_t flags = cpu_irq_is_enabled();
  402792:	fab3 f383 	clz	r3, r3
  402796:	095b      	lsrs	r3, r3, #5
  402798:	9301      	str	r3, [sp, #4]
  __ASM volatile ("cpsid i" : : : "memory");
  40279a:	b672      	cpsid	i
  __ASM volatile ("dmb 0xF":::"memory");
  40279c:	f3bf 8f5f 	dmb	sy
	cpu_irq_disable();
  4027a0:	2200      	movs	r2, #0
  4027a2:	4b13      	ldr	r3, [pc, #76]	; (4027f0 <Reset_Handler+0xb8>)
  4027a4:	701a      	strb	r2, [r3, #0]
	return flags;
  4027a6:	9901      	ldr	r1, [sp, #4]
  4027a8:	4a12      	ldr	r2, [pc, #72]	; (4027f4 <Reset_Handler+0xbc>)
  4027aa:	6813      	ldr	r3, [r2, #0]
  4027ac:	f443 0370 	orr.w	r3, r3, #15728640	; 0xf00000
  4027b0:	6013      	str	r3, [r2, #0]
  __ASM volatile ("dsb 0xF":::"memory");
  4027b2:	f3bf 8f4f 	dsb	sy
  __ASM volatile ("isb 0xF":::"memory");
  4027b6:	f3bf 8f6f 	isb	sy
	if (cpu_irq_is_enabled_flags(flags))
  4027ba:	b129      	cbz	r1, 4027c8 <Reset_Handler+0x90>
		cpu_irq_enable();
  4027bc:	2201      	movs	r2, #1
  4027be:	4b0c      	ldr	r3, [pc, #48]	; (4027f0 <Reset_Handler+0xb8>)
  4027c0:	701a      	strb	r2, [r3, #0]
  __ASM volatile ("dmb 0xF":::"memory");
  4027c2:	f3bf 8f5f 	dmb	sy
  __ASM volatile ("cpsie i" : : : "memory");
  4027c6:	b662      	cpsie	i
        __libc_init_array();
  4027c8:	4b0b      	ldr	r3, [pc, #44]	; (4027f8 <Reset_Handler+0xc0>)
  4027ca:	4798      	blx	r3
        main();
  4027cc:	4b0b      	ldr	r3, [pc, #44]	; (4027fc <Reset_Handler+0xc4>)
  4027ce:	4798      	blx	r3
  4027d0:	e7fe      	b.n	4027d0 <Reset_Handler+0x98>
  4027d2:	bf00      	nop
  4027d4:	20400000 	.word	0x20400000
  4027d8:	004115fc 	.word	0x004115fc
  4027dc:	204009c8 	.word	0x204009c8
  4027e0:	20440b54 	.word	0x20440b54
  4027e4:	204009c8 	.word	0x204009c8
  4027e8:	e000ed00 	.word	0xe000ed00
  4027ec:	00400000 	.word	0x00400000
  4027f0:	20400010 	.word	0x20400010
  4027f4:	e000ed88 	.word	0xe000ed88
  4027f8:	00403949 	.word	0x00403949
  4027fc:	0040156d 	.word	0x0040156d

00402800 <SystemCoreClockUpdate>:
}

void SystemCoreClockUpdate( void )
{
  /* Determine clock frequency according to clock register values */
  switch (PMC->PMC_MCKR & (uint32_t) PMC_MCKR_CSS_Msk)
  402800:	4b3b      	ldr	r3, [pc, #236]	; (4028f0 <SystemCoreClockUpdate+0xf0>)
  402802:	6b1b      	ldr	r3, [r3, #48]	; 0x30
  402804:	f003 0303 	and.w	r3, r3, #3
  402808:	2b01      	cmp	r3, #1
  40280a:	d01d      	beq.n	402848 <SystemCoreClockUpdate+0x48>
  40280c:	b183      	cbz	r3, 402830 <SystemCoreClockUpdate+0x30>
  40280e:	2b02      	cmp	r3, #2
  402810:	d036      	beq.n	402880 <SystemCoreClockUpdate+0x80>

    default:
    break;
  }

  if ( (PMC->PMC_MCKR & PMC_MCKR_PRES_Msk) == PMC_MCKR_PRES_CLK_3 )
  402812:	4b37      	ldr	r3, [pc, #220]	; (4028f0 <SystemCoreClockUpdate+0xf0>)
  402814:	6b1b      	ldr	r3, [r3, #48]	; 0x30
  402816:	f003 0370 	and.w	r3, r3, #112	; 0x70
  40281a:	2b70      	cmp	r3, #112	; 0x70
  40281c:	d05f      	beq.n	4028de <SystemCoreClockUpdate+0xde>
  {
    SystemCoreClock /= 3U;
  }
  else
  {
    SystemCoreClock >>= ((PMC->PMC_MCKR & PMC_MCKR_PRES_Msk) >> PMC_MCKR_PRES_Pos);
  40281e:	4b34      	ldr	r3, [pc, #208]	; (4028f0 <SystemCoreClockUpdate+0xf0>)
  402820:	6b1a      	ldr	r2, [r3, #48]	; 0x30
  402822:	4934      	ldr	r1, [pc, #208]	; (4028f4 <SystemCoreClockUpdate+0xf4>)
  402824:	f3c2 1202 	ubfx	r2, r2, #4, #3
  402828:	680b      	ldr	r3, [r1, #0]
  40282a:	40d3      	lsrs	r3, r2
  40282c:	600b      	str	r3, [r1, #0]
  40282e:	4770      	bx	lr
      if ( SUPC->SUPC_SR & SUPC_SR_OSCSEL )
  402830:	4b31      	ldr	r3, [pc, #196]	; (4028f8 <SystemCoreClockUpdate+0xf8>)
  402832:	695b      	ldr	r3, [r3, #20]
  402834:	f013 0f80 	tst.w	r3, #128	; 0x80
        SystemCoreClock = CHIP_FREQ_XTAL_32K;
  402838:	bf14      	ite	ne
  40283a:	f44f 4200 	movne.w	r2, #32768	; 0x8000
        SystemCoreClock = CHIP_FREQ_SLCK_RC;
  40283e:	f44f 42fa 	moveq.w	r2, #32000	; 0x7d00
  402842:	4b2c      	ldr	r3, [pc, #176]	; (4028f4 <SystemCoreClockUpdate+0xf4>)
  402844:	601a      	str	r2, [r3, #0]
  402846:	e7e4      	b.n	402812 <SystemCoreClockUpdate+0x12>
      if ( PMC->CKGR_MOR & CKGR_MOR_MOSCSEL )
  402848:	4b29      	ldr	r3, [pc, #164]	; (4028f0 <SystemCoreClockUpdate+0xf0>)
  40284a:	6a1b      	ldr	r3, [r3, #32]
  40284c:	f013 7f80 	tst.w	r3, #16777216	; 0x1000000
  402850:	d003      	beq.n	40285a <SystemCoreClockUpdate+0x5a>
        SystemCoreClock = CHIP_FREQ_XTAL_12M;
  402852:	4a2a      	ldr	r2, [pc, #168]	; (4028fc <SystemCoreClockUpdate+0xfc>)
  402854:	4b27      	ldr	r3, [pc, #156]	; (4028f4 <SystemCoreClockUpdate+0xf4>)
  402856:	601a      	str	r2, [r3, #0]
  402858:	e7db      	b.n	402812 <SystemCoreClockUpdate+0x12>
        SystemCoreClock = CHIP_FREQ_MAINCK_RC_4MHZ;
  40285a:	4a29      	ldr	r2, [pc, #164]	; (402900 <SystemCoreClockUpdate+0x100>)
  40285c:	4b25      	ldr	r3, [pc, #148]	; (4028f4 <SystemCoreClockUpdate+0xf4>)
  40285e:	601a      	str	r2, [r3, #0]
        switch ( PMC->CKGR_MOR & CKGR_MOR_MOSCRCF_Msk )
  402860:	4b23      	ldr	r3, [pc, #140]	; (4028f0 <SystemCoreClockUpdate+0xf0>)
  402862:	6a1b      	ldr	r3, [r3, #32]
  402864:	f003 0370 	and.w	r3, r3, #112	; 0x70
  402868:	2b10      	cmp	r3, #16
  40286a:	d005      	beq.n	402878 <SystemCoreClockUpdate+0x78>
  40286c:	2b20      	cmp	r3, #32
  40286e:	d1d0      	bne.n	402812 <SystemCoreClockUpdate+0x12>
            SystemCoreClock *= 3U;
  402870:	4a22      	ldr	r2, [pc, #136]	; (4028fc <SystemCoreClockUpdate+0xfc>)
  402872:	4b20      	ldr	r3, [pc, #128]	; (4028f4 <SystemCoreClockUpdate+0xf4>)
  402874:	601a      	str	r2, [r3, #0]
          break;
  402876:	e7cc      	b.n	402812 <SystemCoreClockUpdate+0x12>
            SystemCoreClock *= 2U;
  402878:	4a22      	ldr	r2, [pc, #136]	; (402904 <SystemCoreClockUpdate+0x104>)
  40287a:	4b1e      	ldr	r3, [pc, #120]	; (4028f4 <SystemCoreClockUpdate+0xf4>)
  40287c:	601a      	str	r2, [r3, #0]
          break;
  40287e:	e7c8      	b.n	402812 <SystemCoreClockUpdate+0x12>
      if ( PMC->CKGR_MOR & CKGR_MOR_MOSCSEL )
  402880:	4b1b      	ldr	r3, [pc, #108]	; (4028f0 <SystemCoreClockUpdate+0xf0>)
  402882:	6a1b      	ldr	r3, [r3, #32]
  402884:	f013 7f80 	tst.w	r3, #16777216	; 0x1000000
  402888:	d016      	beq.n	4028b8 <SystemCoreClockUpdate+0xb8>
        SystemCoreClock = CHIP_FREQ_XTAL_12M ;
  40288a:	4a1c      	ldr	r2, [pc, #112]	; (4028fc <SystemCoreClockUpdate+0xfc>)
  40288c:	4b19      	ldr	r3, [pc, #100]	; (4028f4 <SystemCoreClockUpdate+0xf4>)
  40288e:	601a      	str	r2, [r3, #0]
      if ( (uint32_t) (PMC->PMC_MCKR & (uint32_t) PMC_MCKR_CSS_Msk) == PMC_MCKR_CSS_PLLA_CLK )
  402890:	4b17      	ldr	r3, [pc, #92]	; (4028f0 <SystemCoreClockUpdate+0xf0>)
  402892:	6b1b      	ldr	r3, [r3, #48]	; 0x30
  402894:	f003 0303 	and.w	r3, r3, #3
  402898:	2b02      	cmp	r3, #2
  40289a:	d1ba      	bne.n	402812 <SystemCoreClockUpdate+0x12>
        SystemCoreClock *= ((((PMC->CKGR_PLLAR) & CKGR_PLLAR_MULA_Msk) >> CKGR_PLLAR_MULA_Pos) + 1U);
  40289c:	4a14      	ldr	r2, [pc, #80]	; (4028f0 <SystemCoreClockUpdate+0xf0>)
  40289e:	6a91      	ldr	r1, [r2, #40]	; 0x28
        SystemCoreClock /= ((((PMC->CKGR_PLLAR) & CKGR_PLLAR_DIVA_Msk) >> CKGR_PLLAR_DIVA_Pos));
  4028a0:	6a92      	ldr	r2, [r2, #40]	; 0x28
  4028a2:	4814      	ldr	r0, [pc, #80]	; (4028f4 <SystemCoreClockUpdate+0xf4>)
        SystemCoreClock *= ((((PMC->CKGR_PLLAR) & CKGR_PLLAR_MULA_Msk) >> CKGR_PLLAR_MULA_Pos) + 1U);
  4028a4:	f3c1 410a 	ubfx	r1, r1, #16, #11
  4028a8:	6803      	ldr	r3, [r0, #0]
  4028aa:	fb01 3303 	mla	r3, r1, r3, r3
        SystemCoreClock /= ((((PMC->CKGR_PLLAR) & CKGR_PLLAR_DIVA_Msk) >> CKGR_PLLAR_DIVA_Pos));
  4028ae:	b2d2      	uxtb	r2, r2
  4028b0:	fbb3 f3f2 	udiv	r3, r3, r2
  4028b4:	6003      	str	r3, [r0, #0]
  4028b6:	e7ac      	b.n	402812 <SystemCoreClockUpdate+0x12>
        SystemCoreClock = CHIP_FREQ_MAINCK_RC_4MHZ;
  4028b8:	4a11      	ldr	r2, [pc, #68]	; (402900 <SystemCoreClockUpdate+0x100>)
  4028ba:	4b0e      	ldr	r3, [pc, #56]	; (4028f4 <SystemCoreClockUpdate+0xf4>)
  4028bc:	601a      	str	r2, [r3, #0]
        switch ( PMC->CKGR_MOR & CKGR_MOR_MOSCRCF_Msk )
  4028be:	4b0c      	ldr	r3, [pc, #48]	; (4028f0 <SystemCoreClockUpdate+0xf0>)
  4028c0:	6a1b      	ldr	r3, [r3, #32]
  4028c2:	f003 0370 	and.w	r3, r3, #112	; 0x70
  4028c6:	2b10      	cmp	r3, #16
  4028c8:	d005      	beq.n	4028d6 <SystemCoreClockUpdate+0xd6>
  4028ca:	2b20      	cmp	r3, #32
  4028cc:	d1e0      	bne.n	402890 <SystemCoreClockUpdate+0x90>
            SystemCoreClock *= 3U;
  4028ce:	4a0b      	ldr	r2, [pc, #44]	; (4028fc <SystemCoreClockUpdate+0xfc>)
  4028d0:	4b08      	ldr	r3, [pc, #32]	; (4028f4 <SystemCoreClockUpdate+0xf4>)
  4028d2:	601a      	str	r2, [r3, #0]
          break;
  4028d4:	e7dc      	b.n	402890 <SystemCoreClockUpdate+0x90>
            SystemCoreClock *= 2U;
  4028d6:	4a0b      	ldr	r2, [pc, #44]	; (402904 <SystemCoreClockUpdate+0x104>)
  4028d8:	4b06      	ldr	r3, [pc, #24]	; (4028f4 <SystemCoreClockUpdate+0xf4>)
  4028da:	601a      	str	r2, [r3, #0]
          break;
  4028dc:	e7d8      	b.n	402890 <SystemCoreClockUpdate+0x90>
    SystemCoreClock /= 3U;
  4028de:	4a05      	ldr	r2, [pc, #20]	; (4028f4 <SystemCoreClockUpdate+0xf4>)
  4028e0:	6813      	ldr	r3, [r2, #0]
  4028e2:	4909      	ldr	r1, [pc, #36]	; (402908 <SystemCoreClockUpdate+0x108>)
  4028e4:	fba1 1303 	umull	r1, r3, r1, r3
  4028e8:	085b      	lsrs	r3, r3, #1
  4028ea:	6013      	str	r3, [r2, #0]
  4028ec:	4770      	bx	lr
  4028ee:	bf00      	nop
  4028f0:	400e0600 	.word	0x400e0600
  4028f4:	20400014 	.word	0x20400014
  4028f8:	400e1810 	.word	0x400e1810
  4028fc:	00b71b00 	.word	0x00b71b00
  402900:	003d0900 	.word	0x003d0900
  402904:	007a1200 	.word	0x007a1200
  402908:	aaaaaaab 	.word	0xaaaaaaab

0040290c <system_init_flash>:
 * Initialize flash.
 */
void system_init_flash( uint32_t ul_clk )
{
  /* Set FWS for embedded Flash access according to operating frequency */
  if ( ul_clk < CHIP_FREQ_FWS_0 )
  40290c:	4b16      	ldr	r3, [pc, #88]	; (402968 <system_init_flash+0x5c>)
  40290e:	4298      	cmp	r0, r3
  402910:	d913      	bls.n	40293a <system_init_flash+0x2e>
  {
    EFC->EEFC_FMR = EEFC_FMR_FWS(0)|EEFC_FMR_CLOE;
  }
  else
  {
    if (ul_clk < CHIP_FREQ_FWS_1)
  402912:	4b16      	ldr	r3, [pc, #88]	; (40296c <system_init_flash+0x60>)
  402914:	4298      	cmp	r0, r3
  402916:	d915      	bls.n	402944 <system_init_flash+0x38>
    {
      EFC->EEFC_FMR = EEFC_FMR_FWS(1)|EEFC_FMR_CLOE;
    }
    else
    {
      if (ul_clk < CHIP_FREQ_FWS_2)
  402918:	4b15      	ldr	r3, [pc, #84]	; (402970 <system_init_flash+0x64>)
  40291a:	4298      	cmp	r0, r3
  40291c:	d916      	bls.n	40294c <system_init_flash+0x40>
      {
        EFC->EEFC_FMR = EEFC_FMR_FWS(2)|EEFC_FMR_CLOE;
      }
      else
      {
        if ( ul_clk < CHIP_FREQ_FWS_3 )
  40291e:	4b15      	ldr	r3, [pc, #84]	; (402974 <system_init_flash+0x68>)
  402920:	4298      	cmp	r0, r3
  402922:	d917      	bls.n	402954 <system_init_flash+0x48>
        {
          EFC->EEFC_FMR = EEFC_FMR_FWS(3)|EEFC_FMR_CLOE;
        }
        else
        {
          if ( ul_clk < CHIP_FREQ_FWS_4 )
  402924:	4b14      	ldr	r3, [pc, #80]	; (402978 <system_init_flash+0x6c>)
  402926:	4298      	cmp	r0, r3
  402928:	d918      	bls.n	40295c <system_init_flash+0x50>
          {
            EFC->EEFC_FMR = EEFC_FMR_FWS(4)|EEFC_FMR_CLOE;
          }
          else
          {
            if ( ul_clk < CHIP_FREQ_FWS_5 )
  40292a:	4b14      	ldr	r3, [pc, #80]	; (40297c <system_init_flash+0x70>)
  40292c:	4298      	cmp	r0, r3
            {
              EFC->EEFC_FMR = EEFC_FMR_FWS(5)|EEFC_FMR_CLOE;
  40292e:	bf94      	ite	ls
  402930:	4a13      	ldrls	r2, [pc, #76]	; (402980 <system_init_flash+0x74>)
            }
            else
            {
              EFC->EEFC_FMR = EEFC_FMR_FWS(6)|EEFC_FMR_CLOE;
  402932:	4a14      	ldrhi	r2, [pc, #80]	; (402984 <system_init_flash+0x78>)
  402934:	4b14      	ldr	r3, [pc, #80]	; (402988 <system_init_flash+0x7c>)
  402936:	601a      	str	r2, [r3, #0]
  402938:	4770      	bx	lr
    EFC->EEFC_FMR = EEFC_FMR_FWS(0)|EEFC_FMR_CLOE;
  40293a:	f04f 6280 	mov.w	r2, #67108864	; 0x4000000
  40293e:	4b12      	ldr	r3, [pc, #72]	; (402988 <system_init_flash+0x7c>)
  402940:	601a      	str	r2, [r3, #0]
  402942:	4770      	bx	lr
      EFC->EEFC_FMR = EEFC_FMR_FWS(1)|EEFC_FMR_CLOE;
  402944:	4a11      	ldr	r2, [pc, #68]	; (40298c <system_init_flash+0x80>)
  402946:	4b10      	ldr	r3, [pc, #64]	; (402988 <system_init_flash+0x7c>)
  402948:	601a      	str	r2, [r3, #0]
  40294a:	4770      	bx	lr
        EFC->EEFC_FMR = EEFC_FMR_FWS(2)|EEFC_FMR_CLOE;
  40294c:	4a10      	ldr	r2, [pc, #64]	; (402990 <system_init_flash+0x84>)
  40294e:	4b0e      	ldr	r3, [pc, #56]	; (402988 <system_init_flash+0x7c>)
  402950:	601a      	str	r2, [r3, #0]
  402952:	4770      	bx	lr
          EFC->EEFC_FMR = EEFC_FMR_FWS(3)|EEFC_FMR_CLOE;
  402954:	4a0f      	ldr	r2, [pc, #60]	; (402994 <system_init_flash+0x88>)
  402956:	4b0c      	ldr	r3, [pc, #48]	; (402988 <system_init_flash+0x7c>)
  402958:	601a      	str	r2, [r3, #0]
  40295a:	4770      	bx	lr
            EFC->EEFC_FMR = EEFC_FMR_FWS(4)|EEFC_FMR_CLOE;
  40295c:	f04f 2204 	mov.w	r2, #67109888	; 0x4000400
  402960:	4b09      	ldr	r3, [pc, #36]	; (402988 <system_init_flash+0x7c>)
  402962:	601a      	str	r2, [r3, #0]
  402964:	4770      	bx	lr
  402966:	bf00      	nop
  402968:	015ef3bf 	.word	0x015ef3bf
  40296c:	02bde77f 	.word	0x02bde77f
  402970:	041cdb3f 	.word	0x041cdb3f
  402974:	057bceff 	.word	0x057bceff
  402978:	06dac2bf 	.word	0x06dac2bf
  40297c:	0839b67f 	.word	0x0839b67f
  402980:	04000500 	.word	0x04000500
  402984:	04000600 	.word	0x04000600
  402988:	400e0c00 	.word	0x400e0c00
  40298c:	04000100 	.word	0x04000100
  402990:	04000200 	.word	0x04000200
  402994:	04000300 	.word	0x04000300

00402998 <_sbrk>:
{
	static unsigned char *heap = NULL;
	unsigned char *prev_heap;
	int ramend = (int)&__ram_end__;

	if (heap == NULL) {
  402998:	4b0a      	ldr	r3, [pc, #40]	; (4029c4 <_sbrk+0x2c>)
  40299a:	681b      	ldr	r3, [r3, #0]
  40299c:	b153      	cbz	r3, 4029b4 <_sbrk+0x1c>
		heap = (unsigned char *)&_end;
	}
	prev_heap = heap;
  40299e:	4b09      	ldr	r3, [pc, #36]	; (4029c4 <_sbrk+0x2c>)
  4029a0:	681b      	ldr	r3, [r3, #0]

	if (((int)prev_heap + incr) > ramend) {
  4029a2:	181a      	adds	r2, r3, r0
  4029a4:	4908      	ldr	r1, [pc, #32]	; (4029c8 <_sbrk+0x30>)
  4029a6:	4291      	cmp	r1, r2
  4029a8:	db08      	blt.n	4029bc <_sbrk+0x24>
		return (caddr_t) -1;	
	}

	heap += incr;
  4029aa:	4610      	mov	r0, r2
  4029ac:	4a05      	ldr	r2, [pc, #20]	; (4029c4 <_sbrk+0x2c>)
  4029ae:	6010      	str	r0, [r2, #0]

	return (caddr_t) prev_heap;
  4029b0:	4618      	mov	r0, r3
  4029b2:	4770      	bx	lr
		heap = (unsigned char *)&_end;
  4029b4:	4a05      	ldr	r2, [pc, #20]	; (4029cc <_sbrk+0x34>)
  4029b6:	4b03      	ldr	r3, [pc, #12]	; (4029c4 <_sbrk+0x2c>)
  4029b8:	601a      	str	r2, [r3, #0]
  4029ba:	e7f0      	b.n	40299e <_sbrk+0x6>
		return (caddr_t) -1;	
  4029bc:	f04f 30ff 	mov.w	r0, #4294967295
}
  4029c0:	4770      	bx	lr
  4029c2:	bf00      	nop
  4029c4:	20410adc 	.word	0x20410adc
  4029c8:	2045fffc 	.word	0x2045fffc
  4029cc:	20442d58 	.word	0x20442d58

004029d0 <_close>:
}

extern int _close(int file)
{
	return -1;
}
  4029d0:	f04f 30ff 	mov.w	r0, #4294967295
  4029d4:	4770      	bx	lr

004029d6 <_fstat>:

extern int _fstat(int file, struct stat *st)
{
	st->st_mode = S_IFCHR;
  4029d6:	f44f 5300 	mov.w	r3, #8192	; 0x2000
  4029da:	604b      	str	r3, [r1, #4]

	return 0;
}
  4029dc:	2000      	movs	r0, #0
  4029de:	4770      	bx	lr

004029e0 <_isatty>:

extern int _isatty(int file)
{
	return 1;
}
  4029e0:	2001      	movs	r0, #1
  4029e2:	4770      	bx	lr

004029e4 <_lseek>:

extern int _lseek(int file, int ptr, int dir)
{
	return 0;
}
  4029e4:	2000      	movs	r0, #0
  4029e6:	4770      	bx	lr

004029e8 <sqrtf>:
  4029e8:	b5f0      	push	{r4, r5, r6, r7, lr}
  4029ea:	b08b      	sub	sp, #44	; 0x2c
  4029ec:	4604      	mov	r4, r0
  4029ee:	f000 f84b 	bl	402a88 <__ieee754_sqrtf>
  4029f2:	4b23      	ldr	r3, [pc, #140]	; (402a80 <sqrtf+0x98>)
  4029f4:	f993 5000 	ldrsb.w	r5, [r3]
  4029f8:	1c6b      	adds	r3, r5, #1
  4029fa:	4606      	mov	r6, r0
  4029fc:	d00a      	beq.n	402a14 <sqrtf+0x2c>
  4029fe:	4621      	mov	r1, r4
  402a00:	4620      	mov	r0, r4
  402a02:	f000 ff85 	bl	403910 <__aeabi_fcmpun>
  402a06:	4607      	mov	r7, r0
  402a08:	b920      	cbnz	r0, 402a14 <sqrtf+0x2c>
  402a0a:	2100      	movs	r1, #0
  402a0c:	4620      	mov	r0, r4
  402a0e:	f000 ff57 	bl	4038c0 <__aeabi_fcmplt>
  402a12:	b910      	cbnz	r0, 402a1a <sqrtf+0x32>
  402a14:	4630      	mov	r0, r6
  402a16:	b00b      	add	sp, #44	; 0x2c
  402a18:	bdf0      	pop	{r4, r5, r6, r7, pc}
  402a1a:	4b1a      	ldr	r3, [pc, #104]	; (402a84 <sqrtf+0x9c>)
  402a1c:	9708      	str	r7, [sp, #32]
  402a1e:	2201      	movs	r2, #1
  402a20:	4620      	mov	r0, r4
  402a22:	e88d 000c 	stmia.w	sp, {r2, r3}
  402a26:	f000 f9e9 	bl	402dfc <__aeabi_f2d>
  402a2a:	2200      	movs	r2, #0
  402a2c:	e9cd 0104 	strd	r0, r1, [sp, #16]
  402a30:	e9cd 0102 	strd	r0, r1, [sp, #8]
  402a34:	2300      	movs	r3, #0
  402a36:	b1ad      	cbz	r5, 402a64 <sqrtf+0x7c>
  402a38:	4610      	mov	r0, r2
  402a3a:	4619      	mov	r1, r3
  402a3c:	f000 fb5c 	bl	4030f8 <__aeabi_ddiv>
  402a40:	2d02      	cmp	r5, #2
  402a42:	e9cd 0106 	strd	r0, r1, [sp, #24]
  402a46:	d10f      	bne.n	402a68 <sqrtf+0x80>
  402a48:	f000 ff78 	bl	40393c <__errno>
  402a4c:	2321      	movs	r3, #33	; 0x21
  402a4e:	6003      	str	r3, [r0, #0]
  402a50:	9b08      	ldr	r3, [sp, #32]
  402a52:	b97b      	cbnz	r3, 402a74 <sqrtf+0x8c>
  402a54:	e9dd 0106 	ldrd	r0, r1, [sp, #24]
  402a58:	f000 fc36 	bl	4032c8 <__aeabi_d2f>
  402a5c:	4606      	mov	r6, r0
  402a5e:	4630      	mov	r0, r6
  402a60:	b00b      	add	sp, #44	; 0x2c
  402a62:	bdf0      	pop	{r4, r5, r6, r7, pc}
  402a64:	e9cd 2306 	strd	r2, r3, [sp, #24]
  402a68:	4668      	mov	r0, sp
  402a6a:	f000 f861 	bl	402b30 <matherr>
  402a6e:	2800      	cmp	r0, #0
  402a70:	d1ee      	bne.n	402a50 <sqrtf+0x68>
  402a72:	e7e9      	b.n	402a48 <sqrtf+0x60>
  402a74:	f000 ff62 	bl	40393c <__errno>
  402a78:	9b08      	ldr	r3, [sp, #32]
  402a7a:	6003      	str	r3, [r0, #0]
  402a7c:	e7ea      	b.n	402a54 <sqrtf+0x6c>
  402a7e:	bf00      	nop
  402a80:	20400018 	.word	0x20400018
  402a84:	00411460 	.word	0x00411460

00402a88 <__ieee754_sqrtf>:
  402a88:	f020 4200 	bic.w	r2, r0, #2147483648	; 0x80000000
  402a8c:	f1b2 4fff 	cmp.w	r2, #2139095040	; 0x7f800000
  402a90:	b5f8      	push	{r3, r4, r5, r6, r7, lr}
  402a92:	4604      	mov	r4, r0
  402a94:	d22e      	bcs.n	402af4 <__ieee754_sqrtf+0x6c>
  402a96:	b362      	cbz	r2, 402af2 <__ieee754_sqrtf+0x6a>
  402a98:	2800      	cmp	r0, #0
  402a9a:	4603      	mov	r3, r0
  402a9c:	db3d      	blt.n	402b1a <__ieee754_sqrtf+0x92>
  402a9e:	f5b2 0f00 	cmp.w	r2, #8388608	; 0x800000
  402aa2:	ea4f 50e0 	mov.w	r0, r0, asr #23
  402aa6:	d32c      	bcc.n	402b02 <__ieee754_sqrtf+0x7a>
  402aa8:	387f      	subs	r0, #127	; 0x7f
  402aaa:	f3c3 0316 	ubfx	r3, r3, #0, #23
  402aae:	f443 0300 	orr.w	r3, r3, #8388608	; 0x800000
  402ab2:	07c2      	lsls	r2, r0, #31
  402ab4:	bf48      	it	mi
  402ab6:	005b      	lslmi	r3, r3, #1
  402ab8:	2600      	movs	r6, #0
  402aba:	1047      	asrs	r7, r0, #1
  402abc:	005b      	lsls	r3, r3, #1
  402abe:	4631      	mov	r1, r6
  402ac0:	2419      	movs	r4, #25
  402ac2:	f04f 7280 	mov.w	r2, #16777216	; 0x1000000
  402ac6:	188d      	adds	r5, r1, r2
  402ac8:	429d      	cmp	r5, r3
  402aca:	dc02      	bgt.n	402ad2 <__ieee754_sqrtf+0x4a>
  402acc:	1b5b      	subs	r3, r3, r5
  402ace:	18a9      	adds	r1, r5, r2
  402ad0:	4416      	add	r6, r2
  402ad2:	3c01      	subs	r4, #1
  402ad4:	ea4f 0343 	mov.w	r3, r3, lsl #1
  402ad8:	ea4f 0252 	mov.w	r2, r2, lsr #1
  402adc:	d1f3      	bne.n	402ac6 <__ieee754_sqrtf+0x3e>
  402ade:	b113      	cbz	r3, 402ae6 <__ieee754_sqrtf+0x5e>
  402ae0:	3601      	adds	r6, #1
  402ae2:	f026 0601 	bic.w	r6, r6, #1
  402ae6:	1070      	asrs	r0, r6, #1
  402ae8:	f100 507c 	add.w	r0, r0, #1056964608	; 0x3f000000
  402aec:	eb00 50c7 	add.w	r0, r0, r7, lsl #23
  402af0:	bdf8      	pop	{r3, r4, r5, r6, r7, pc}
  402af2:	bdf8      	pop	{r3, r4, r5, r6, r7, pc}
  402af4:	4601      	mov	r1, r0
  402af6:	f000 fd45 	bl	403584 <__aeabi_fmul>
  402afa:	4621      	mov	r1, r4
  402afc:	f000 fc3a 	bl	403374 <__addsf3>
  402b00:	bdf8      	pop	{r3, r4, r5, r6, r7, pc}
  402b02:	f414 0200 	ands.w	r2, r4, #8388608	; 0x800000
  402b06:	d001      	beq.n	402b0c <__ieee754_sqrtf+0x84>
  402b08:	e00e      	b.n	402b28 <__ieee754_sqrtf+0xa0>
  402b0a:	460a      	mov	r2, r1
  402b0c:	005b      	lsls	r3, r3, #1
  402b0e:	021c      	lsls	r4, r3, #8
  402b10:	f102 0101 	add.w	r1, r2, #1
  402b14:	d5f9      	bpl.n	402b0a <__ieee754_sqrtf+0x82>
  402b16:	1a80      	subs	r0, r0, r2
  402b18:	e7c6      	b.n	402aa8 <__ieee754_sqrtf+0x20>
  402b1a:	4601      	mov	r1, r0
  402b1c:	f000 fc28 	bl	403370 <__aeabi_fsub>
  402b20:	4601      	mov	r1, r0
  402b22:	f000 fde3 	bl	4036ec <__aeabi_fdiv>
  402b26:	bdf8      	pop	{r3, r4, r5, r6, r7, pc}
  402b28:	f04f 32ff 	mov.w	r2, #4294967295
  402b2c:	e7f3      	b.n	402b16 <__ieee754_sqrtf+0x8e>
  402b2e:	bf00      	nop

00402b30 <matherr>:
  402b30:	2000      	movs	r0, #0
  402b32:	4770      	bx	lr

00402b34 <__aeabi_drsub>:
  402b34:	f081 4100 	eor.w	r1, r1, #2147483648	; 0x80000000
  402b38:	e002      	b.n	402b40 <__adddf3>
  402b3a:	bf00      	nop

00402b3c <__aeabi_dsub>:
  402b3c:	f083 4300 	eor.w	r3, r3, #2147483648	; 0x80000000

00402b40 <__adddf3>:
  402b40:	b530      	push	{r4, r5, lr}
  402b42:	ea4f 0441 	mov.w	r4, r1, lsl #1
  402b46:	ea4f 0543 	mov.w	r5, r3, lsl #1
  402b4a:	ea94 0f05 	teq	r4, r5
  402b4e:	bf08      	it	eq
  402b50:	ea90 0f02 	teqeq	r0, r2
  402b54:	bf1f      	itttt	ne
  402b56:	ea54 0c00 	orrsne.w	ip, r4, r0
  402b5a:	ea55 0c02 	orrsne.w	ip, r5, r2
  402b5e:	ea7f 5c64 	mvnsne.w	ip, r4, asr #21
  402b62:	ea7f 5c65 	mvnsne.w	ip, r5, asr #21
  402b66:	f000 80e2 	beq.w	402d2e <__adddf3+0x1ee>
  402b6a:	ea4f 5454 	mov.w	r4, r4, lsr #21
  402b6e:	ebd4 5555 	rsbs	r5, r4, r5, lsr #21
  402b72:	bfb8      	it	lt
  402b74:	426d      	neglt	r5, r5
  402b76:	dd0c      	ble.n	402b92 <__adddf3+0x52>
  402b78:	442c      	add	r4, r5
  402b7a:	ea80 0202 	eor.w	r2, r0, r2
  402b7e:	ea81 0303 	eor.w	r3, r1, r3
  402b82:	ea82 0000 	eor.w	r0, r2, r0
  402b86:	ea83 0101 	eor.w	r1, r3, r1
  402b8a:	ea80 0202 	eor.w	r2, r0, r2
  402b8e:	ea81 0303 	eor.w	r3, r1, r3
  402b92:	2d36      	cmp	r5, #54	; 0x36
  402b94:	bf88      	it	hi
  402b96:	bd30      	pophi	{r4, r5, pc}
  402b98:	f011 4f00 	tst.w	r1, #2147483648	; 0x80000000
  402b9c:	ea4f 3101 	mov.w	r1, r1, lsl #12
  402ba0:	f44f 1c80 	mov.w	ip, #1048576	; 0x100000
  402ba4:	ea4c 3111 	orr.w	r1, ip, r1, lsr #12
  402ba8:	d002      	beq.n	402bb0 <__adddf3+0x70>
  402baa:	4240      	negs	r0, r0
  402bac:	eb61 0141 	sbc.w	r1, r1, r1, lsl #1
  402bb0:	f013 4f00 	tst.w	r3, #2147483648	; 0x80000000
  402bb4:	ea4f 3303 	mov.w	r3, r3, lsl #12
  402bb8:	ea4c 3313 	orr.w	r3, ip, r3, lsr #12
  402bbc:	d002      	beq.n	402bc4 <__adddf3+0x84>
  402bbe:	4252      	negs	r2, r2
  402bc0:	eb63 0343 	sbc.w	r3, r3, r3, lsl #1
  402bc4:	ea94 0f05 	teq	r4, r5
  402bc8:	f000 80a7 	beq.w	402d1a <__adddf3+0x1da>
  402bcc:	f1a4 0401 	sub.w	r4, r4, #1
  402bd0:	f1d5 0e20 	rsbs	lr, r5, #32
  402bd4:	db0d      	blt.n	402bf2 <__adddf3+0xb2>
  402bd6:	fa02 fc0e 	lsl.w	ip, r2, lr
  402bda:	fa22 f205 	lsr.w	r2, r2, r5
  402bde:	1880      	adds	r0, r0, r2
  402be0:	f141 0100 	adc.w	r1, r1, #0
  402be4:	fa03 f20e 	lsl.w	r2, r3, lr
  402be8:	1880      	adds	r0, r0, r2
  402bea:	fa43 f305 	asr.w	r3, r3, r5
  402bee:	4159      	adcs	r1, r3
  402bf0:	e00e      	b.n	402c10 <__adddf3+0xd0>
  402bf2:	f1a5 0520 	sub.w	r5, r5, #32
  402bf6:	f10e 0e20 	add.w	lr, lr, #32
  402bfa:	2a01      	cmp	r2, #1
  402bfc:	fa03 fc0e 	lsl.w	ip, r3, lr
  402c00:	bf28      	it	cs
  402c02:	f04c 0c02 	orrcs.w	ip, ip, #2
  402c06:	fa43 f305 	asr.w	r3, r3, r5
  402c0a:	18c0      	adds	r0, r0, r3
  402c0c:	eb51 71e3 	adcs.w	r1, r1, r3, asr #31
  402c10:	f001 4500 	and.w	r5, r1, #2147483648	; 0x80000000
  402c14:	d507      	bpl.n	402c26 <__adddf3+0xe6>
  402c16:	f04f 0e00 	mov.w	lr, #0
  402c1a:	f1dc 0c00 	rsbs	ip, ip, #0
  402c1e:	eb7e 0000 	sbcs.w	r0, lr, r0
  402c22:	eb6e 0101 	sbc.w	r1, lr, r1
  402c26:	f5b1 1f80 	cmp.w	r1, #1048576	; 0x100000
  402c2a:	d31b      	bcc.n	402c64 <__adddf3+0x124>
  402c2c:	f5b1 1f00 	cmp.w	r1, #2097152	; 0x200000
  402c30:	d30c      	bcc.n	402c4c <__adddf3+0x10c>
  402c32:	0849      	lsrs	r1, r1, #1
  402c34:	ea5f 0030 	movs.w	r0, r0, rrx
  402c38:	ea4f 0c3c 	mov.w	ip, ip, rrx
  402c3c:	f104 0401 	add.w	r4, r4, #1
  402c40:	ea4f 5244 	mov.w	r2, r4, lsl #21
  402c44:	f512 0f80 	cmn.w	r2, #4194304	; 0x400000
  402c48:	f080 809a 	bcs.w	402d80 <__adddf3+0x240>
  402c4c:	f1bc 4f00 	cmp.w	ip, #2147483648	; 0x80000000
  402c50:	bf08      	it	eq
  402c52:	ea5f 0c50 	movseq.w	ip, r0, lsr #1
  402c56:	f150 0000 	adcs.w	r0, r0, #0
  402c5a:	eb41 5104 	adc.w	r1, r1, r4, lsl #20
  402c5e:	ea41 0105 	orr.w	r1, r1, r5
  402c62:	bd30      	pop	{r4, r5, pc}
  402c64:	ea5f 0c4c 	movs.w	ip, ip, lsl #1
  402c68:	4140      	adcs	r0, r0
  402c6a:	eb41 0101 	adc.w	r1, r1, r1
  402c6e:	f411 1f80 	tst.w	r1, #1048576	; 0x100000
  402c72:	f1a4 0401 	sub.w	r4, r4, #1
  402c76:	d1e9      	bne.n	402c4c <__adddf3+0x10c>
  402c78:	f091 0f00 	teq	r1, #0
  402c7c:	bf04      	itt	eq
  402c7e:	4601      	moveq	r1, r0
  402c80:	2000      	moveq	r0, #0
  402c82:	fab1 f381 	clz	r3, r1
  402c86:	bf08      	it	eq
  402c88:	3320      	addeq	r3, #32
  402c8a:	f1a3 030b 	sub.w	r3, r3, #11
  402c8e:	f1b3 0220 	subs.w	r2, r3, #32
  402c92:	da0c      	bge.n	402cae <__adddf3+0x16e>
  402c94:	320c      	adds	r2, #12
  402c96:	dd08      	ble.n	402caa <__adddf3+0x16a>
  402c98:	f102 0c14 	add.w	ip, r2, #20
  402c9c:	f1c2 020c 	rsb	r2, r2, #12
  402ca0:	fa01 f00c 	lsl.w	r0, r1, ip
  402ca4:	fa21 f102 	lsr.w	r1, r1, r2
  402ca8:	e00c      	b.n	402cc4 <__adddf3+0x184>
  402caa:	f102 0214 	add.w	r2, r2, #20
  402cae:	bfd8      	it	le
  402cb0:	f1c2 0c20 	rsble	ip, r2, #32
  402cb4:	fa01 f102 	lsl.w	r1, r1, r2
  402cb8:	fa20 fc0c 	lsr.w	ip, r0, ip
  402cbc:	bfdc      	itt	le
  402cbe:	ea41 010c 	orrle.w	r1, r1, ip
  402cc2:	4090      	lslle	r0, r2
  402cc4:	1ae4      	subs	r4, r4, r3
  402cc6:	bfa2      	ittt	ge
  402cc8:	eb01 5104 	addge.w	r1, r1, r4, lsl #20
  402ccc:	4329      	orrge	r1, r5
  402cce:	bd30      	popge	{r4, r5, pc}
  402cd0:	ea6f 0404 	mvn.w	r4, r4
  402cd4:	3c1f      	subs	r4, #31
  402cd6:	da1c      	bge.n	402d12 <__adddf3+0x1d2>
  402cd8:	340c      	adds	r4, #12
  402cda:	dc0e      	bgt.n	402cfa <__adddf3+0x1ba>
  402cdc:	f104 0414 	add.w	r4, r4, #20
  402ce0:	f1c4 0220 	rsb	r2, r4, #32
  402ce4:	fa20 f004 	lsr.w	r0, r0, r4
  402ce8:	fa01 f302 	lsl.w	r3, r1, r2
  402cec:	ea40 0003 	orr.w	r0, r0, r3
  402cf0:	fa21 f304 	lsr.w	r3, r1, r4
  402cf4:	ea45 0103 	orr.w	r1, r5, r3
  402cf8:	bd30      	pop	{r4, r5, pc}
  402cfa:	f1c4 040c 	rsb	r4, r4, #12
  402cfe:	f1c4 0220 	rsb	r2, r4, #32
  402d02:	fa20 f002 	lsr.w	r0, r0, r2
  402d06:	fa01 f304 	lsl.w	r3, r1, r4
  402d0a:	ea40 0003 	orr.w	r0, r0, r3
  402d0e:	4629      	mov	r1, r5
  402d10:	bd30      	pop	{r4, r5, pc}
  402d12:	fa21 f004 	lsr.w	r0, r1, r4
  402d16:	4629      	mov	r1, r5
  402d18:	bd30      	pop	{r4, r5, pc}
  402d1a:	f094 0f00 	teq	r4, #0
  402d1e:	f483 1380 	eor.w	r3, r3, #1048576	; 0x100000
  402d22:	bf06      	itte	eq
  402d24:	f481 1180 	eoreq.w	r1, r1, #1048576	; 0x100000
  402d28:	3401      	addeq	r4, #1
  402d2a:	3d01      	subne	r5, #1
  402d2c:	e74e      	b.n	402bcc <__adddf3+0x8c>
  402d2e:	ea7f 5c64 	mvns.w	ip, r4, asr #21
  402d32:	bf18      	it	ne
  402d34:	ea7f 5c65 	mvnsne.w	ip, r5, asr #21
  402d38:	d029      	beq.n	402d8e <__adddf3+0x24e>
  402d3a:	ea94 0f05 	teq	r4, r5
  402d3e:	bf08      	it	eq
  402d40:	ea90 0f02 	teqeq	r0, r2
  402d44:	d005      	beq.n	402d52 <__adddf3+0x212>
  402d46:	ea54 0c00 	orrs.w	ip, r4, r0
  402d4a:	bf04      	itt	eq
  402d4c:	4619      	moveq	r1, r3
  402d4e:	4610      	moveq	r0, r2
  402d50:	bd30      	pop	{r4, r5, pc}
  402d52:	ea91 0f03 	teq	r1, r3
  402d56:	bf1e      	ittt	ne
  402d58:	2100      	movne	r1, #0
  402d5a:	2000      	movne	r0, #0
  402d5c:	bd30      	popne	{r4, r5, pc}
  402d5e:	ea5f 5c54 	movs.w	ip, r4, lsr #21
  402d62:	d105      	bne.n	402d70 <__adddf3+0x230>
  402d64:	0040      	lsls	r0, r0, #1
  402d66:	4149      	adcs	r1, r1
  402d68:	bf28      	it	cs
  402d6a:	f041 4100 	orrcs.w	r1, r1, #2147483648	; 0x80000000
  402d6e:	bd30      	pop	{r4, r5, pc}
  402d70:	f514 0480 	adds.w	r4, r4, #4194304	; 0x400000
  402d74:	bf3c      	itt	cc
  402d76:	f501 1180 	addcc.w	r1, r1, #1048576	; 0x100000
  402d7a:	bd30      	popcc	{r4, r5, pc}
  402d7c:	f001 4500 	and.w	r5, r1, #2147483648	; 0x80000000
  402d80:	f045 41fe 	orr.w	r1, r5, #2130706432	; 0x7f000000
  402d84:	f441 0170 	orr.w	r1, r1, #15728640	; 0xf00000
  402d88:	f04f 0000 	mov.w	r0, #0
  402d8c:	bd30      	pop	{r4, r5, pc}
  402d8e:	ea7f 5c64 	mvns.w	ip, r4, asr #21
  402d92:	bf1a      	itte	ne
  402d94:	4619      	movne	r1, r3
  402d96:	4610      	movne	r0, r2
  402d98:	ea7f 5c65 	mvnseq.w	ip, r5, asr #21
  402d9c:	bf1c      	itt	ne
  402d9e:	460b      	movne	r3, r1
  402da0:	4602      	movne	r2, r0
  402da2:	ea50 3401 	orrs.w	r4, r0, r1, lsl #12
  402da6:	bf06      	itte	eq
  402da8:	ea52 3503 	orrseq.w	r5, r2, r3, lsl #12
  402dac:	ea91 0f03 	teqeq	r1, r3
  402db0:	f441 2100 	orrne.w	r1, r1, #524288	; 0x80000
  402db4:	bd30      	pop	{r4, r5, pc}
  402db6:	bf00      	nop

00402db8 <__aeabi_ui2d>:
  402db8:	f090 0f00 	teq	r0, #0
  402dbc:	bf04      	itt	eq
  402dbe:	2100      	moveq	r1, #0
  402dc0:	4770      	bxeq	lr
  402dc2:	b530      	push	{r4, r5, lr}
  402dc4:	f44f 6480 	mov.w	r4, #1024	; 0x400
  402dc8:	f104 0432 	add.w	r4, r4, #50	; 0x32
  402dcc:	f04f 0500 	mov.w	r5, #0
  402dd0:	f04f 0100 	mov.w	r1, #0
  402dd4:	e750      	b.n	402c78 <__adddf3+0x138>
  402dd6:	bf00      	nop

00402dd8 <__aeabi_i2d>:
  402dd8:	f090 0f00 	teq	r0, #0
  402ddc:	bf04      	itt	eq
  402dde:	2100      	moveq	r1, #0
  402de0:	4770      	bxeq	lr
  402de2:	b530      	push	{r4, r5, lr}
  402de4:	f44f 6480 	mov.w	r4, #1024	; 0x400
  402de8:	f104 0432 	add.w	r4, r4, #50	; 0x32
  402dec:	f010 4500 	ands.w	r5, r0, #2147483648	; 0x80000000
  402df0:	bf48      	it	mi
  402df2:	4240      	negmi	r0, r0
  402df4:	f04f 0100 	mov.w	r1, #0
  402df8:	e73e      	b.n	402c78 <__adddf3+0x138>
  402dfa:	bf00      	nop

00402dfc <__aeabi_f2d>:
  402dfc:	0042      	lsls	r2, r0, #1
  402dfe:	ea4f 01e2 	mov.w	r1, r2, asr #3
  402e02:	ea4f 0131 	mov.w	r1, r1, rrx
  402e06:	ea4f 7002 	mov.w	r0, r2, lsl #28
  402e0a:	bf1f      	itttt	ne
  402e0c:	f012 437f 	andsne.w	r3, r2, #4278190080	; 0xff000000
  402e10:	f093 4f7f 	teqne	r3, #4278190080	; 0xff000000
  402e14:	f081 5160 	eorne.w	r1, r1, #939524096	; 0x38000000
  402e18:	4770      	bxne	lr
  402e1a:	f092 0f00 	teq	r2, #0
  402e1e:	bf14      	ite	ne
  402e20:	f093 4f7f 	teqne	r3, #4278190080	; 0xff000000
  402e24:	4770      	bxeq	lr
  402e26:	b530      	push	{r4, r5, lr}
  402e28:	f44f 7460 	mov.w	r4, #896	; 0x380
  402e2c:	f001 4500 	and.w	r5, r1, #2147483648	; 0x80000000
  402e30:	f021 4100 	bic.w	r1, r1, #2147483648	; 0x80000000
  402e34:	e720      	b.n	402c78 <__adddf3+0x138>
  402e36:	bf00      	nop

00402e38 <__aeabi_ul2d>:
  402e38:	ea50 0201 	orrs.w	r2, r0, r1
  402e3c:	bf08      	it	eq
  402e3e:	4770      	bxeq	lr
  402e40:	b530      	push	{r4, r5, lr}
  402e42:	f04f 0500 	mov.w	r5, #0
  402e46:	e00a      	b.n	402e5e <__aeabi_l2d+0x16>

00402e48 <__aeabi_l2d>:
  402e48:	ea50 0201 	orrs.w	r2, r0, r1
  402e4c:	bf08      	it	eq
  402e4e:	4770      	bxeq	lr
  402e50:	b530      	push	{r4, r5, lr}
  402e52:	f011 4500 	ands.w	r5, r1, #2147483648	; 0x80000000
  402e56:	d502      	bpl.n	402e5e <__aeabi_l2d+0x16>
  402e58:	4240      	negs	r0, r0
  402e5a:	eb61 0141 	sbc.w	r1, r1, r1, lsl #1
  402e5e:	f44f 6480 	mov.w	r4, #1024	; 0x400
  402e62:	f104 0432 	add.w	r4, r4, #50	; 0x32
  402e66:	ea5f 5c91 	movs.w	ip, r1, lsr #22
  402e6a:	f43f aedc 	beq.w	402c26 <__adddf3+0xe6>
  402e6e:	f04f 0203 	mov.w	r2, #3
  402e72:	ea5f 0cdc 	movs.w	ip, ip, lsr #3
  402e76:	bf18      	it	ne
  402e78:	3203      	addne	r2, #3
  402e7a:	ea5f 0cdc 	movs.w	ip, ip, lsr #3
  402e7e:	bf18      	it	ne
  402e80:	3203      	addne	r2, #3
  402e82:	eb02 02dc 	add.w	r2, r2, ip, lsr #3
  402e86:	f1c2 0320 	rsb	r3, r2, #32
  402e8a:	fa00 fc03 	lsl.w	ip, r0, r3
  402e8e:	fa20 f002 	lsr.w	r0, r0, r2
  402e92:	fa01 fe03 	lsl.w	lr, r1, r3
  402e96:	ea40 000e 	orr.w	r0, r0, lr
  402e9a:	fa21 f102 	lsr.w	r1, r1, r2
  402e9e:	4414      	add	r4, r2
  402ea0:	e6c1      	b.n	402c26 <__adddf3+0xe6>
  402ea2:	bf00      	nop

00402ea4 <__aeabi_dmul>:
  402ea4:	b570      	push	{r4, r5, r6, lr}
  402ea6:	f04f 0cff 	mov.w	ip, #255	; 0xff
  402eaa:	f44c 6ce0 	orr.w	ip, ip, #1792	; 0x700
  402eae:	ea1c 5411 	ands.w	r4, ip, r1, lsr #20
  402eb2:	bf1d      	ittte	ne
  402eb4:	ea1c 5513 	andsne.w	r5, ip, r3, lsr #20
  402eb8:	ea94 0f0c 	teqne	r4, ip
  402ebc:	ea95 0f0c 	teqne	r5, ip
  402ec0:	f000 f8de 	bleq	403080 <__aeabi_dmul+0x1dc>
  402ec4:	442c      	add	r4, r5
  402ec6:	ea81 0603 	eor.w	r6, r1, r3
  402eca:	ea21 514c 	bic.w	r1, r1, ip, lsl #21
  402ece:	ea23 534c 	bic.w	r3, r3, ip, lsl #21
  402ed2:	ea50 3501 	orrs.w	r5, r0, r1, lsl #12
  402ed6:	bf18      	it	ne
  402ed8:	ea52 3503 	orrsne.w	r5, r2, r3, lsl #12
  402edc:	f441 1180 	orr.w	r1, r1, #1048576	; 0x100000
  402ee0:	f443 1380 	orr.w	r3, r3, #1048576	; 0x100000
  402ee4:	d038      	beq.n	402f58 <__aeabi_dmul+0xb4>
  402ee6:	fba0 ce02 	umull	ip, lr, r0, r2
  402eea:	f04f 0500 	mov.w	r5, #0
  402eee:	fbe1 e502 	umlal	lr, r5, r1, r2
  402ef2:	f006 4200 	and.w	r2, r6, #2147483648	; 0x80000000
  402ef6:	fbe0 e503 	umlal	lr, r5, r0, r3
  402efa:	f04f 0600 	mov.w	r6, #0
  402efe:	fbe1 5603 	umlal	r5, r6, r1, r3
  402f02:	f09c 0f00 	teq	ip, #0
  402f06:	bf18      	it	ne
  402f08:	f04e 0e01 	orrne.w	lr, lr, #1
  402f0c:	f1a4 04ff 	sub.w	r4, r4, #255	; 0xff
  402f10:	f5b6 7f00 	cmp.w	r6, #512	; 0x200
  402f14:	f564 7440 	sbc.w	r4, r4, #768	; 0x300
  402f18:	d204      	bcs.n	402f24 <__aeabi_dmul+0x80>
  402f1a:	ea5f 0e4e 	movs.w	lr, lr, lsl #1
  402f1e:	416d      	adcs	r5, r5
  402f20:	eb46 0606 	adc.w	r6, r6, r6
  402f24:	ea42 21c6 	orr.w	r1, r2, r6, lsl #11
  402f28:	ea41 5155 	orr.w	r1, r1, r5, lsr #21
  402f2c:	ea4f 20c5 	mov.w	r0, r5, lsl #11
  402f30:	ea40 505e 	orr.w	r0, r0, lr, lsr #21
  402f34:	ea4f 2ece 	mov.w	lr, lr, lsl #11
  402f38:	f1b4 0cfd 	subs.w	ip, r4, #253	; 0xfd
  402f3c:	bf88      	it	hi
  402f3e:	f5bc 6fe0 	cmphi.w	ip, #1792	; 0x700
  402f42:	d81e      	bhi.n	402f82 <__aeabi_dmul+0xde>
  402f44:	f1be 4f00 	cmp.w	lr, #2147483648	; 0x80000000
  402f48:	bf08      	it	eq
  402f4a:	ea5f 0e50 	movseq.w	lr, r0, lsr #1
  402f4e:	f150 0000 	adcs.w	r0, r0, #0
  402f52:	eb41 5104 	adc.w	r1, r1, r4, lsl #20
  402f56:	bd70      	pop	{r4, r5, r6, pc}
  402f58:	f006 4600 	and.w	r6, r6, #2147483648	; 0x80000000
  402f5c:	ea46 0101 	orr.w	r1, r6, r1
  402f60:	ea40 0002 	orr.w	r0, r0, r2
  402f64:	ea81 0103 	eor.w	r1, r1, r3
  402f68:	ebb4 045c 	subs.w	r4, r4, ip, lsr #1
  402f6c:	bfc2      	ittt	gt
  402f6e:	ebd4 050c 	rsbsgt	r5, r4, ip
  402f72:	ea41 5104 	orrgt.w	r1, r1, r4, lsl #20
  402f76:	bd70      	popgt	{r4, r5, r6, pc}
  402f78:	f441 1180 	orr.w	r1, r1, #1048576	; 0x100000
  402f7c:	f04f 0e00 	mov.w	lr, #0
  402f80:	3c01      	subs	r4, #1
  402f82:	f300 80ab 	bgt.w	4030dc <__aeabi_dmul+0x238>
  402f86:	f114 0f36 	cmn.w	r4, #54	; 0x36
  402f8a:	bfde      	ittt	le
  402f8c:	2000      	movle	r0, #0
  402f8e:	f001 4100 	andle.w	r1, r1, #2147483648	; 0x80000000
  402f92:	bd70      	pople	{r4, r5, r6, pc}
  402f94:	f1c4 0400 	rsb	r4, r4, #0
  402f98:	3c20      	subs	r4, #32
  402f9a:	da35      	bge.n	403008 <__aeabi_dmul+0x164>
  402f9c:	340c      	adds	r4, #12
  402f9e:	dc1b      	bgt.n	402fd8 <__aeabi_dmul+0x134>
  402fa0:	f104 0414 	add.w	r4, r4, #20
  402fa4:	f1c4 0520 	rsb	r5, r4, #32
  402fa8:	fa00 f305 	lsl.w	r3, r0, r5
  402fac:	fa20 f004 	lsr.w	r0, r0, r4
  402fb0:	fa01 f205 	lsl.w	r2, r1, r5
  402fb4:	ea40 0002 	orr.w	r0, r0, r2
  402fb8:	f001 4200 	and.w	r2, r1, #2147483648	; 0x80000000
  402fbc:	f021 4100 	bic.w	r1, r1, #2147483648	; 0x80000000
  402fc0:	eb10 70d3 	adds.w	r0, r0, r3, lsr #31
  402fc4:	fa21 f604 	lsr.w	r6, r1, r4
  402fc8:	eb42 0106 	adc.w	r1, r2, r6
  402fcc:	ea5e 0e43 	orrs.w	lr, lr, r3, lsl #1
  402fd0:	bf08      	it	eq
  402fd2:	ea20 70d3 	biceq.w	r0, r0, r3, lsr #31
  402fd6:	bd70      	pop	{r4, r5, r6, pc}
  402fd8:	f1c4 040c 	rsb	r4, r4, #12
  402fdc:	f1c4 0520 	rsb	r5, r4, #32
  402fe0:	fa00 f304 	lsl.w	r3, r0, r4
  402fe4:	fa20 f005 	lsr.w	r0, r0, r5
  402fe8:	fa01 f204 	lsl.w	r2, r1, r4
  402fec:	ea40 0002 	orr.w	r0, r0, r2
  402ff0:	f001 4100 	and.w	r1, r1, #2147483648	; 0x80000000
  402ff4:	eb10 70d3 	adds.w	r0, r0, r3, lsr #31
  402ff8:	f141 0100 	adc.w	r1, r1, #0
  402ffc:	ea5e 0e43 	orrs.w	lr, lr, r3, lsl #1
  403000:	bf08      	it	eq
  403002:	ea20 70d3 	biceq.w	r0, r0, r3, lsr #31
  403006:	bd70      	pop	{r4, r5, r6, pc}
  403008:	f1c4 0520 	rsb	r5, r4, #32
  40300c:	fa00 f205 	lsl.w	r2, r0, r5
  403010:	ea4e 0e02 	orr.w	lr, lr, r2
  403014:	fa20 f304 	lsr.w	r3, r0, r4
  403018:	fa01 f205 	lsl.w	r2, r1, r5
  40301c:	ea43 0302 	orr.w	r3, r3, r2
  403020:	fa21 f004 	lsr.w	r0, r1, r4
  403024:	f001 4100 	and.w	r1, r1, #2147483648	; 0x80000000
  403028:	fa21 f204 	lsr.w	r2, r1, r4
  40302c:	ea20 0002 	bic.w	r0, r0, r2
  403030:	eb00 70d3 	add.w	r0, r0, r3, lsr #31
  403034:	ea5e 0e43 	orrs.w	lr, lr, r3, lsl #1
  403038:	bf08      	it	eq
  40303a:	ea20 70d3 	biceq.w	r0, r0, r3, lsr #31
  40303e:	bd70      	pop	{r4, r5, r6, pc}
  403040:	f094 0f00 	teq	r4, #0
  403044:	d10f      	bne.n	403066 <__aeabi_dmul+0x1c2>
  403046:	f001 4600 	and.w	r6, r1, #2147483648	; 0x80000000
  40304a:	0040      	lsls	r0, r0, #1
  40304c:	eb41 0101 	adc.w	r1, r1, r1
  403050:	f411 1f80 	tst.w	r1, #1048576	; 0x100000
  403054:	bf08      	it	eq
  403056:	3c01      	subeq	r4, #1
  403058:	d0f7      	beq.n	40304a <__aeabi_dmul+0x1a6>
  40305a:	ea41 0106 	orr.w	r1, r1, r6
  40305e:	f095 0f00 	teq	r5, #0
  403062:	bf18      	it	ne
  403064:	4770      	bxne	lr
  403066:	f003 4600 	and.w	r6, r3, #2147483648	; 0x80000000
  40306a:	0052      	lsls	r2, r2, #1
  40306c:	eb43 0303 	adc.w	r3, r3, r3
  403070:	f413 1f80 	tst.w	r3, #1048576	; 0x100000
  403074:	bf08      	it	eq
  403076:	3d01      	subeq	r5, #1
  403078:	d0f7      	beq.n	40306a <__aeabi_dmul+0x1c6>
  40307a:	ea43 0306 	orr.w	r3, r3, r6
  40307e:	4770      	bx	lr
  403080:	ea94 0f0c 	teq	r4, ip
  403084:	ea0c 5513 	and.w	r5, ip, r3, lsr #20
  403088:	bf18      	it	ne
  40308a:	ea95 0f0c 	teqne	r5, ip
  40308e:	d00c      	beq.n	4030aa <__aeabi_dmul+0x206>
  403090:	ea50 0641 	orrs.w	r6, r0, r1, lsl #1
  403094:	bf18      	it	ne
  403096:	ea52 0643 	orrsne.w	r6, r2, r3, lsl #1
  40309a:	d1d1      	bne.n	403040 <__aeabi_dmul+0x19c>
  40309c:	ea81 0103 	eor.w	r1, r1, r3
  4030a0:	f001 4100 	and.w	r1, r1, #2147483648	; 0x80000000
  4030a4:	f04f 0000 	mov.w	r0, #0
  4030a8:	bd70      	pop	{r4, r5, r6, pc}
  4030aa:	ea50 0641 	orrs.w	r6, r0, r1, lsl #1
  4030ae:	bf06      	itte	eq
  4030b0:	4610      	moveq	r0, r2
  4030b2:	4619      	moveq	r1, r3
  4030b4:	ea52 0643 	orrsne.w	r6, r2, r3, lsl #1
  4030b8:	d019      	beq.n	4030ee <__aeabi_dmul+0x24a>
  4030ba:	ea94 0f0c 	teq	r4, ip
  4030be:	d102      	bne.n	4030c6 <__aeabi_dmul+0x222>
  4030c0:	ea50 3601 	orrs.w	r6, r0, r1, lsl #12
  4030c4:	d113      	bne.n	4030ee <__aeabi_dmul+0x24a>
  4030c6:	ea95 0f0c 	teq	r5, ip
  4030ca:	d105      	bne.n	4030d8 <__aeabi_dmul+0x234>
  4030cc:	ea52 3603 	orrs.w	r6, r2, r3, lsl #12
  4030d0:	bf1c      	itt	ne
  4030d2:	4610      	movne	r0, r2
  4030d4:	4619      	movne	r1, r3
  4030d6:	d10a      	bne.n	4030ee <__aeabi_dmul+0x24a>
  4030d8:	ea81 0103 	eor.w	r1, r1, r3
  4030dc:	f001 4100 	and.w	r1, r1, #2147483648	; 0x80000000
  4030e0:	f041 41fe 	orr.w	r1, r1, #2130706432	; 0x7f000000
  4030e4:	f441 0170 	orr.w	r1, r1, #15728640	; 0xf00000
  4030e8:	f04f 0000 	mov.w	r0, #0
  4030ec:	bd70      	pop	{r4, r5, r6, pc}
  4030ee:	f041 41fe 	orr.w	r1, r1, #2130706432	; 0x7f000000
  4030f2:	f441 0178 	orr.w	r1, r1, #16252928	; 0xf80000
  4030f6:	bd70      	pop	{r4, r5, r6, pc}

004030f8 <__aeabi_ddiv>:
  4030f8:	b570      	push	{r4, r5, r6, lr}
  4030fa:	f04f 0cff 	mov.w	ip, #255	; 0xff
  4030fe:	f44c 6ce0 	orr.w	ip, ip, #1792	; 0x700
  403102:	ea1c 5411 	ands.w	r4, ip, r1, lsr #20
  403106:	bf1d      	ittte	ne
  403108:	ea1c 5513 	andsne.w	r5, ip, r3, lsr #20
  40310c:	ea94 0f0c 	teqne	r4, ip
  403110:	ea95 0f0c 	teqne	r5, ip
  403114:	f000 f8a7 	bleq	403266 <__aeabi_ddiv+0x16e>
  403118:	eba4 0405 	sub.w	r4, r4, r5
  40311c:	ea81 0e03 	eor.w	lr, r1, r3
  403120:	ea52 3503 	orrs.w	r5, r2, r3, lsl #12
  403124:	ea4f 3101 	mov.w	r1, r1, lsl #12
  403128:	f000 8088 	beq.w	40323c <__aeabi_ddiv+0x144>
  40312c:	ea4f 3303 	mov.w	r3, r3, lsl #12
  403130:	f04f 5580 	mov.w	r5, #268435456	; 0x10000000
  403134:	ea45 1313 	orr.w	r3, r5, r3, lsr #4
  403138:	ea43 6312 	orr.w	r3, r3, r2, lsr #24
  40313c:	ea4f 2202 	mov.w	r2, r2, lsl #8
  403140:	ea45 1511 	orr.w	r5, r5, r1, lsr #4
  403144:	ea45 6510 	orr.w	r5, r5, r0, lsr #24
  403148:	ea4f 2600 	mov.w	r6, r0, lsl #8
  40314c:	f00e 4100 	and.w	r1, lr, #2147483648	; 0x80000000
  403150:	429d      	cmp	r5, r3
  403152:	bf08      	it	eq
  403154:	4296      	cmpeq	r6, r2
  403156:	f144 04fd 	adc.w	r4, r4, #253	; 0xfd
  40315a:	f504 7440 	add.w	r4, r4, #768	; 0x300
  40315e:	d202      	bcs.n	403166 <__aeabi_ddiv+0x6e>
  403160:	085b      	lsrs	r3, r3, #1
  403162:	ea4f 0232 	mov.w	r2, r2, rrx
  403166:	1ab6      	subs	r6, r6, r2
  403168:	eb65 0503 	sbc.w	r5, r5, r3
  40316c:	085b      	lsrs	r3, r3, #1
  40316e:	ea4f 0232 	mov.w	r2, r2, rrx
  403172:	f44f 1080 	mov.w	r0, #1048576	; 0x100000
  403176:	f44f 2c00 	mov.w	ip, #524288	; 0x80000
  40317a:	ebb6 0e02 	subs.w	lr, r6, r2
  40317e:	eb75 0e03 	sbcs.w	lr, r5, r3
  403182:	bf22      	ittt	cs
  403184:	1ab6      	subcs	r6, r6, r2
  403186:	4675      	movcs	r5, lr
  403188:	ea40 000c 	orrcs.w	r0, r0, ip
  40318c:	085b      	lsrs	r3, r3, #1
  40318e:	ea4f 0232 	mov.w	r2, r2, rrx
  403192:	ebb6 0e02 	subs.w	lr, r6, r2
  403196:	eb75 0e03 	sbcs.w	lr, r5, r3
  40319a:	bf22      	ittt	cs
  40319c:	1ab6      	subcs	r6, r6, r2
  40319e:	4675      	movcs	r5, lr
  4031a0:	ea40 005c 	orrcs.w	r0, r0, ip, lsr #1
  4031a4:	085b      	lsrs	r3, r3, #1
  4031a6:	ea4f 0232 	mov.w	r2, r2, rrx
  4031aa:	ebb6 0e02 	subs.w	lr, r6, r2
  4031ae:	eb75 0e03 	sbcs.w	lr, r5, r3
  4031b2:	bf22      	ittt	cs
  4031b4:	1ab6      	subcs	r6, r6, r2
  4031b6:	4675      	movcs	r5, lr
  4031b8:	ea40 009c 	orrcs.w	r0, r0, ip, lsr #2
  4031bc:	085b      	lsrs	r3, r3, #1
  4031be:	ea4f 0232 	mov.w	r2, r2, rrx
  4031c2:	ebb6 0e02 	subs.w	lr, r6, r2
  4031c6:	eb75 0e03 	sbcs.w	lr, r5, r3
  4031ca:	bf22      	ittt	cs
  4031cc:	1ab6      	subcs	r6, r6, r2
  4031ce:	4675      	movcs	r5, lr
  4031d0:	ea40 00dc 	orrcs.w	r0, r0, ip, lsr #3
  4031d4:	ea55 0e06 	orrs.w	lr, r5, r6
  4031d8:	d018      	beq.n	40320c <__aeabi_ddiv+0x114>
  4031da:	ea4f 1505 	mov.w	r5, r5, lsl #4
  4031de:	ea45 7516 	orr.w	r5, r5, r6, lsr #28
  4031e2:	ea4f 1606 	mov.w	r6, r6, lsl #4
  4031e6:	ea4f 03c3 	mov.w	r3, r3, lsl #3
  4031ea:	ea43 7352 	orr.w	r3, r3, r2, lsr #29
  4031ee:	ea4f 02c2 	mov.w	r2, r2, lsl #3
  4031f2:	ea5f 1c1c 	movs.w	ip, ip, lsr #4
  4031f6:	d1c0      	bne.n	40317a <__aeabi_ddiv+0x82>
  4031f8:	f411 1f80 	tst.w	r1, #1048576	; 0x100000
  4031fc:	d10b      	bne.n	403216 <__aeabi_ddiv+0x11e>
  4031fe:	ea41 0100 	orr.w	r1, r1, r0
  403202:	f04f 0000 	mov.w	r0, #0
  403206:	f04f 4c00 	mov.w	ip, #2147483648	; 0x80000000
  40320a:	e7b6      	b.n	40317a <__aeabi_ddiv+0x82>
  40320c:	f411 1f80 	tst.w	r1, #1048576	; 0x100000
  403210:	bf04      	itt	eq
  403212:	4301      	orreq	r1, r0
  403214:	2000      	moveq	r0, #0
  403216:	f1b4 0cfd 	subs.w	ip, r4, #253	; 0xfd
  40321a:	bf88      	it	hi
  40321c:	f5bc 6fe0 	cmphi.w	ip, #1792	; 0x700
  403220:	f63f aeaf 	bhi.w	402f82 <__aeabi_dmul+0xde>
  403224:	ebb5 0c03 	subs.w	ip, r5, r3
  403228:	bf04      	itt	eq
  40322a:	ebb6 0c02 	subseq.w	ip, r6, r2
  40322e:	ea5f 0c50 	movseq.w	ip, r0, lsr #1
  403232:	f150 0000 	adcs.w	r0, r0, #0
  403236:	eb41 5104 	adc.w	r1, r1, r4, lsl #20
  40323a:	bd70      	pop	{r4, r5, r6, pc}
  40323c:	f00e 4e00 	and.w	lr, lr, #2147483648	; 0x80000000
  403240:	ea4e 3111 	orr.w	r1, lr, r1, lsr #12
  403244:	eb14 045c 	adds.w	r4, r4, ip, lsr #1
  403248:	bfc2      	ittt	gt
  40324a:	ebd4 050c 	rsbsgt	r5, r4, ip
  40324e:	ea41 5104 	orrgt.w	r1, r1, r4, lsl #20
  403252:	bd70      	popgt	{r4, r5, r6, pc}
  403254:	f441 1180 	orr.w	r1, r1, #1048576	; 0x100000
  403258:	f04f 0e00 	mov.w	lr, #0
  40325c:	3c01      	subs	r4, #1
  40325e:	e690      	b.n	402f82 <__aeabi_dmul+0xde>
  403260:	ea45 0e06 	orr.w	lr, r5, r6
  403264:	e68d      	b.n	402f82 <__aeabi_dmul+0xde>
  403266:	ea0c 5513 	and.w	r5, ip, r3, lsr #20
  40326a:	ea94 0f0c 	teq	r4, ip
  40326e:	bf08      	it	eq
  403270:	ea95 0f0c 	teqeq	r5, ip
  403274:	f43f af3b 	beq.w	4030ee <__aeabi_dmul+0x24a>
  403278:	ea94 0f0c 	teq	r4, ip
  40327c:	d10a      	bne.n	403294 <__aeabi_ddiv+0x19c>
  40327e:	ea50 3401 	orrs.w	r4, r0, r1, lsl #12
  403282:	f47f af34 	bne.w	4030ee <__aeabi_dmul+0x24a>
  403286:	ea95 0f0c 	teq	r5, ip
  40328a:	f47f af25 	bne.w	4030d8 <__aeabi_dmul+0x234>
  40328e:	4610      	mov	r0, r2
  403290:	4619      	mov	r1, r3
  403292:	e72c      	b.n	4030ee <__aeabi_dmul+0x24a>
  403294:	ea95 0f0c 	teq	r5, ip
  403298:	d106      	bne.n	4032a8 <__aeabi_ddiv+0x1b0>
  40329a:	ea52 3503 	orrs.w	r5, r2, r3, lsl #12
  40329e:	f43f aefd 	beq.w	40309c <__aeabi_dmul+0x1f8>
  4032a2:	4610      	mov	r0, r2
  4032a4:	4619      	mov	r1, r3
  4032a6:	e722      	b.n	4030ee <__aeabi_dmul+0x24a>
  4032a8:	ea50 0641 	orrs.w	r6, r0, r1, lsl #1
  4032ac:	bf18      	it	ne
  4032ae:	ea52 0643 	orrsne.w	r6, r2, r3, lsl #1
  4032b2:	f47f aec5 	bne.w	403040 <__aeabi_dmul+0x19c>
  4032b6:	ea50 0441 	orrs.w	r4, r0, r1, lsl #1
  4032ba:	f47f af0d 	bne.w	4030d8 <__aeabi_dmul+0x234>
  4032be:	ea52 0543 	orrs.w	r5, r2, r3, lsl #1
  4032c2:	f47f aeeb 	bne.w	40309c <__aeabi_dmul+0x1f8>
  4032c6:	e712      	b.n	4030ee <__aeabi_dmul+0x24a>

004032c8 <__aeabi_d2f>:
  4032c8:	ea4f 0241 	mov.w	r2, r1, lsl #1
  4032cc:	f1b2 43e0 	subs.w	r3, r2, #1879048192	; 0x70000000
  4032d0:	bf24      	itt	cs
  4032d2:	f5b3 1c00 	subscs.w	ip, r3, #2097152	; 0x200000
  4032d6:	f1dc 5cfe 	rsbscs	ip, ip, #532676608	; 0x1fc00000
  4032da:	d90d      	bls.n	4032f8 <__aeabi_d2f+0x30>
  4032dc:	f001 4c00 	and.w	ip, r1, #2147483648	; 0x80000000
  4032e0:	ea4f 02c0 	mov.w	r2, r0, lsl #3
  4032e4:	ea4c 7050 	orr.w	r0, ip, r0, lsr #29
  4032e8:	f1b2 4f00 	cmp.w	r2, #2147483648	; 0x80000000
  4032ec:	eb40 0083 	adc.w	r0, r0, r3, lsl #2
  4032f0:	bf08      	it	eq
  4032f2:	f020 0001 	biceq.w	r0, r0, #1
  4032f6:	4770      	bx	lr
  4032f8:	f011 4f80 	tst.w	r1, #1073741824	; 0x40000000
  4032fc:	d121      	bne.n	403342 <__aeabi_d2f+0x7a>
  4032fe:	f113 7238 	adds.w	r2, r3, #48234496	; 0x2e00000
  403302:	bfbc      	itt	lt
  403304:	f001 4000 	andlt.w	r0, r1, #2147483648	; 0x80000000
  403308:	4770      	bxlt	lr
  40330a:	f441 1180 	orr.w	r1, r1, #1048576	; 0x100000
  40330e:	ea4f 5252 	mov.w	r2, r2, lsr #21
  403312:	f1c2 0218 	rsb	r2, r2, #24
  403316:	f1c2 0c20 	rsb	ip, r2, #32
  40331a:	fa10 f30c 	lsls.w	r3, r0, ip
  40331e:	fa20 f002 	lsr.w	r0, r0, r2
  403322:	bf18      	it	ne
  403324:	f040 0001 	orrne.w	r0, r0, #1
  403328:	ea4f 23c1 	mov.w	r3, r1, lsl #11
  40332c:	ea4f 23d3 	mov.w	r3, r3, lsr #11
  403330:	fa03 fc0c 	lsl.w	ip, r3, ip
  403334:	ea40 000c 	orr.w	r0, r0, ip
  403338:	fa23 f302 	lsr.w	r3, r3, r2
  40333c:	ea4f 0343 	mov.w	r3, r3, lsl #1
  403340:	e7cc      	b.n	4032dc <__aeabi_d2f+0x14>
  403342:	ea7f 5362 	mvns.w	r3, r2, asr #21
  403346:	d107      	bne.n	403358 <__aeabi_d2f+0x90>
  403348:	ea50 3301 	orrs.w	r3, r0, r1, lsl #12
  40334c:	bf1e      	ittt	ne
  40334e:	f04f 40fe 	movne.w	r0, #2130706432	; 0x7f000000
  403352:	f440 0040 	orrne.w	r0, r0, #12582912	; 0xc00000
  403356:	4770      	bxne	lr
  403358:	f001 4000 	and.w	r0, r1, #2147483648	; 0x80000000
  40335c:	f040 40fe 	orr.w	r0, r0, #2130706432	; 0x7f000000
  403360:	f440 0000 	orr.w	r0, r0, #8388608	; 0x800000
  403364:	4770      	bx	lr
  403366:	bf00      	nop

00403368 <__aeabi_frsub>:
  403368:	f080 4000 	eor.w	r0, r0, #2147483648	; 0x80000000
  40336c:	e002      	b.n	403374 <__addsf3>
  40336e:	bf00      	nop

00403370 <__aeabi_fsub>:
  403370:	f081 4100 	eor.w	r1, r1, #2147483648	; 0x80000000

00403374 <__addsf3>:
  403374:	0042      	lsls	r2, r0, #1
  403376:	bf1f      	itttt	ne
  403378:	ea5f 0341 	movsne.w	r3, r1, lsl #1
  40337c:	ea92 0f03 	teqne	r2, r3
  403380:	ea7f 6c22 	mvnsne.w	ip, r2, asr #24
  403384:	ea7f 6c23 	mvnsne.w	ip, r3, asr #24
  403388:	d06a      	beq.n	403460 <__addsf3+0xec>
  40338a:	ea4f 6212 	mov.w	r2, r2, lsr #24
  40338e:	ebd2 6313 	rsbs	r3, r2, r3, lsr #24
  403392:	bfc1      	itttt	gt
  403394:	18d2      	addgt	r2, r2, r3
  403396:	4041      	eorgt	r1, r0
  403398:	4048      	eorgt	r0, r1
  40339a:	4041      	eorgt	r1, r0
  40339c:	bfb8      	it	lt
  40339e:	425b      	neglt	r3, r3
  4033a0:	2b19      	cmp	r3, #25
  4033a2:	bf88      	it	hi
  4033a4:	4770      	bxhi	lr
  4033a6:	f010 4f00 	tst.w	r0, #2147483648	; 0x80000000
  4033aa:	f440 0000 	orr.w	r0, r0, #8388608	; 0x800000
  4033ae:	f020 407f 	bic.w	r0, r0, #4278190080	; 0xff000000
  4033b2:	bf18      	it	ne
  4033b4:	4240      	negne	r0, r0
  4033b6:	f011 4f00 	tst.w	r1, #2147483648	; 0x80000000
  4033ba:	f441 0100 	orr.w	r1, r1, #8388608	; 0x800000
  4033be:	f021 417f 	bic.w	r1, r1, #4278190080	; 0xff000000
  4033c2:	bf18      	it	ne
  4033c4:	4249      	negne	r1, r1
  4033c6:	ea92 0f03 	teq	r2, r3
  4033ca:	d03f      	beq.n	40344c <__addsf3+0xd8>
  4033cc:	f1a2 0201 	sub.w	r2, r2, #1
  4033d0:	fa41 fc03 	asr.w	ip, r1, r3
  4033d4:	eb10 000c 	adds.w	r0, r0, ip
  4033d8:	f1c3 0320 	rsb	r3, r3, #32
  4033dc:	fa01 f103 	lsl.w	r1, r1, r3
  4033e0:	f000 4300 	and.w	r3, r0, #2147483648	; 0x80000000
  4033e4:	d502      	bpl.n	4033ec <__addsf3+0x78>
  4033e6:	4249      	negs	r1, r1
  4033e8:	eb60 0040 	sbc.w	r0, r0, r0, lsl #1
  4033ec:	f5b0 0f00 	cmp.w	r0, #8388608	; 0x800000
  4033f0:	d313      	bcc.n	40341a <__addsf3+0xa6>
  4033f2:	f1b0 7f80 	cmp.w	r0, #16777216	; 0x1000000
  4033f6:	d306      	bcc.n	403406 <__addsf3+0x92>
  4033f8:	0840      	lsrs	r0, r0, #1
  4033fa:	ea4f 0131 	mov.w	r1, r1, rrx
  4033fe:	f102 0201 	add.w	r2, r2, #1
  403402:	2afe      	cmp	r2, #254	; 0xfe
  403404:	d251      	bcs.n	4034aa <__addsf3+0x136>
  403406:	f1b1 4f00 	cmp.w	r1, #2147483648	; 0x80000000
  40340a:	eb40 50c2 	adc.w	r0, r0, r2, lsl #23
  40340e:	bf08      	it	eq
  403410:	f020 0001 	biceq.w	r0, r0, #1
  403414:	ea40 0003 	orr.w	r0, r0, r3
  403418:	4770      	bx	lr
  40341a:	0049      	lsls	r1, r1, #1
  40341c:	eb40 0000 	adc.w	r0, r0, r0
  403420:	f410 0f00 	tst.w	r0, #8388608	; 0x800000
  403424:	f1a2 0201 	sub.w	r2, r2, #1
  403428:	d1ed      	bne.n	403406 <__addsf3+0x92>
  40342a:	fab0 fc80 	clz	ip, r0
  40342e:	f1ac 0c08 	sub.w	ip, ip, #8
  403432:	ebb2 020c 	subs.w	r2, r2, ip
  403436:	fa00 f00c 	lsl.w	r0, r0, ip
  40343a:	bfaa      	itet	ge
  40343c:	eb00 50c2 	addge.w	r0, r0, r2, lsl #23
  403440:	4252      	neglt	r2, r2
  403442:	4318      	orrge	r0, r3
  403444:	bfbc      	itt	lt
  403446:	40d0      	lsrlt	r0, r2
  403448:	4318      	orrlt	r0, r3
  40344a:	4770      	bx	lr
  40344c:	f092 0f00 	teq	r2, #0
  403450:	f481 0100 	eor.w	r1, r1, #8388608	; 0x800000
  403454:	bf06      	itte	eq
  403456:	f480 0000 	eoreq.w	r0, r0, #8388608	; 0x800000
  40345a:	3201      	addeq	r2, #1
  40345c:	3b01      	subne	r3, #1
  40345e:	e7b5      	b.n	4033cc <__addsf3+0x58>
  403460:	ea4f 0341 	mov.w	r3, r1, lsl #1
  403464:	ea7f 6c22 	mvns.w	ip, r2, asr #24
  403468:	bf18      	it	ne
  40346a:	ea7f 6c23 	mvnsne.w	ip, r3, asr #24
  40346e:	d021      	beq.n	4034b4 <__addsf3+0x140>
  403470:	ea92 0f03 	teq	r2, r3
  403474:	d004      	beq.n	403480 <__addsf3+0x10c>
  403476:	f092 0f00 	teq	r2, #0
  40347a:	bf08      	it	eq
  40347c:	4608      	moveq	r0, r1
  40347e:	4770      	bx	lr
  403480:	ea90 0f01 	teq	r0, r1
  403484:	bf1c      	itt	ne
  403486:	2000      	movne	r0, #0
  403488:	4770      	bxne	lr
  40348a:	f012 4f7f 	tst.w	r2, #4278190080	; 0xff000000
  40348e:	d104      	bne.n	40349a <__addsf3+0x126>
  403490:	0040      	lsls	r0, r0, #1
  403492:	bf28      	it	cs
  403494:	f040 4000 	orrcs.w	r0, r0, #2147483648	; 0x80000000
  403498:	4770      	bx	lr
  40349a:	f112 7200 	adds.w	r2, r2, #33554432	; 0x2000000
  40349e:	bf3c      	itt	cc
  4034a0:	f500 0000 	addcc.w	r0, r0, #8388608	; 0x800000
  4034a4:	4770      	bxcc	lr
  4034a6:	f000 4300 	and.w	r3, r0, #2147483648	; 0x80000000
  4034aa:	f043 40fe 	orr.w	r0, r3, #2130706432	; 0x7f000000
  4034ae:	f440 0000 	orr.w	r0, r0, #8388608	; 0x800000
  4034b2:	4770      	bx	lr
  4034b4:	ea7f 6222 	mvns.w	r2, r2, asr #24
  4034b8:	bf16      	itet	ne
  4034ba:	4608      	movne	r0, r1
  4034bc:	ea7f 6323 	mvnseq.w	r3, r3, asr #24
  4034c0:	4601      	movne	r1, r0
  4034c2:	0242      	lsls	r2, r0, #9
  4034c4:	bf06      	itte	eq
  4034c6:	ea5f 2341 	movseq.w	r3, r1, lsl #9
  4034ca:	ea90 0f01 	teqeq	r0, r1
  4034ce:	f440 0080 	orrne.w	r0, r0, #4194304	; 0x400000
  4034d2:	4770      	bx	lr

004034d4 <__aeabi_ui2f>:
  4034d4:	f04f 0300 	mov.w	r3, #0
  4034d8:	e004      	b.n	4034e4 <__aeabi_i2f+0x8>
  4034da:	bf00      	nop

004034dc <__aeabi_i2f>:
  4034dc:	f010 4300 	ands.w	r3, r0, #2147483648	; 0x80000000
  4034e0:	bf48      	it	mi
  4034e2:	4240      	negmi	r0, r0
  4034e4:	ea5f 0c00 	movs.w	ip, r0
  4034e8:	bf08      	it	eq
  4034ea:	4770      	bxeq	lr
  4034ec:	f043 4396 	orr.w	r3, r3, #1258291200	; 0x4b000000
  4034f0:	4601      	mov	r1, r0
  4034f2:	f04f 0000 	mov.w	r0, #0
  4034f6:	e01c      	b.n	403532 <__aeabi_l2f+0x2a>

004034f8 <__aeabi_ul2f>:
  4034f8:	ea50 0201 	orrs.w	r2, r0, r1
  4034fc:	bf08      	it	eq
  4034fe:	4770      	bxeq	lr
  403500:	f04f 0300 	mov.w	r3, #0
  403504:	e00a      	b.n	40351c <__aeabi_l2f+0x14>
  403506:	bf00      	nop

00403508 <__aeabi_l2f>:
  403508:	ea50 0201 	orrs.w	r2, r0, r1
  40350c:	bf08      	it	eq
  40350e:	4770      	bxeq	lr
  403510:	f011 4300 	ands.w	r3, r1, #2147483648	; 0x80000000
  403514:	d502      	bpl.n	40351c <__aeabi_l2f+0x14>
  403516:	4240      	negs	r0, r0
  403518:	eb61 0141 	sbc.w	r1, r1, r1, lsl #1
  40351c:	ea5f 0c01 	movs.w	ip, r1
  403520:	bf02      	ittt	eq
  403522:	4684      	moveq	ip, r0
  403524:	4601      	moveq	r1, r0
  403526:	2000      	moveq	r0, #0
  403528:	f043 43b6 	orr.w	r3, r3, #1526726656	; 0x5b000000
  40352c:	bf08      	it	eq
  40352e:	f1a3 5380 	subeq.w	r3, r3, #268435456	; 0x10000000
  403532:	f5a3 0300 	sub.w	r3, r3, #8388608	; 0x800000
  403536:	fabc f28c 	clz	r2, ip
  40353a:	3a08      	subs	r2, #8
  40353c:	eba3 53c2 	sub.w	r3, r3, r2, lsl #23
  403540:	db10      	blt.n	403564 <__aeabi_l2f+0x5c>
  403542:	fa01 fc02 	lsl.w	ip, r1, r2
  403546:	4463      	add	r3, ip
  403548:	fa00 fc02 	lsl.w	ip, r0, r2
  40354c:	f1c2 0220 	rsb	r2, r2, #32
  403550:	f1bc 4f00 	cmp.w	ip, #2147483648	; 0x80000000
  403554:	fa20 f202 	lsr.w	r2, r0, r2
  403558:	eb43 0002 	adc.w	r0, r3, r2
  40355c:	bf08      	it	eq
  40355e:	f020 0001 	biceq.w	r0, r0, #1
  403562:	4770      	bx	lr
  403564:	f102 0220 	add.w	r2, r2, #32
  403568:	fa01 fc02 	lsl.w	ip, r1, r2
  40356c:	f1c2 0220 	rsb	r2, r2, #32
  403570:	ea50 004c 	orrs.w	r0, r0, ip, lsl #1
  403574:	fa21 f202 	lsr.w	r2, r1, r2
  403578:	eb43 0002 	adc.w	r0, r3, r2
  40357c:	bf08      	it	eq
  40357e:	ea20 70dc 	biceq.w	r0, r0, ip, lsr #31
  403582:	4770      	bx	lr

00403584 <__aeabi_fmul>:
  403584:	f04f 0cff 	mov.w	ip, #255	; 0xff
  403588:	ea1c 52d0 	ands.w	r2, ip, r0, lsr #23
  40358c:	bf1e      	ittt	ne
  40358e:	ea1c 53d1 	andsne.w	r3, ip, r1, lsr #23
  403592:	ea92 0f0c 	teqne	r2, ip
  403596:	ea93 0f0c 	teqne	r3, ip
  40359a:	d06f      	beq.n	40367c <__aeabi_fmul+0xf8>
  40359c:	441a      	add	r2, r3
  40359e:	ea80 0c01 	eor.w	ip, r0, r1
  4035a2:	0240      	lsls	r0, r0, #9
  4035a4:	bf18      	it	ne
  4035a6:	ea5f 2141 	movsne.w	r1, r1, lsl #9
  4035aa:	d01e      	beq.n	4035ea <__aeabi_fmul+0x66>
  4035ac:	f04f 6300 	mov.w	r3, #134217728	; 0x8000000
  4035b0:	ea43 1050 	orr.w	r0, r3, r0, lsr #5
  4035b4:	ea43 1151 	orr.w	r1, r3, r1, lsr #5
  4035b8:	fba0 3101 	umull	r3, r1, r0, r1
  4035bc:	f00c 4000 	and.w	r0, ip, #2147483648	; 0x80000000
  4035c0:	f5b1 0f00 	cmp.w	r1, #8388608	; 0x800000
  4035c4:	bf3e      	ittt	cc
  4035c6:	0049      	lslcc	r1, r1, #1
  4035c8:	ea41 71d3 	orrcc.w	r1, r1, r3, lsr #31
  4035cc:	005b      	lslcc	r3, r3, #1
  4035ce:	ea40 0001 	orr.w	r0, r0, r1
  4035d2:	f162 027f 	sbc.w	r2, r2, #127	; 0x7f
  4035d6:	2afd      	cmp	r2, #253	; 0xfd
  4035d8:	d81d      	bhi.n	403616 <__aeabi_fmul+0x92>
  4035da:	f1b3 4f00 	cmp.w	r3, #2147483648	; 0x80000000
  4035de:	eb40 50c2 	adc.w	r0, r0, r2, lsl #23
  4035e2:	bf08      	it	eq
  4035e4:	f020 0001 	biceq.w	r0, r0, #1
  4035e8:	4770      	bx	lr
  4035ea:	f090 0f00 	teq	r0, #0
  4035ee:	f00c 4c00 	and.w	ip, ip, #2147483648	; 0x80000000
  4035f2:	bf08      	it	eq
  4035f4:	0249      	lsleq	r1, r1, #9
  4035f6:	ea4c 2050 	orr.w	r0, ip, r0, lsr #9
  4035fa:	ea40 2051 	orr.w	r0, r0, r1, lsr #9
  4035fe:	3a7f      	subs	r2, #127	; 0x7f
  403600:	bfc2      	ittt	gt
  403602:	f1d2 03ff 	rsbsgt	r3, r2, #255	; 0xff
  403606:	ea40 50c2 	orrgt.w	r0, r0, r2, lsl #23
  40360a:	4770      	bxgt	lr
  40360c:	f440 0000 	orr.w	r0, r0, #8388608	; 0x800000
  403610:	f04f 0300 	mov.w	r3, #0
  403614:	3a01      	subs	r2, #1
  403616:	dc5d      	bgt.n	4036d4 <__aeabi_fmul+0x150>
  403618:	f112 0f19 	cmn.w	r2, #25
  40361c:	bfdc      	itt	le
  40361e:	f000 4000 	andle.w	r0, r0, #2147483648	; 0x80000000
  403622:	4770      	bxle	lr
  403624:	f1c2 0200 	rsb	r2, r2, #0
  403628:	0041      	lsls	r1, r0, #1
  40362a:	fa21 f102 	lsr.w	r1, r1, r2
  40362e:	f1c2 0220 	rsb	r2, r2, #32
  403632:	fa00 fc02 	lsl.w	ip, r0, r2
  403636:	ea5f 0031 	movs.w	r0, r1, rrx
  40363a:	f140 0000 	adc.w	r0, r0, #0
  40363e:	ea53 034c 	orrs.w	r3, r3, ip, lsl #1
  403642:	bf08      	it	eq
  403644:	ea20 70dc 	biceq.w	r0, r0, ip, lsr #31
  403648:	4770      	bx	lr
  40364a:	f092 0f00 	teq	r2, #0
  40364e:	f000 4c00 	and.w	ip, r0, #2147483648	; 0x80000000
  403652:	bf02      	ittt	eq
  403654:	0040      	lsleq	r0, r0, #1
  403656:	f410 0f00 	tsteq.w	r0, #8388608	; 0x800000
  40365a:	3a01      	subeq	r2, #1
  40365c:	d0f9      	beq.n	403652 <__aeabi_fmul+0xce>
  40365e:	ea40 000c 	orr.w	r0, r0, ip
  403662:	f093 0f00 	teq	r3, #0
  403666:	f001 4c00 	and.w	ip, r1, #2147483648	; 0x80000000
  40366a:	bf02      	ittt	eq
  40366c:	0049      	lsleq	r1, r1, #1
  40366e:	f411 0f00 	tsteq.w	r1, #8388608	; 0x800000
  403672:	3b01      	subeq	r3, #1
  403674:	d0f9      	beq.n	40366a <__aeabi_fmul+0xe6>
  403676:	ea41 010c 	orr.w	r1, r1, ip
  40367a:	e78f      	b.n	40359c <__aeabi_fmul+0x18>
  40367c:	ea0c 53d1 	and.w	r3, ip, r1, lsr #23
  403680:	ea92 0f0c 	teq	r2, ip
  403684:	bf18      	it	ne
  403686:	ea93 0f0c 	teqne	r3, ip
  40368a:	d00a      	beq.n	4036a2 <__aeabi_fmul+0x11e>
  40368c:	f030 4c00 	bics.w	ip, r0, #2147483648	; 0x80000000
  403690:	bf18      	it	ne
  403692:	f031 4c00 	bicsne.w	ip, r1, #2147483648	; 0x80000000
  403696:	d1d8      	bne.n	40364a <__aeabi_fmul+0xc6>
  403698:	ea80 0001 	eor.w	r0, r0, r1
  40369c:	f000 4000 	and.w	r0, r0, #2147483648	; 0x80000000
  4036a0:	4770      	bx	lr
  4036a2:	f090 0f00 	teq	r0, #0
  4036a6:	bf17      	itett	ne
  4036a8:	f090 4f00 	teqne	r0, #2147483648	; 0x80000000
  4036ac:	4608      	moveq	r0, r1
  4036ae:	f091 0f00 	teqne	r1, #0
  4036b2:	f091 4f00 	teqne	r1, #2147483648	; 0x80000000
  4036b6:	d014      	beq.n	4036e2 <__aeabi_fmul+0x15e>
  4036b8:	ea92 0f0c 	teq	r2, ip
  4036bc:	d101      	bne.n	4036c2 <__aeabi_fmul+0x13e>
  4036be:	0242      	lsls	r2, r0, #9
  4036c0:	d10f      	bne.n	4036e2 <__aeabi_fmul+0x15e>
  4036c2:	ea93 0f0c 	teq	r3, ip
  4036c6:	d103      	bne.n	4036d0 <__aeabi_fmul+0x14c>
  4036c8:	024b      	lsls	r3, r1, #9
  4036ca:	bf18      	it	ne
  4036cc:	4608      	movne	r0, r1
  4036ce:	d108      	bne.n	4036e2 <__aeabi_fmul+0x15e>
  4036d0:	ea80 0001 	eor.w	r0, r0, r1
  4036d4:	f000 4000 	and.w	r0, r0, #2147483648	; 0x80000000
  4036d8:	f040 40fe 	orr.w	r0, r0, #2130706432	; 0x7f000000
  4036dc:	f440 0000 	orr.w	r0, r0, #8388608	; 0x800000
  4036e0:	4770      	bx	lr
  4036e2:	f040 40fe 	orr.w	r0, r0, #2130706432	; 0x7f000000
  4036e6:	f440 0040 	orr.w	r0, r0, #12582912	; 0xc00000
  4036ea:	4770      	bx	lr

004036ec <__aeabi_fdiv>:
  4036ec:	f04f 0cff 	mov.w	ip, #255	; 0xff
  4036f0:	ea1c 52d0 	ands.w	r2, ip, r0, lsr #23
  4036f4:	bf1e      	ittt	ne
  4036f6:	ea1c 53d1 	andsne.w	r3, ip, r1, lsr #23
  4036fa:	ea92 0f0c 	teqne	r2, ip
  4036fe:	ea93 0f0c 	teqne	r3, ip
  403702:	d069      	beq.n	4037d8 <__aeabi_fdiv+0xec>
  403704:	eba2 0203 	sub.w	r2, r2, r3
  403708:	ea80 0c01 	eor.w	ip, r0, r1
  40370c:	0249      	lsls	r1, r1, #9
  40370e:	ea4f 2040 	mov.w	r0, r0, lsl #9
  403712:	d037      	beq.n	403784 <__aeabi_fdiv+0x98>
  403714:	f04f 5380 	mov.w	r3, #268435456	; 0x10000000
  403718:	ea43 1111 	orr.w	r1, r3, r1, lsr #4
  40371c:	ea43 1310 	orr.w	r3, r3, r0, lsr #4
  403720:	f00c 4000 	and.w	r0, ip, #2147483648	; 0x80000000
  403724:	428b      	cmp	r3, r1
  403726:	bf38      	it	cc
  403728:	005b      	lslcc	r3, r3, #1
  40372a:	f142 027d 	adc.w	r2, r2, #125	; 0x7d
  40372e:	f44f 0c00 	mov.w	ip, #8388608	; 0x800000
  403732:	428b      	cmp	r3, r1
  403734:	bf24      	itt	cs
  403736:	1a5b      	subcs	r3, r3, r1
  403738:	ea40 000c 	orrcs.w	r0, r0, ip
  40373c:	ebb3 0f51 	cmp.w	r3, r1, lsr #1
  403740:	bf24      	itt	cs
  403742:	eba3 0351 	subcs.w	r3, r3, r1, lsr #1
  403746:	ea40 005c 	orrcs.w	r0, r0, ip, lsr #1
  40374a:	ebb3 0f91 	cmp.w	r3, r1, lsr #2
  40374e:	bf24      	itt	cs
  403750:	eba3 0391 	subcs.w	r3, r3, r1, lsr #2
  403754:	ea40 009c 	orrcs.w	r0, r0, ip, lsr #2
  403758:	ebb3 0fd1 	cmp.w	r3, r1, lsr #3
  40375c:	bf24      	itt	cs
  40375e:	eba3 03d1 	subcs.w	r3, r3, r1, lsr #3
  403762:	ea40 00dc 	orrcs.w	r0, r0, ip, lsr #3
  403766:	011b      	lsls	r3, r3, #4
  403768:	bf18      	it	ne
  40376a:	ea5f 1c1c 	movsne.w	ip, ip, lsr #4
  40376e:	d1e0      	bne.n	403732 <__aeabi_fdiv+0x46>
  403770:	2afd      	cmp	r2, #253	; 0xfd
  403772:	f63f af50 	bhi.w	403616 <__aeabi_fmul+0x92>
  403776:	428b      	cmp	r3, r1
  403778:	eb40 50c2 	adc.w	r0, r0, r2, lsl #23
  40377c:	bf08      	it	eq
  40377e:	f020 0001 	biceq.w	r0, r0, #1
  403782:	4770      	bx	lr
  403784:	f00c 4c00 	and.w	ip, ip, #2147483648	; 0x80000000
  403788:	ea4c 2050 	orr.w	r0, ip, r0, lsr #9
  40378c:	327f      	adds	r2, #127	; 0x7f
  40378e:	bfc2      	ittt	gt
  403790:	f1d2 03ff 	rsbsgt	r3, r2, #255	; 0xff
  403794:	ea40 50c2 	orrgt.w	r0, r0, r2, lsl #23
  403798:	4770      	bxgt	lr
  40379a:	f440 0000 	orr.w	r0, r0, #8388608	; 0x800000
  40379e:	f04f 0300 	mov.w	r3, #0
  4037a2:	3a01      	subs	r2, #1
  4037a4:	e737      	b.n	403616 <__aeabi_fmul+0x92>
  4037a6:	f092 0f00 	teq	r2, #0
  4037aa:	f000 4c00 	and.w	ip, r0, #2147483648	; 0x80000000
  4037ae:	bf02      	ittt	eq
  4037b0:	0040      	lsleq	r0, r0, #1
  4037b2:	f410 0f00 	tsteq.w	r0, #8388608	; 0x800000
  4037b6:	3a01      	subeq	r2, #1
  4037b8:	d0f9      	beq.n	4037ae <__aeabi_fdiv+0xc2>
  4037ba:	ea40 000c 	orr.w	r0, r0, ip
  4037be:	f093 0f00 	teq	r3, #0
  4037c2:	f001 4c00 	and.w	ip, r1, #2147483648	; 0x80000000
  4037c6:	bf02      	ittt	eq
  4037c8:	0049      	lsleq	r1, r1, #1
  4037ca:	f411 0f00 	tsteq.w	r1, #8388608	; 0x800000
  4037ce:	3b01      	subeq	r3, #1
  4037d0:	d0f9      	beq.n	4037c6 <__aeabi_fdiv+0xda>
  4037d2:	ea41 010c 	orr.w	r1, r1, ip
  4037d6:	e795      	b.n	403704 <__aeabi_fdiv+0x18>
  4037d8:	ea0c 53d1 	and.w	r3, ip, r1, lsr #23
  4037dc:	ea92 0f0c 	teq	r2, ip
  4037e0:	d108      	bne.n	4037f4 <__aeabi_fdiv+0x108>
  4037e2:	0242      	lsls	r2, r0, #9
  4037e4:	f47f af7d 	bne.w	4036e2 <__aeabi_fmul+0x15e>
  4037e8:	ea93 0f0c 	teq	r3, ip
  4037ec:	f47f af70 	bne.w	4036d0 <__aeabi_fmul+0x14c>
  4037f0:	4608      	mov	r0, r1
  4037f2:	e776      	b.n	4036e2 <__aeabi_fmul+0x15e>
  4037f4:	ea93 0f0c 	teq	r3, ip
  4037f8:	d104      	bne.n	403804 <__aeabi_fdiv+0x118>
  4037fa:	024b      	lsls	r3, r1, #9
  4037fc:	f43f af4c 	beq.w	403698 <__aeabi_fmul+0x114>
  403800:	4608      	mov	r0, r1
  403802:	e76e      	b.n	4036e2 <__aeabi_fmul+0x15e>
  403804:	f030 4c00 	bics.w	ip, r0, #2147483648	; 0x80000000
  403808:	bf18      	it	ne
  40380a:	f031 4c00 	bicsne.w	ip, r1, #2147483648	; 0x80000000
  40380e:	d1ca      	bne.n	4037a6 <__aeabi_fdiv+0xba>
  403810:	f030 4200 	bics.w	r2, r0, #2147483648	; 0x80000000
  403814:	f47f af5c 	bne.w	4036d0 <__aeabi_fmul+0x14c>
  403818:	f031 4300 	bics.w	r3, r1, #2147483648	; 0x80000000
  40381c:	f47f af3c 	bne.w	403698 <__aeabi_fmul+0x114>
  403820:	e75f      	b.n	4036e2 <__aeabi_fmul+0x15e>
  403822:	bf00      	nop

00403824 <__gesf2>:
  403824:	f04f 3cff 	mov.w	ip, #4294967295
  403828:	e006      	b.n	403838 <__cmpsf2+0x4>
  40382a:	bf00      	nop

0040382c <__lesf2>:
  40382c:	f04f 0c01 	mov.w	ip, #1
  403830:	e002      	b.n	403838 <__cmpsf2+0x4>
  403832:	bf00      	nop

00403834 <__cmpsf2>:
  403834:	f04f 0c01 	mov.w	ip, #1
  403838:	f84d cd04 	str.w	ip, [sp, #-4]!
  40383c:	ea4f 0240 	mov.w	r2, r0, lsl #1
  403840:	ea4f 0341 	mov.w	r3, r1, lsl #1
  403844:	ea7f 6c22 	mvns.w	ip, r2, asr #24
  403848:	bf18      	it	ne
  40384a:	ea7f 6c23 	mvnsne.w	ip, r3, asr #24
  40384e:	d011      	beq.n	403874 <__cmpsf2+0x40>
  403850:	b001      	add	sp, #4
  403852:	ea52 0c53 	orrs.w	ip, r2, r3, lsr #1
  403856:	bf18      	it	ne
  403858:	ea90 0f01 	teqne	r0, r1
  40385c:	bf58      	it	pl
  40385e:	ebb2 0003 	subspl.w	r0, r2, r3
  403862:	bf88      	it	hi
  403864:	17c8      	asrhi	r0, r1, #31
  403866:	bf38      	it	cc
  403868:	ea6f 70e1 	mvncc.w	r0, r1, asr #31
  40386c:	bf18      	it	ne
  40386e:	f040 0001 	orrne.w	r0, r0, #1
  403872:	4770      	bx	lr
  403874:	ea7f 6c22 	mvns.w	ip, r2, asr #24
  403878:	d102      	bne.n	403880 <__cmpsf2+0x4c>
  40387a:	ea5f 2c40 	movs.w	ip, r0, lsl #9
  40387e:	d105      	bne.n	40388c <__cmpsf2+0x58>
  403880:	ea7f 6c23 	mvns.w	ip, r3, asr #24
  403884:	d1e4      	bne.n	403850 <__cmpsf2+0x1c>
  403886:	ea5f 2c41 	movs.w	ip, r1, lsl #9
  40388a:	d0e1      	beq.n	403850 <__cmpsf2+0x1c>
  40388c:	f85d 0b04 	ldr.w	r0, [sp], #4
  403890:	4770      	bx	lr
  403892:	bf00      	nop

00403894 <__aeabi_cfrcmple>:
  403894:	4684      	mov	ip, r0
  403896:	4608      	mov	r0, r1
  403898:	4661      	mov	r1, ip
  40389a:	e7ff      	b.n	40389c <__aeabi_cfcmpeq>

0040389c <__aeabi_cfcmpeq>:
  40389c:	b50f      	push	{r0, r1, r2, r3, lr}
  40389e:	f7ff ffc9 	bl	403834 <__cmpsf2>
  4038a2:	2800      	cmp	r0, #0
  4038a4:	bf48      	it	mi
  4038a6:	f110 0f00 	cmnmi.w	r0, #0
  4038aa:	bd0f      	pop	{r0, r1, r2, r3, pc}

004038ac <__aeabi_fcmpeq>:
  4038ac:	f84d ed08 	str.w	lr, [sp, #-8]!
  4038b0:	f7ff fff4 	bl	40389c <__aeabi_cfcmpeq>
  4038b4:	bf0c      	ite	eq
  4038b6:	2001      	moveq	r0, #1
  4038b8:	2000      	movne	r0, #0
  4038ba:	f85d fb08 	ldr.w	pc, [sp], #8
  4038be:	bf00      	nop

004038c0 <__aeabi_fcmplt>:
  4038c0:	f84d ed08 	str.w	lr, [sp, #-8]!
  4038c4:	f7ff ffea 	bl	40389c <__aeabi_cfcmpeq>
  4038c8:	bf34      	ite	cc
  4038ca:	2001      	movcc	r0, #1
  4038cc:	2000      	movcs	r0, #0
  4038ce:	f85d fb08 	ldr.w	pc, [sp], #8
  4038d2:	bf00      	nop

004038d4 <__aeabi_fcmple>:
  4038d4:	f84d ed08 	str.w	lr, [sp, #-8]!
  4038d8:	f7ff ffe0 	bl	40389c <__aeabi_cfcmpeq>
  4038dc:	bf94      	ite	ls
  4038de:	2001      	movls	r0, #1
  4038e0:	2000      	movhi	r0, #0
  4038e2:	f85d fb08 	ldr.w	pc, [sp], #8
  4038e6:	bf00      	nop

004038e8 <__aeabi_fcmpge>:
  4038e8:	f84d ed08 	str.w	lr, [sp, #-8]!
  4038ec:	f7ff ffd2 	bl	403894 <__aeabi_cfrcmple>
  4038f0:	bf94      	ite	ls
  4038f2:	2001      	movls	r0, #1
  4038f4:	2000      	movhi	r0, #0
  4038f6:	f85d fb08 	ldr.w	pc, [sp], #8
  4038fa:	bf00      	nop

004038fc <__aeabi_fcmpgt>:
  4038fc:	f84d ed08 	str.w	lr, [sp, #-8]!
  403900:	f7ff ffc8 	bl	403894 <__aeabi_cfrcmple>
  403904:	bf34      	ite	cc
  403906:	2001      	movcc	r0, #1
  403908:	2000      	movcs	r0, #0
  40390a:	f85d fb08 	ldr.w	pc, [sp], #8
  40390e:	bf00      	nop

00403910 <__aeabi_fcmpun>:
  403910:	ea4f 0240 	mov.w	r2, r0, lsl #1
  403914:	ea4f 0341 	mov.w	r3, r1, lsl #1
  403918:	ea7f 6c22 	mvns.w	ip, r2, asr #24
  40391c:	d102      	bne.n	403924 <__aeabi_fcmpun+0x14>
  40391e:	ea5f 2c40 	movs.w	ip, r0, lsl #9
  403922:	d108      	bne.n	403936 <__aeabi_fcmpun+0x26>
  403924:	ea7f 6c23 	mvns.w	ip, r3, asr #24
  403928:	d102      	bne.n	403930 <__aeabi_fcmpun+0x20>
  40392a:	ea5f 2c41 	movs.w	ip, r1, lsl #9
  40392e:	d102      	bne.n	403936 <__aeabi_fcmpun+0x26>
  403930:	f04f 0000 	mov.w	r0, #0
  403934:	4770      	bx	lr
  403936:	f04f 0001 	mov.w	r0, #1
  40393a:	4770      	bx	lr

0040393c <__errno>:
  40393c:	4b01      	ldr	r3, [pc, #4]	; (403944 <__errno+0x8>)
  40393e:	6818      	ldr	r0, [r3, #0]
  403940:	4770      	bx	lr
  403942:	bf00      	nop
  403944:	2040001c 	.word	0x2040001c

00403948 <__libc_init_array>:
  403948:	b570      	push	{r4, r5, r6, lr}
  40394a:	4e0f      	ldr	r6, [pc, #60]	; (403988 <__libc_init_array+0x40>)
  40394c:	4d0f      	ldr	r5, [pc, #60]	; (40398c <__libc_init_array+0x44>)
  40394e:	1b76      	subs	r6, r6, r5
  403950:	10b6      	asrs	r6, r6, #2
  403952:	bf18      	it	ne
  403954:	2400      	movne	r4, #0
  403956:	d005      	beq.n	403964 <__libc_init_array+0x1c>
  403958:	3401      	adds	r4, #1
  40395a:	f855 3b04 	ldr.w	r3, [r5], #4
  40395e:	4798      	blx	r3
  403960:	42a6      	cmp	r6, r4
  403962:	d1f9      	bne.n	403958 <__libc_init_array+0x10>
  403964:	4e0a      	ldr	r6, [pc, #40]	; (403990 <__libc_init_array+0x48>)
  403966:	4d0b      	ldr	r5, [pc, #44]	; (403994 <__libc_init_array+0x4c>)
  403968:	1b76      	subs	r6, r6, r5
  40396a:	f00d fe31 	bl	4115d0 <_init>
  40396e:	10b6      	asrs	r6, r6, #2
  403970:	bf18      	it	ne
  403972:	2400      	movne	r4, #0
  403974:	d006      	beq.n	403984 <__libc_init_array+0x3c>
  403976:	3401      	adds	r4, #1
  403978:	f855 3b04 	ldr.w	r3, [r5], #4
  40397c:	4798      	blx	r3
  40397e:	42a6      	cmp	r6, r4
  403980:	d1f9      	bne.n	403976 <__libc_init_array+0x2e>
  403982:	bd70      	pop	{r4, r5, r6, pc}
  403984:	bd70      	pop	{r4, r5, r6, pc}
  403986:	bf00      	nop
  403988:	004115dc 	.word	0x004115dc
  40398c:	004115dc 	.word	0x004115dc
  403990:	004115e4 	.word	0x004115e4
  403994:	004115dc 	.word	0x004115dc

00403998 <iprintf>:
  403998:	b40f      	push	{r0, r1, r2, r3}
  40399a:	b500      	push	{lr}
  40399c:	4907      	ldr	r1, [pc, #28]	; (4039bc <iprintf+0x24>)
  40399e:	b083      	sub	sp, #12
  4039a0:	ab04      	add	r3, sp, #16
  4039a2:	6808      	ldr	r0, [r1, #0]
  4039a4:	f853 2b04 	ldr.w	r2, [r3], #4
  4039a8:	6881      	ldr	r1, [r0, #8]
  4039aa:	9301      	str	r3, [sp, #4]
  4039ac:	f000 f966 	bl	403c7c <_vfiprintf_r>
  4039b0:	b003      	add	sp, #12
  4039b2:	f85d eb04 	ldr.w	lr, [sp], #4
  4039b6:	b004      	add	sp, #16
  4039b8:	4770      	bx	lr
  4039ba:	bf00      	nop
  4039bc:	2040001c 	.word	0x2040001c

004039c0 <memset>:
  4039c0:	b470      	push	{r4, r5, r6}
  4039c2:	0786      	lsls	r6, r0, #30
  4039c4:	d046      	beq.n	403a54 <memset+0x94>
  4039c6:	1e54      	subs	r4, r2, #1
  4039c8:	2a00      	cmp	r2, #0
  4039ca:	d041      	beq.n	403a50 <memset+0x90>
  4039cc:	b2ca      	uxtb	r2, r1
  4039ce:	4603      	mov	r3, r0
  4039d0:	e002      	b.n	4039d8 <memset+0x18>
  4039d2:	f114 34ff 	adds.w	r4, r4, #4294967295
  4039d6:	d33b      	bcc.n	403a50 <memset+0x90>
  4039d8:	f803 2b01 	strb.w	r2, [r3], #1
  4039dc:	079d      	lsls	r5, r3, #30
  4039de:	d1f8      	bne.n	4039d2 <memset+0x12>
  4039e0:	2c03      	cmp	r4, #3
  4039e2:	d92e      	bls.n	403a42 <memset+0x82>
  4039e4:	b2cd      	uxtb	r5, r1
  4039e6:	ea45 2505 	orr.w	r5, r5, r5, lsl #8
  4039ea:	2c0f      	cmp	r4, #15
  4039ec:	ea45 4505 	orr.w	r5, r5, r5, lsl #16
  4039f0:	d919      	bls.n	403a26 <memset+0x66>
  4039f2:	f103 0210 	add.w	r2, r3, #16
  4039f6:	4626      	mov	r6, r4
  4039f8:	3e10      	subs	r6, #16
  4039fa:	2e0f      	cmp	r6, #15
  4039fc:	f842 5c10 	str.w	r5, [r2, #-16]
  403a00:	f842 5c0c 	str.w	r5, [r2, #-12]
  403a04:	f842 5c08 	str.w	r5, [r2, #-8]
  403a08:	f842 5c04 	str.w	r5, [r2, #-4]
  403a0c:	f102 0210 	add.w	r2, r2, #16
  403a10:	d8f2      	bhi.n	4039f8 <memset+0x38>
  403a12:	f1a4 0210 	sub.w	r2, r4, #16
  403a16:	f022 020f 	bic.w	r2, r2, #15
  403a1a:	f004 040f 	and.w	r4, r4, #15
  403a1e:	3210      	adds	r2, #16
  403a20:	2c03      	cmp	r4, #3
  403a22:	4413      	add	r3, r2
  403a24:	d90d      	bls.n	403a42 <memset+0x82>
  403a26:	461e      	mov	r6, r3
  403a28:	4622      	mov	r2, r4
  403a2a:	3a04      	subs	r2, #4
  403a2c:	2a03      	cmp	r2, #3
  403a2e:	f846 5b04 	str.w	r5, [r6], #4
  403a32:	d8fa      	bhi.n	403a2a <memset+0x6a>
  403a34:	1f22      	subs	r2, r4, #4
  403a36:	f022 0203 	bic.w	r2, r2, #3
  403a3a:	3204      	adds	r2, #4
  403a3c:	4413      	add	r3, r2
  403a3e:	f004 0403 	and.w	r4, r4, #3
  403a42:	b12c      	cbz	r4, 403a50 <memset+0x90>
  403a44:	b2c9      	uxtb	r1, r1
  403a46:	441c      	add	r4, r3
  403a48:	f803 1b01 	strb.w	r1, [r3], #1
  403a4c:	429c      	cmp	r4, r3
  403a4e:	d1fb      	bne.n	403a48 <memset+0x88>
  403a50:	bc70      	pop	{r4, r5, r6}
  403a52:	4770      	bx	lr
  403a54:	4614      	mov	r4, r2
  403a56:	4603      	mov	r3, r0
  403a58:	e7c2      	b.n	4039e0 <memset+0x20>
  403a5a:	bf00      	nop

00403a5c <setbuf>:
  403a5c:	2900      	cmp	r1, #0
  403a5e:	bf0c      	ite	eq
  403a60:	2202      	moveq	r2, #2
  403a62:	2200      	movne	r2, #0
  403a64:	f44f 6380 	mov.w	r3, #1024	; 0x400
  403a68:	f000 b800 	b.w	403a6c <setvbuf>

00403a6c <setvbuf>:
  403a6c:	e92d 43f0 	stmdb	sp!, {r4, r5, r6, r7, r8, r9, lr}
  403a70:	4c61      	ldr	r4, [pc, #388]	; (403bf8 <setvbuf+0x18c>)
  403a72:	6825      	ldr	r5, [r4, #0]
  403a74:	b083      	sub	sp, #12
  403a76:	4604      	mov	r4, r0
  403a78:	460f      	mov	r7, r1
  403a7a:	4690      	mov	r8, r2
  403a7c:	461e      	mov	r6, r3
  403a7e:	b115      	cbz	r5, 403a86 <setvbuf+0x1a>
  403a80:	6bab      	ldr	r3, [r5, #56]	; 0x38
  403a82:	2b00      	cmp	r3, #0
  403a84:	d064      	beq.n	403b50 <setvbuf+0xe4>
  403a86:	f1b8 0f02 	cmp.w	r8, #2
  403a8a:	d006      	beq.n	403a9a <setvbuf+0x2e>
  403a8c:	f1b8 0f01 	cmp.w	r8, #1
  403a90:	f200 809f 	bhi.w	403bd2 <setvbuf+0x166>
  403a94:	2e00      	cmp	r6, #0
  403a96:	f2c0 809c 	blt.w	403bd2 <setvbuf+0x166>
  403a9a:	6e63      	ldr	r3, [r4, #100]	; 0x64
  403a9c:	07d8      	lsls	r0, r3, #31
  403a9e:	d534      	bpl.n	403b0a <setvbuf+0x9e>
  403aa0:	4621      	mov	r1, r4
  403aa2:	4628      	mov	r0, r5
  403aa4:	f001 f888 	bl	404bb8 <_fflush_r>
  403aa8:	6b21      	ldr	r1, [r4, #48]	; 0x30
  403aaa:	b141      	cbz	r1, 403abe <setvbuf+0x52>
  403aac:	f104 0340 	add.w	r3, r4, #64	; 0x40
  403ab0:	4299      	cmp	r1, r3
  403ab2:	d002      	beq.n	403aba <setvbuf+0x4e>
  403ab4:	4628      	mov	r0, r5
  403ab6:	f001 f9fd 	bl	404eb4 <_free_r>
  403aba:	2300      	movs	r3, #0
  403abc:	6323      	str	r3, [r4, #48]	; 0x30
  403abe:	f9b4 300c 	ldrsh.w	r3, [r4, #12]
  403ac2:	2200      	movs	r2, #0
  403ac4:	61a2      	str	r2, [r4, #24]
  403ac6:	6062      	str	r2, [r4, #4]
  403ac8:	061a      	lsls	r2, r3, #24
  403aca:	d43a      	bmi.n	403b42 <setvbuf+0xd6>
  403acc:	f423 634a 	bic.w	r3, r3, #3232	; 0xca0
  403ad0:	f023 0303 	bic.w	r3, r3, #3
  403ad4:	f1b8 0f02 	cmp.w	r8, #2
  403ad8:	81a3      	strh	r3, [r4, #12]
  403ada:	d01d      	beq.n	403b18 <setvbuf+0xac>
  403adc:	ab01      	add	r3, sp, #4
  403ade:	466a      	mov	r2, sp
  403ae0:	4621      	mov	r1, r4
  403ae2:	4628      	mov	r0, r5
  403ae4:	f001 fc84 	bl	4053f0 <__swhatbuf_r>
  403ae8:	89a3      	ldrh	r3, [r4, #12]
  403aea:	4318      	orrs	r0, r3
  403aec:	81a0      	strh	r0, [r4, #12]
  403aee:	2e00      	cmp	r6, #0
  403af0:	d132      	bne.n	403b58 <setvbuf+0xec>
  403af2:	9e00      	ldr	r6, [sp, #0]
  403af4:	4630      	mov	r0, r6
  403af6:	f001 fcf3 	bl	4054e0 <malloc>
  403afa:	4607      	mov	r7, r0
  403afc:	2800      	cmp	r0, #0
  403afe:	d06b      	beq.n	403bd8 <setvbuf+0x16c>
  403b00:	89a3      	ldrh	r3, [r4, #12]
  403b02:	f043 0380 	orr.w	r3, r3, #128	; 0x80
  403b06:	81a3      	strh	r3, [r4, #12]
  403b08:	e028      	b.n	403b5c <setvbuf+0xf0>
  403b0a:	89a3      	ldrh	r3, [r4, #12]
  403b0c:	0599      	lsls	r1, r3, #22
  403b0e:	d4c7      	bmi.n	403aa0 <setvbuf+0x34>
  403b10:	6da0      	ldr	r0, [r4, #88]	; 0x58
  403b12:	f001 fc69 	bl	4053e8 <__retarget_lock_acquire_recursive>
  403b16:	e7c3      	b.n	403aa0 <setvbuf+0x34>
  403b18:	2500      	movs	r5, #0
  403b1a:	6e61      	ldr	r1, [r4, #100]	; 0x64
  403b1c:	2600      	movs	r6, #0
  403b1e:	f104 0243 	add.w	r2, r4, #67	; 0x43
  403b22:	f043 0302 	orr.w	r3, r3, #2
  403b26:	2001      	movs	r0, #1
  403b28:	60a6      	str	r6, [r4, #8]
  403b2a:	07ce      	lsls	r6, r1, #31
  403b2c:	81a3      	strh	r3, [r4, #12]
  403b2e:	6022      	str	r2, [r4, #0]
  403b30:	6122      	str	r2, [r4, #16]
  403b32:	6160      	str	r0, [r4, #20]
  403b34:	d401      	bmi.n	403b3a <setvbuf+0xce>
  403b36:	0598      	lsls	r0, r3, #22
  403b38:	d53e      	bpl.n	403bb8 <setvbuf+0x14c>
  403b3a:	4628      	mov	r0, r5
  403b3c:	b003      	add	sp, #12
  403b3e:	e8bd 83f0 	ldmia.w	sp!, {r4, r5, r6, r7, r8, r9, pc}
  403b42:	6921      	ldr	r1, [r4, #16]
  403b44:	4628      	mov	r0, r5
  403b46:	f001 f9b5 	bl	404eb4 <_free_r>
  403b4a:	f9b4 300c 	ldrsh.w	r3, [r4, #12]
  403b4e:	e7bd      	b.n	403acc <setvbuf+0x60>
  403b50:	4628      	mov	r0, r5
  403b52:	f001 f889 	bl	404c68 <__sinit>
  403b56:	e796      	b.n	403a86 <setvbuf+0x1a>
  403b58:	2f00      	cmp	r7, #0
  403b5a:	d0cb      	beq.n	403af4 <setvbuf+0x88>
  403b5c:	6bab      	ldr	r3, [r5, #56]	; 0x38
  403b5e:	2b00      	cmp	r3, #0
  403b60:	d033      	beq.n	403bca <setvbuf+0x15e>
  403b62:	9b00      	ldr	r3, [sp, #0]
  403b64:	f9b4 200c 	ldrsh.w	r2, [r4, #12]
  403b68:	6027      	str	r7, [r4, #0]
  403b6a:	429e      	cmp	r6, r3
  403b6c:	bf1c      	itt	ne
  403b6e:	f442 6200 	orrne.w	r2, r2, #2048	; 0x800
  403b72:	81a2      	strhne	r2, [r4, #12]
  403b74:	f1b8 0f01 	cmp.w	r8, #1
  403b78:	bf04      	itt	eq
  403b7a:	f042 0201 	orreq.w	r2, r2, #1
  403b7e:	81a2      	strheq	r2, [r4, #12]
  403b80:	b292      	uxth	r2, r2
  403b82:	f012 0308 	ands.w	r3, r2, #8
  403b86:	6127      	str	r7, [r4, #16]
  403b88:	6166      	str	r6, [r4, #20]
  403b8a:	d00e      	beq.n	403baa <setvbuf+0x13e>
  403b8c:	07d1      	lsls	r1, r2, #31
  403b8e:	d51a      	bpl.n	403bc6 <setvbuf+0x15a>
  403b90:	6e65      	ldr	r5, [r4, #100]	; 0x64
  403b92:	4276      	negs	r6, r6
  403b94:	2300      	movs	r3, #0
  403b96:	f015 0501 	ands.w	r5, r5, #1
  403b9a:	61a6      	str	r6, [r4, #24]
  403b9c:	60a3      	str	r3, [r4, #8]
  403b9e:	d009      	beq.n	403bb4 <setvbuf+0x148>
  403ba0:	2500      	movs	r5, #0
  403ba2:	4628      	mov	r0, r5
  403ba4:	b003      	add	sp, #12
  403ba6:	e8bd 83f0 	ldmia.w	sp!, {r4, r5, r6, r7, r8, r9, pc}
  403baa:	60a3      	str	r3, [r4, #8]
  403bac:	6e65      	ldr	r5, [r4, #100]	; 0x64
  403bae:	f015 0501 	ands.w	r5, r5, #1
  403bb2:	d1f5      	bne.n	403ba0 <setvbuf+0x134>
  403bb4:	0593      	lsls	r3, r2, #22
  403bb6:	d4c0      	bmi.n	403b3a <setvbuf+0xce>
  403bb8:	6da0      	ldr	r0, [r4, #88]	; 0x58
  403bba:	f001 fc17 	bl	4053ec <__retarget_lock_release_recursive>
  403bbe:	4628      	mov	r0, r5
  403bc0:	b003      	add	sp, #12
  403bc2:	e8bd 83f0 	ldmia.w	sp!, {r4, r5, r6, r7, r8, r9, pc}
  403bc6:	60a6      	str	r6, [r4, #8]
  403bc8:	e7f0      	b.n	403bac <setvbuf+0x140>
  403bca:	4628      	mov	r0, r5
  403bcc:	f001 f84c 	bl	404c68 <__sinit>
  403bd0:	e7c7      	b.n	403b62 <setvbuf+0xf6>
  403bd2:	f04f 35ff 	mov.w	r5, #4294967295
  403bd6:	e7b0      	b.n	403b3a <setvbuf+0xce>
  403bd8:	f8dd 9000 	ldr.w	r9, [sp]
  403bdc:	45b1      	cmp	r9, r6
  403bde:	d004      	beq.n	403bea <setvbuf+0x17e>
  403be0:	4648      	mov	r0, r9
  403be2:	f001 fc7d 	bl	4054e0 <malloc>
  403be6:	4607      	mov	r7, r0
  403be8:	b920      	cbnz	r0, 403bf4 <setvbuf+0x188>
  403bea:	f9b4 300c 	ldrsh.w	r3, [r4, #12]
  403bee:	f04f 35ff 	mov.w	r5, #4294967295
  403bf2:	e792      	b.n	403b1a <setvbuf+0xae>
  403bf4:	464e      	mov	r6, r9
  403bf6:	e783      	b.n	403b00 <setvbuf+0x94>
  403bf8:	2040001c 	.word	0x2040001c

00403bfc <__sprint_r.part.0>:
  403bfc:	e92d 4ff8 	stmdb	sp!, {r3, r4, r5, r6, r7, r8, r9, sl, fp, lr}
  403c00:	6e4b      	ldr	r3, [r1, #100]	; 0x64
  403c02:	049c      	lsls	r4, r3, #18
  403c04:	4693      	mov	fp, r2
  403c06:	d52f      	bpl.n	403c68 <__sprint_r.part.0+0x6c>
  403c08:	6893      	ldr	r3, [r2, #8]
  403c0a:	6812      	ldr	r2, [r2, #0]
  403c0c:	b353      	cbz	r3, 403c64 <__sprint_r.part.0+0x68>
  403c0e:	460e      	mov	r6, r1
  403c10:	4607      	mov	r7, r0
  403c12:	f102 0908 	add.w	r9, r2, #8
  403c16:	e919 0420 	ldmdb	r9, {r5, sl}
  403c1a:	ea5f 089a 	movs.w	r8, sl, lsr #2
  403c1e:	d017      	beq.n	403c50 <__sprint_r.part.0+0x54>
  403c20:	3d04      	subs	r5, #4
  403c22:	2400      	movs	r4, #0
  403c24:	e001      	b.n	403c2a <__sprint_r.part.0+0x2e>
  403c26:	45a0      	cmp	r8, r4
  403c28:	d010      	beq.n	403c4c <__sprint_r.part.0+0x50>
  403c2a:	4632      	mov	r2, r6
  403c2c:	f855 1f04 	ldr.w	r1, [r5, #4]!
  403c30:	4638      	mov	r0, r7
  403c32:	f001 f8bb 	bl	404dac <_fputwc_r>
  403c36:	1c43      	adds	r3, r0, #1
  403c38:	f104 0401 	add.w	r4, r4, #1
  403c3c:	d1f3      	bne.n	403c26 <__sprint_r.part.0+0x2a>
  403c3e:	2300      	movs	r3, #0
  403c40:	f8cb 3008 	str.w	r3, [fp, #8]
  403c44:	f8cb 3004 	str.w	r3, [fp, #4]
  403c48:	e8bd 8ff8 	ldmia.w	sp!, {r3, r4, r5, r6, r7, r8, r9, sl, fp, pc}
  403c4c:	f8db 3008 	ldr.w	r3, [fp, #8]
  403c50:	f02a 0a03 	bic.w	sl, sl, #3
  403c54:	eba3 030a 	sub.w	r3, r3, sl
  403c58:	f8cb 3008 	str.w	r3, [fp, #8]
  403c5c:	f109 0908 	add.w	r9, r9, #8
  403c60:	2b00      	cmp	r3, #0
  403c62:	d1d8      	bne.n	403c16 <__sprint_r.part.0+0x1a>
  403c64:	2000      	movs	r0, #0
  403c66:	e7ea      	b.n	403c3e <__sprint_r.part.0+0x42>
  403c68:	f001 fa0a 	bl	405080 <__sfvwrite_r>
  403c6c:	2300      	movs	r3, #0
  403c6e:	f8cb 3008 	str.w	r3, [fp, #8]
  403c72:	f8cb 3004 	str.w	r3, [fp, #4]
  403c76:	e8bd 8ff8 	ldmia.w	sp!, {r3, r4, r5, r6, r7, r8, r9, sl, fp, pc}
  403c7a:	bf00      	nop

00403c7c <_vfiprintf_r>:
  403c7c:	e92d 4ff0 	stmdb	sp!, {r4, r5, r6, r7, r8, r9, sl, fp, lr}
  403c80:	b0ad      	sub	sp, #180	; 0xb4
  403c82:	461d      	mov	r5, r3
  403c84:	468b      	mov	fp, r1
  403c86:	4690      	mov	r8, r2
  403c88:	9307      	str	r3, [sp, #28]
  403c8a:	9006      	str	r0, [sp, #24]
  403c8c:	b118      	cbz	r0, 403c96 <_vfiprintf_r+0x1a>
  403c8e:	6b83      	ldr	r3, [r0, #56]	; 0x38
  403c90:	2b00      	cmp	r3, #0
  403c92:	f000 80f3 	beq.w	403e7c <_vfiprintf_r+0x200>
  403c96:	f8db 3064 	ldr.w	r3, [fp, #100]	; 0x64
  403c9a:	f9bb 000c 	ldrsh.w	r0, [fp, #12]
  403c9e:	07df      	lsls	r7, r3, #31
  403ca0:	b281      	uxth	r1, r0
  403ca2:	d402      	bmi.n	403caa <_vfiprintf_r+0x2e>
  403ca4:	058e      	lsls	r6, r1, #22
  403ca6:	f140 80fc 	bpl.w	403ea2 <_vfiprintf_r+0x226>
  403caa:	048c      	lsls	r4, r1, #18
  403cac:	d40a      	bmi.n	403cc4 <_vfiprintf_r+0x48>
  403cae:	f8db 3064 	ldr.w	r3, [fp, #100]	; 0x64
  403cb2:	f440 5100 	orr.w	r1, r0, #8192	; 0x2000
  403cb6:	f423 5300 	bic.w	r3, r3, #8192	; 0x2000
  403cba:	f8ab 100c 	strh.w	r1, [fp, #12]
  403cbe:	f8cb 3064 	str.w	r3, [fp, #100]	; 0x64
  403cc2:	b289      	uxth	r1, r1
  403cc4:	0708      	lsls	r0, r1, #28
  403cc6:	f140 80b3 	bpl.w	403e30 <_vfiprintf_r+0x1b4>
  403cca:	f8db 3010 	ldr.w	r3, [fp, #16]
  403cce:	2b00      	cmp	r3, #0
  403cd0:	f000 80ae 	beq.w	403e30 <_vfiprintf_r+0x1b4>
  403cd4:	f001 031a 	and.w	r3, r1, #26
  403cd8:	2b0a      	cmp	r3, #10
  403cda:	f000 80b5 	beq.w	403e48 <_vfiprintf_r+0x1cc>
  403cde:	2300      	movs	r3, #0
  403ce0:	f10d 0970 	add.w	r9, sp, #112	; 0x70
  403ce4:	930b      	str	r3, [sp, #44]	; 0x2c
  403ce6:	9311      	str	r3, [sp, #68]	; 0x44
  403ce8:	9310      	str	r3, [sp, #64]	; 0x40
  403cea:	9303      	str	r3, [sp, #12]
  403cec:	f8cd 903c 	str.w	r9, [sp, #60]	; 0x3c
  403cf0:	46ca      	mov	sl, r9
  403cf2:	f8cd b010 	str.w	fp, [sp, #16]
  403cf6:	f898 3000 	ldrb.w	r3, [r8]
  403cfa:	4644      	mov	r4, r8
  403cfc:	b1fb      	cbz	r3, 403d3e <_vfiprintf_r+0xc2>
  403cfe:	2b25      	cmp	r3, #37	; 0x25
  403d00:	d102      	bne.n	403d08 <_vfiprintf_r+0x8c>
  403d02:	e01c      	b.n	403d3e <_vfiprintf_r+0xc2>
  403d04:	2b25      	cmp	r3, #37	; 0x25
  403d06:	d003      	beq.n	403d10 <_vfiprintf_r+0x94>
  403d08:	f814 3f01 	ldrb.w	r3, [r4, #1]!
  403d0c:	2b00      	cmp	r3, #0
  403d0e:	d1f9      	bne.n	403d04 <_vfiprintf_r+0x88>
  403d10:	eba4 0508 	sub.w	r5, r4, r8
  403d14:	b19d      	cbz	r5, 403d3e <_vfiprintf_r+0xc2>
  403d16:	9b10      	ldr	r3, [sp, #64]	; 0x40
  403d18:	9a11      	ldr	r2, [sp, #68]	; 0x44
  403d1a:	f8ca 8000 	str.w	r8, [sl]
  403d1e:	3301      	adds	r3, #1
  403d20:	442a      	add	r2, r5
  403d22:	2b07      	cmp	r3, #7
  403d24:	f8ca 5004 	str.w	r5, [sl, #4]
  403d28:	9211      	str	r2, [sp, #68]	; 0x44
  403d2a:	9310      	str	r3, [sp, #64]	; 0x40
  403d2c:	dd7a      	ble.n	403e24 <_vfiprintf_r+0x1a8>
  403d2e:	2a00      	cmp	r2, #0
  403d30:	f040 84b0 	bne.w	404694 <_vfiprintf_r+0xa18>
  403d34:	9b03      	ldr	r3, [sp, #12]
  403d36:	9210      	str	r2, [sp, #64]	; 0x40
  403d38:	442b      	add	r3, r5
  403d3a:	46ca      	mov	sl, r9
  403d3c:	9303      	str	r3, [sp, #12]
  403d3e:	7823      	ldrb	r3, [r4, #0]
  403d40:	2b00      	cmp	r3, #0
  403d42:	f000 83e0 	beq.w	404506 <_vfiprintf_r+0x88a>
  403d46:	2000      	movs	r0, #0
  403d48:	f04f 0300 	mov.w	r3, #0
  403d4c:	f88d 3037 	strb.w	r3, [sp, #55]	; 0x37
  403d50:	f104 0801 	add.w	r8, r4, #1
  403d54:	7862      	ldrb	r2, [r4, #1]
  403d56:	4605      	mov	r5, r0
  403d58:	4606      	mov	r6, r0
  403d5a:	4603      	mov	r3, r0
  403d5c:	f04f 34ff 	mov.w	r4, #4294967295
  403d60:	f108 0801 	add.w	r8, r8, #1
  403d64:	f1a2 0120 	sub.w	r1, r2, #32
  403d68:	2958      	cmp	r1, #88	; 0x58
  403d6a:	f200 82de 	bhi.w	40432a <_vfiprintf_r+0x6ae>
  403d6e:	e8df f011 	tbh	[pc, r1, lsl #1]
  403d72:	0221      	.short	0x0221
  403d74:	02dc02dc 	.word	0x02dc02dc
  403d78:	02dc0229 	.word	0x02dc0229
  403d7c:	02dc02dc 	.word	0x02dc02dc
  403d80:	02dc02dc 	.word	0x02dc02dc
  403d84:	028902dc 	.word	0x028902dc
  403d88:	02dc0295 	.word	0x02dc0295
  403d8c:	02bd00a2 	.word	0x02bd00a2
  403d90:	019f02dc 	.word	0x019f02dc
  403d94:	01a401a4 	.word	0x01a401a4
  403d98:	01a401a4 	.word	0x01a401a4
  403d9c:	01a401a4 	.word	0x01a401a4
  403da0:	01a401a4 	.word	0x01a401a4
  403da4:	02dc01a4 	.word	0x02dc01a4
  403da8:	02dc02dc 	.word	0x02dc02dc
  403dac:	02dc02dc 	.word	0x02dc02dc
  403db0:	02dc02dc 	.word	0x02dc02dc
  403db4:	02dc02dc 	.word	0x02dc02dc
  403db8:	01b202dc 	.word	0x01b202dc
  403dbc:	02dc02dc 	.word	0x02dc02dc
  403dc0:	02dc02dc 	.word	0x02dc02dc
  403dc4:	02dc02dc 	.word	0x02dc02dc
  403dc8:	02dc02dc 	.word	0x02dc02dc
  403dcc:	02dc02dc 	.word	0x02dc02dc
  403dd0:	02dc0197 	.word	0x02dc0197
  403dd4:	02dc02dc 	.word	0x02dc02dc
  403dd8:	02dc02dc 	.word	0x02dc02dc
  403ddc:	02dc019b 	.word	0x02dc019b
  403de0:	025302dc 	.word	0x025302dc
  403de4:	02dc02dc 	.word	0x02dc02dc
  403de8:	02dc02dc 	.word	0x02dc02dc
  403dec:	02dc02dc 	.word	0x02dc02dc
  403df0:	02dc02dc 	.word	0x02dc02dc
  403df4:	02dc02dc 	.word	0x02dc02dc
  403df8:	021b025a 	.word	0x021b025a
  403dfc:	02dc02dc 	.word	0x02dc02dc
  403e00:	026e02dc 	.word	0x026e02dc
  403e04:	02dc021b 	.word	0x02dc021b
  403e08:	027302dc 	.word	0x027302dc
  403e0c:	01f502dc 	.word	0x01f502dc
  403e10:	02090182 	.word	0x02090182
  403e14:	02dc02d7 	.word	0x02dc02d7
  403e18:	02dc029a 	.word	0x02dc029a
  403e1c:	02dc00a7 	.word	0x02dc00a7
  403e20:	022e02dc 	.word	0x022e02dc
  403e24:	f10a 0a08 	add.w	sl, sl, #8
  403e28:	9b03      	ldr	r3, [sp, #12]
  403e2a:	442b      	add	r3, r5
  403e2c:	9303      	str	r3, [sp, #12]
  403e2e:	e786      	b.n	403d3e <_vfiprintf_r+0xc2>
  403e30:	4659      	mov	r1, fp
  403e32:	9806      	ldr	r0, [sp, #24]
  403e34:	f000 fdac 	bl	404990 <__swsetup_r>
  403e38:	bb18      	cbnz	r0, 403e82 <_vfiprintf_r+0x206>
  403e3a:	f8bb 100c 	ldrh.w	r1, [fp, #12]
  403e3e:	f001 031a 	and.w	r3, r1, #26
  403e42:	2b0a      	cmp	r3, #10
  403e44:	f47f af4b 	bne.w	403cde <_vfiprintf_r+0x62>
  403e48:	f9bb 300e 	ldrsh.w	r3, [fp, #14]
  403e4c:	2b00      	cmp	r3, #0
  403e4e:	f6ff af46 	blt.w	403cde <_vfiprintf_r+0x62>
  403e52:	f8db 3064 	ldr.w	r3, [fp, #100]	; 0x64
  403e56:	07db      	lsls	r3, r3, #31
  403e58:	d405      	bmi.n	403e66 <_vfiprintf_r+0x1ea>
  403e5a:	058f      	lsls	r7, r1, #22
  403e5c:	d403      	bmi.n	403e66 <_vfiprintf_r+0x1ea>
  403e5e:	f8db 0058 	ldr.w	r0, [fp, #88]	; 0x58
  403e62:	f001 fac3 	bl	4053ec <__retarget_lock_release_recursive>
  403e66:	462b      	mov	r3, r5
  403e68:	4642      	mov	r2, r8
  403e6a:	4659      	mov	r1, fp
  403e6c:	9806      	ldr	r0, [sp, #24]
  403e6e:	f000 fd4d 	bl	40490c <__sbprintf>
  403e72:	9003      	str	r0, [sp, #12]
  403e74:	9803      	ldr	r0, [sp, #12]
  403e76:	b02d      	add	sp, #180	; 0xb4
  403e78:	e8bd 8ff0 	ldmia.w	sp!, {r4, r5, r6, r7, r8, r9, sl, fp, pc}
  403e7c:	f000 fef4 	bl	404c68 <__sinit>
  403e80:	e709      	b.n	403c96 <_vfiprintf_r+0x1a>
  403e82:	f8db 3064 	ldr.w	r3, [fp, #100]	; 0x64
  403e86:	07d9      	lsls	r1, r3, #31
  403e88:	d404      	bmi.n	403e94 <_vfiprintf_r+0x218>
  403e8a:	f8bb 300c 	ldrh.w	r3, [fp, #12]
  403e8e:	059a      	lsls	r2, r3, #22
  403e90:	f140 84aa 	bpl.w	4047e8 <_vfiprintf_r+0xb6c>
  403e94:	f04f 33ff 	mov.w	r3, #4294967295
  403e98:	9303      	str	r3, [sp, #12]
  403e9a:	9803      	ldr	r0, [sp, #12]
  403e9c:	b02d      	add	sp, #180	; 0xb4
  403e9e:	e8bd 8ff0 	ldmia.w	sp!, {r4, r5, r6, r7, r8, r9, sl, fp, pc}
  403ea2:	f8db 0058 	ldr.w	r0, [fp, #88]	; 0x58
  403ea6:	f001 fa9f 	bl	4053e8 <__retarget_lock_acquire_recursive>
  403eaa:	f9bb 000c 	ldrsh.w	r0, [fp, #12]
  403eae:	b281      	uxth	r1, r0
  403eb0:	e6fb      	b.n	403caa <_vfiprintf_r+0x2e>
  403eb2:	4276      	negs	r6, r6
  403eb4:	9207      	str	r2, [sp, #28]
  403eb6:	f043 0304 	orr.w	r3, r3, #4
  403eba:	f898 2000 	ldrb.w	r2, [r8]
  403ebe:	e74f      	b.n	403d60 <_vfiprintf_r+0xe4>
  403ec0:	9608      	str	r6, [sp, #32]
  403ec2:	069e      	lsls	r6, r3, #26
  403ec4:	f100 8450 	bmi.w	404768 <_vfiprintf_r+0xaec>
  403ec8:	9907      	ldr	r1, [sp, #28]
  403eca:	06dd      	lsls	r5, r3, #27
  403ecc:	460a      	mov	r2, r1
  403ece:	f100 83ef 	bmi.w	4046b0 <_vfiprintf_r+0xa34>
  403ed2:	0658      	lsls	r0, r3, #25
  403ed4:	f140 83ec 	bpl.w	4046b0 <_vfiprintf_r+0xa34>
  403ed8:	880e      	ldrh	r6, [r1, #0]
  403eda:	3104      	adds	r1, #4
  403edc:	2700      	movs	r7, #0
  403ede:	2201      	movs	r2, #1
  403ee0:	9107      	str	r1, [sp, #28]
  403ee2:	f04f 0100 	mov.w	r1, #0
  403ee6:	f88d 1037 	strb.w	r1, [sp, #55]	; 0x37
  403eea:	2500      	movs	r5, #0
  403eec:	1c61      	adds	r1, r4, #1
  403eee:	f000 8116 	beq.w	40411e <_vfiprintf_r+0x4a2>
  403ef2:	f023 0180 	bic.w	r1, r3, #128	; 0x80
  403ef6:	9102      	str	r1, [sp, #8]
  403ef8:	ea56 0107 	orrs.w	r1, r6, r7
  403efc:	f040 8114 	bne.w	404128 <_vfiprintf_r+0x4ac>
  403f00:	2c00      	cmp	r4, #0
  403f02:	f040 835c 	bne.w	4045be <_vfiprintf_r+0x942>
  403f06:	2a00      	cmp	r2, #0
  403f08:	f040 83b7 	bne.w	40467a <_vfiprintf_r+0x9fe>
  403f0c:	f013 0301 	ands.w	r3, r3, #1
  403f10:	9305      	str	r3, [sp, #20]
  403f12:	f000 8457 	beq.w	4047c4 <_vfiprintf_r+0xb48>
  403f16:	f10d 0bb0 	add.w	fp, sp, #176	; 0xb0
  403f1a:	2330      	movs	r3, #48	; 0x30
  403f1c:	f80b 3d41 	strb.w	r3, [fp, #-65]!
  403f20:	9b05      	ldr	r3, [sp, #20]
  403f22:	42a3      	cmp	r3, r4
  403f24:	bfb8      	it	lt
  403f26:	4623      	movlt	r3, r4
  403f28:	9301      	str	r3, [sp, #4]
  403f2a:	b10d      	cbz	r5, 403f30 <_vfiprintf_r+0x2b4>
  403f2c:	3301      	adds	r3, #1
  403f2e:	9301      	str	r3, [sp, #4]
  403f30:	9b02      	ldr	r3, [sp, #8]
  403f32:	f013 0302 	ands.w	r3, r3, #2
  403f36:	9309      	str	r3, [sp, #36]	; 0x24
  403f38:	d002      	beq.n	403f40 <_vfiprintf_r+0x2c4>
  403f3a:	9b01      	ldr	r3, [sp, #4]
  403f3c:	3302      	adds	r3, #2
  403f3e:	9301      	str	r3, [sp, #4]
  403f40:	9b02      	ldr	r3, [sp, #8]
  403f42:	f013 0384 	ands.w	r3, r3, #132	; 0x84
  403f46:	930a      	str	r3, [sp, #40]	; 0x28
  403f48:	f040 8217 	bne.w	40437a <_vfiprintf_r+0x6fe>
  403f4c:	9b08      	ldr	r3, [sp, #32]
  403f4e:	9a01      	ldr	r2, [sp, #4]
  403f50:	1a9d      	subs	r5, r3, r2
  403f52:	2d00      	cmp	r5, #0
  403f54:	f340 8211 	ble.w	40437a <_vfiprintf_r+0x6fe>
  403f58:	2d10      	cmp	r5, #16
  403f5a:	f340 8490 	ble.w	40487e <_vfiprintf_r+0xc02>
  403f5e:	9b10      	ldr	r3, [sp, #64]	; 0x40
  403f60:	9a11      	ldr	r2, [sp, #68]	; 0x44
  403f62:	4ec4      	ldr	r6, [pc, #784]	; (404274 <_vfiprintf_r+0x5f8>)
  403f64:	46d6      	mov	lr, sl
  403f66:	2710      	movs	r7, #16
  403f68:	46a2      	mov	sl, r4
  403f6a:	4619      	mov	r1, r3
  403f6c:	9c06      	ldr	r4, [sp, #24]
  403f6e:	e007      	b.n	403f80 <_vfiprintf_r+0x304>
  403f70:	f101 0c02 	add.w	ip, r1, #2
  403f74:	f10e 0e08 	add.w	lr, lr, #8
  403f78:	4601      	mov	r1, r0
  403f7a:	3d10      	subs	r5, #16
  403f7c:	2d10      	cmp	r5, #16
  403f7e:	dd11      	ble.n	403fa4 <_vfiprintf_r+0x328>
  403f80:	1c48      	adds	r0, r1, #1
  403f82:	3210      	adds	r2, #16
  403f84:	2807      	cmp	r0, #7
  403f86:	9211      	str	r2, [sp, #68]	; 0x44
  403f88:	e88e 00c0 	stmia.w	lr, {r6, r7}
  403f8c:	9010      	str	r0, [sp, #64]	; 0x40
  403f8e:	ddef      	ble.n	403f70 <_vfiprintf_r+0x2f4>
  403f90:	2a00      	cmp	r2, #0
  403f92:	f040 81e4 	bne.w	40435e <_vfiprintf_r+0x6e2>
  403f96:	3d10      	subs	r5, #16
  403f98:	2d10      	cmp	r5, #16
  403f9a:	4611      	mov	r1, r2
  403f9c:	f04f 0c01 	mov.w	ip, #1
  403fa0:	46ce      	mov	lr, r9
  403fa2:	dced      	bgt.n	403f80 <_vfiprintf_r+0x304>
  403fa4:	4654      	mov	r4, sl
  403fa6:	4661      	mov	r1, ip
  403fa8:	46f2      	mov	sl, lr
  403faa:	442a      	add	r2, r5
  403fac:	2907      	cmp	r1, #7
  403fae:	9211      	str	r2, [sp, #68]	; 0x44
  403fb0:	f8ca 6000 	str.w	r6, [sl]
  403fb4:	f8ca 5004 	str.w	r5, [sl, #4]
  403fb8:	9110      	str	r1, [sp, #64]	; 0x40
  403fba:	f300 82ec 	bgt.w	404596 <_vfiprintf_r+0x91a>
  403fbe:	f89d 5037 	ldrb.w	r5, [sp, #55]	; 0x37
  403fc2:	f10a 0a08 	add.w	sl, sl, #8
  403fc6:	1c48      	adds	r0, r1, #1
  403fc8:	2d00      	cmp	r5, #0
  403fca:	f040 81de 	bne.w	40438a <_vfiprintf_r+0x70e>
  403fce:	9b09      	ldr	r3, [sp, #36]	; 0x24
  403fd0:	2b00      	cmp	r3, #0
  403fd2:	f000 81f8 	beq.w	4043c6 <_vfiprintf_r+0x74a>
  403fd6:	3202      	adds	r2, #2
  403fd8:	a90e      	add	r1, sp, #56	; 0x38
  403fda:	2302      	movs	r3, #2
  403fdc:	2807      	cmp	r0, #7
  403fde:	9211      	str	r2, [sp, #68]	; 0x44
  403fe0:	9010      	str	r0, [sp, #64]	; 0x40
  403fe2:	e88a 000a 	stmia.w	sl, {r1, r3}
  403fe6:	f340 81ea 	ble.w	4043be <_vfiprintf_r+0x742>
  403fea:	2a00      	cmp	r2, #0
  403fec:	f040 838c 	bne.w	404708 <_vfiprintf_r+0xa8c>
  403ff0:	9b0a      	ldr	r3, [sp, #40]	; 0x28
  403ff2:	2b80      	cmp	r3, #128	; 0x80
  403ff4:	f04f 0001 	mov.w	r0, #1
  403ff8:	4611      	mov	r1, r2
  403ffa:	46ca      	mov	sl, r9
  403ffc:	f040 81e7 	bne.w	4043ce <_vfiprintf_r+0x752>
  404000:	9b08      	ldr	r3, [sp, #32]
  404002:	9d01      	ldr	r5, [sp, #4]
  404004:	1b5e      	subs	r6, r3, r5
  404006:	2e00      	cmp	r6, #0
  404008:	f340 81e1 	ble.w	4043ce <_vfiprintf_r+0x752>
  40400c:	2e10      	cmp	r6, #16
  40400e:	4d9a      	ldr	r5, [pc, #616]	; (404278 <_vfiprintf_r+0x5fc>)
  404010:	f340 8450 	ble.w	4048b4 <_vfiprintf_r+0xc38>
  404014:	46d4      	mov	ip, sl
  404016:	2710      	movs	r7, #16
  404018:	46a2      	mov	sl, r4
  40401a:	9c06      	ldr	r4, [sp, #24]
  40401c:	e007      	b.n	40402e <_vfiprintf_r+0x3b2>
  40401e:	f101 0e02 	add.w	lr, r1, #2
  404022:	f10c 0c08 	add.w	ip, ip, #8
  404026:	4601      	mov	r1, r0
  404028:	3e10      	subs	r6, #16
  40402a:	2e10      	cmp	r6, #16
  40402c:	dd11      	ble.n	404052 <_vfiprintf_r+0x3d6>
  40402e:	1c48      	adds	r0, r1, #1
  404030:	3210      	adds	r2, #16
  404032:	2807      	cmp	r0, #7
  404034:	9211      	str	r2, [sp, #68]	; 0x44
  404036:	e88c 00a0 	stmia.w	ip, {r5, r7}
  40403a:	9010      	str	r0, [sp, #64]	; 0x40
  40403c:	ddef      	ble.n	40401e <_vfiprintf_r+0x3a2>
  40403e:	2a00      	cmp	r2, #0
  404040:	f040 829d 	bne.w	40457e <_vfiprintf_r+0x902>
  404044:	3e10      	subs	r6, #16
  404046:	2e10      	cmp	r6, #16
  404048:	f04f 0e01 	mov.w	lr, #1
  40404c:	4611      	mov	r1, r2
  40404e:	46cc      	mov	ip, r9
  404050:	dced      	bgt.n	40402e <_vfiprintf_r+0x3b2>
  404052:	4654      	mov	r4, sl
  404054:	46e2      	mov	sl, ip
  404056:	4432      	add	r2, r6
  404058:	f1be 0f07 	cmp.w	lr, #7
  40405c:	9211      	str	r2, [sp, #68]	; 0x44
  40405e:	e88a 0060 	stmia.w	sl, {r5, r6}
  404062:	f8cd e040 	str.w	lr, [sp, #64]	; 0x40
  404066:	f300 8369 	bgt.w	40473c <_vfiprintf_r+0xac0>
  40406a:	f10a 0a08 	add.w	sl, sl, #8
  40406e:	f10e 0001 	add.w	r0, lr, #1
  404072:	4671      	mov	r1, lr
  404074:	e1ab      	b.n	4043ce <_vfiprintf_r+0x752>
  404076:	9608      	str	r6, [sp, #32]
  404078:	f013 0220 	ands.w	r2, r3, #32
  40407c:	f040 838c 	bne.w	404798 <_vfiprintf_r+0xb1c>
  404080:	f013 0110 	ands.w	r1, r3, #16
  404084:	f040 831a 	bne.w	4046bc <_vfiprintf_r+0xa40>
  404088:	f013 0240 	ands.w	r2, r3, #64	; 0x40
  40408c:	f000 8316 	beq.w	4046bc <_vfiprintf_r+0xa40>
  404090:	9807      	ldr	r0, [sp, #28]
  404092:	460a      	mov	r2, r1
  404094:	4601      	mov	r1, r0
  404096:	3104      	adds	r1, #4
  404098:	8806      	ldrh	r6, [r0, #0]
  40409a:	9107      	str	r1, [sp, #28]
  40409c:	2700      	movs	r7, #0
  40409e:	e720      	b.n	403ee2 <_vfiprintf_r+0x266>
  4040a0:	9608      	str	r6, [sp, #32]
  4040a2:	f043 0310 	orr.w	r3, r3, #16
  4040a6:	e7e7      	b.n	404078 <_vfiprintf_r+0x3fc>
  4040a8:	9608      	str	r6, [sp, #32]
  4040aa:	f043 0310 	orr.w	r3, r3, #16
  4040ae:	e708      	b.n	403ec2 <_vfiprintf_r+0x246>
  4040b0:	f043 0380 	orr.w	r3, r3, #128	; 0x80
  4040b4:	f898 2000 	ldrb.w	r2, [r8]
  4040b8:	e652      	b.n	403d60 <_vfiprintf_r+0xe4>
  4040ba:	f1a2 0130 	sub.w	r1, r2, #48	; 0x30
  4040be:	2600      	movs	r6, #0
  4040c0:	f818 2b01 	ldrb.w	r2, [r8], #1
  4040c4:	eb06 0686 	add.w	r6, r6, r6, lsl #2
  4040c8:	eb01 0646 	add.w	r6, r1, r6, lsl #1
  4040cc:	f1a2 0130 	sub.w	r1, r2, #48	; 0x30
  4040d0:	2909      	cmp	r1, #9
  4040d2:	d9f5      	bls.n	4040c0 <_vfiprintf_r+0x444>
  4040d4:	e646      	b.n	403d64 <_vfiprintf_r+0xe8>
  4040d6:	9608      	str	r6, [sp, #32]
  4040d8:	2800      	cmp	r0, #0
  4040da:	f040 8408 	bne.w	4048ee <_vfiprintf_r+0xc72>
  4040de:	f043 0310 	orr.w	r3, r3, #16
  4040e2:	069e      	lsls	r6, r3, #26
  4040e4:	f100 834c 	bmi.w	404780 <_vfiprintf_r+0xb04>
  4040e8:	06dd      	lsls	r5, r3, #27
  4040ea:	f100 82f3 	bmi.w	4046d4 <_vfiprintf_r+0xa58>
  4040ee:	0658      	lsls	r0, r3, #25
  4040f0:	f140 82f0 	bpl.w	4046d4 <_vfiprintf_r+0xa58>
  4040f4:	9d07      	ldr	r5, [sp, #28]
  4040f6:	f9b5 6000 	ldrsh.w	r6, [r5]
  4040fa:	462a      	mov	r2, r5
  4040fc:	17f7      	asrs	r7, r6, #31
  4040fe:	3204      	adds	r2, #4
  404100:	4630      	mov	r0, r6
  404102:	4639      	mov	r1, r7
  404104:	9207      	str	r2, [sp, #28]
  404106:	2800      	cmp	r0, #0
  404108:	f171 0200 	sbcs.w	r2, r1, #0
  40410c:	f2c0 835d 	blt.w	4047ca <_vfiprintf_r+0xb4e>
  404110:	1c61      	adds	r1, r4, #1
  404112:	f89d 5037 	ldrb.w	r5, [sp, #55]	; 0x37
  404116:	f04f 0201 	mov.w	r2, #1
  40411a:	f47f aeea 	bne.w	403ef2 <_vfiprintf_r+0x276>
  40411e:	ea56 0107 	orrs.w	r1, r6, r7
  404122:	f000 824d 	beq.w	4045c0 <_vfiprintf_r+0x944>
  404126:	9302      	str	r3, [sp, #8]
  404128:	2a01      	cmp	r2, #1
  40412a:	f000 828c 	beq.w	404646 <_vfiprintf_r+0x9ca>
  40412e:	2a02      	cmp	r2, #2
  404130:	f040 825c 	bne.w	4045ec <_vfiprintf_r+0x970>
  404134:	980b      	ldr	r0, [sp, #44]	; 0x2c
  404136:	46cb      	mov	fp, r9
  404138:	0933      	lsrs	r3, r6, #4
  40413a:	f006 010f 	and.w	r1, r6, #15
  40413e:	ea43 7307 	orr.w	r3, r3, r7, lsl #28
  404142:	093a      	lsrs	r2, r7, #4
  404144:	461e      	mov	r6, r3
  404146:	4617      	mov	r7, r2
  404148:	5c43      	ldrb	r3, [r0, r1]
  40414a:	f80b 3d01 	strb.w	r3, [fp, #-1]!
  40414e:	ea56 0307 	orrs.w	r3, r6, r7
  404152:	d1f1      	bne.n	404138 <_vfiprintf_r+0x4bc>
  404154:	eba9 030b 	sub.w	r3, r9, fp
  404158:	9305      	str	r3, [sp, #20]
  40415a:	e6e1      	b.n	403f20 <_vfiprintf_r+0x2a4>
  40415c:	2800      	cmp	r0, #0
  40415e:	f040 83c0 	bne.w	4048e2 <_vfiprintf_r+0xc66>
  404162:	0699      	lsls	r1, r3, #26
  404164:	f100 8367 	bmi.w	404836 <_vfiprintf_r+0xbba>
  404168:	06da      	lsls	r2, r3, #27
  40416a:	f100 80f1 	bmi.w	404350 <_vfiprintf_r+0x6d4>
  40416e:	065b      	lsls	r3, r3, #25
  404170:	f140 80ee 	bpl.w	404350 <_vfiprintf_r+0x6d4>
  404174:	9a07      	ldr	r2, [sp, #28]
  404176:	6813      	ldr	r3, [r2, #0]
  404178:	3204      	adds	r2, #4
  40417a:	9207      	str	r2, [sp, #28]
  40417c:	f8bd 200c 	ldrh.w	r2, [sp, #12]
  404180:	801a      	strh	r2, [r3, #0]
  404182:	e5b8      	b.n	403cf6 <_vfiprintf_r+0x7a>
  404184:	9807      	ldr	r0, [sp, #28]
  404186:	4a3d      	ldr	r2, [pc, #244]	; (40427c <_vfiprintf_r+0x600>)
  404188:	9608      	str	r6, [sp, #32]
  40418a:	920b      	str	r2, [sp, #44]	; 0x2c
  40418c:	6806      	ldr	r6, [r0, #0]
  40418e:	2278      	movs	r2, #120	; 0x78
  404190:	2130      	movs	r1, #48	; 0x30
  404192:	3004      	adds	r0, #4
  404194:	f88d 2039 	strb.w	r2, [sp, #57]	; 0x39
  404198:	f043 0302 	orr.w	r3, r3, #2
  40419c:	9007      	str	r0, [sp, #28]
  40419e:	2700      	movs	r7, #0
  4041a0:	f88d 1038 	strb.w	r1, [sp, #56]	; 0x38
  4041a4:	2202      	movs	r2, #2
  4041a6:	e69c      	b.n	403ee2 <_vfiprintf_r+0x266>
  4041a8:	9608      	str	r6, [sp, #32]
  4041aa:	2800      	cmp	r0, #0
  4041ac:	d099      	beq.n	4040e2 <_vfiprintf_r+0x466>
  4041ae:	f88d 5037 	strb.w	r5, [sp, #55]	; 0x37
  4041b2:	e796      	b.n	4040e2 <_vfiprintf_r+0x466>
  4041b4:	f898 2000 	ldrb.w	r2, [r8]
  4041b8:	2d00      	cmp	r5, #0
  4041ba:	f47f add1 	bne.w	403d60 <_vfiprintf_r+0xe4>
  4041be:	2001      	movs	r0, #1
  4041c0:	2520      	movs	r5, #32
  4041c2:	e5cd      	b.n	403d60 <_vfiprintf_r+0xe4>
  4041c4:	f043 0301 	orr.w	r3, r3, #1
  4041c8:	f898 2000 	ldrb.w	r2, [r8]
  4041cc:	e5c8      	b.n	403d60 <_vfiprintf_r+0xe4>
  4041ce:	9608      	str	r6, [sp, #32]
  4041d0:	2800      	cmp	r0, #0
  4041d2:	f040 8393 	bne.w	4048fc <_vfiprintf_r+0xc80>
  4041d6:	4929      	ldr	r1, [pc, #164]	; (40427c <_vfiprintf_r+0x600>)
  4041d8:	910b      	str	r1, [sp, #44]	; 0x2c
  4041da:	069f      	lsls	r7, r3, #26
  4041dc:	f100 82e8 	bmi.w	4047b0 <_vfiprintf_r+0xb34>
  4041e0:	9807      	ldr	r0, [sp, #28]
  4041e2:	06de      	lsls	r6, r3, #27
  4041e4:	4601      	mov	r1, r0
  4041e6:	f100 8270 	bmi.w	4046ca <_vfiprintf_r+0xa4e>
  4041ea:	065d      	lsls	r5, r3, #25
  4041ec:	f140 826d 	bpl.w	4046ca <_vfiprintf_r+0xa4e>
  4041f0:	3104      	adds	r1, #4
  4041f2:	8806      	ldrh	r6, [r0, #0]
  4041f4:	9107      	str	r1, [sp, #28]
  4041f6:	2700      	movs	r7, #0
  4041f8:	07d8      	lsls	r0, r3, #31
  4041fa:	f140 8222 	bpl.w	404642 <_vfiprintf_r+0x9c6>
  4041fe:	ea56 0107 	orrs.w	r1, r6, r7
  404202:	f000 821e 	beq.w	404642 <_vfiprintf_r+0x9c6>
  404206:	2130      	movs	r1, #48	; 0x30
  404208:	f88d 2039 	strb.w	r2, [sp, #57]	; 0x39
  40420c:	f043 0302 	orr.w	r3, r3, #2
  404210:	f88d 1038 	strb.w	r1, [sp, #56]	; 0x38
  404214:	2202      	movs	r2, #2
  404216:	e664      	b.n	403ee2 <_vfiprintf_r+0x266>
  404218:	9608      	str	r6, [sp, #32]
  40421a:	2800      	cmp	r0, #0
  40421c:	f040 836b 	bne.w	4048f6 <_vfiprintf_r+0xc7a>
  404220:	4917      	ldr	r1, [pc, #92]	; (404280 <_vfiprintf_r+0x604>)
  404222:	910b      	str	r1, [sp, #44]	; 0x2c
  404224:	e7d9      	b.n	4041da <_vfiprintf_r+0x55e>
  404226:	9907      	ldr	r1, [sp, #28]
  404228:	9608      	str	r6, [sp, #32]
  40422a:	680a      	ldr	r2, [r1, #0]
  40422c:	f88d 2048 	strb.w	r2, [sp, #72]	; 0x48
  404230:	f04f 0000 	mov.w	r0, #0
  404234:	460a      	mov	r2, r1
  404236:	f88d 0037 	strb.w	r0, [sp, #55]	; 0x37
  40423a:	3204      	adds	r2, #4
  40423c:	2001      	movs	r0, #1
  40423e:	9001      	str	r0, [sp, #4]
  404240:	9207      	str	r2, [sp, #28]
  404242:	9005      	str	r0, [sp, #20]
  404244:	f10d 0b48 	add.w	fp, sp, #72	; 0x48
  404248:	9302      	str	r3, [sp, #8]
  40424a:	2400      	movs	r4, #0
  40424c:	e670      	b.n	403f30 <_vfiprintf_r+0x2b4>
  40424e:	f043 0340 	orr.w	r3, r3, #64	; 0x40
  404252:	f898 2000 	ldrb.w	r2, [r8]
  404256:	e583      	b.n	403d60 <_vfiprintf_r+0xe4>
  404258:	f898 2000 	ldrb.w	r2, [r8]
  40425c:	2a6c      	cmp	r2, #108	; 0x6c
  40425e:	bf03      	ittte	eq
  404260:	f898 2001 	ldrbeq.w	r2, [r8, #1]
  404264:	f043 0320 	orreq.w	r3, r3, #32
  404268:	f108 0801 	addeq.w	r8, r8, #1
  40426c:	f043 0310 	orrne.w	r3, r3, #16
  404270:	e576      	b.n	403d60 <_vfiprintf_r+0xe4>
  404272:	bf00      	nop
  404274:	0041149c 	.word	0x0041149c
  404278:	004114ac 	.word	0x004114ac
  40427c:	00411480 	.word	0x00411480
  404280:	0041146c 	.word	0x0041146c
  404284:	9907      	ldr	r1, [sp, #28]
  404286:	680e      	ldr	r6, [r1, #0]
  404288:	460a      	mov	r2, r1
  40428a:	2e00      	cmp	r6, #0
  40428c:	f102 0204 	add.w	r2, r2, #4
  404290:	f6ff ae0f 	blt.w	403eb2 <_vfiprintf_r+0x236>
  404294:	9207      	str	r2, [sp, #28]
  404296:	f898 2000 	ldrb.w	r2, [r8]
  40429a:	e561      	b.n	403d60 <_vfiprintf_r+0xe4>
  40429c:	f898 2000 	ldrb.w	r2, [r8]
  4042a0:	2001      	movs	r0, #1
  4042a2:	252b      	movs	r5, #43	; 0x2b
  4042a4:	e55c      	b.n	403d60 <_vfiprintf_r+0xe4>
  4042a6:	9907      	ldr	r1, [sp, #28]
  4042a8:	9608      	str	r6, [sp, #32]
  4042aa:	f8d1 b000 	ldr.w	fp, [r1]
  4042ae:	f04f 0200 	mov.w	r2, #0
  4042b2:	f88d 2037 	strb.w	r2, [sp, #55]	; 0x37
  4042b6:	1d0e      	adds	r6, r1, #4
  4042b8:	f1bb 0f00 	cmp.w	fp, #0
  4042bc:	f000 82e5 	beq.w	40488a <_vfiprintf_r+0xc0e>
  4042c0:	1c67      	adds	r7, r4, #1
  4042c2:	f000 82c4 	beq.w	40484e <_vfiprintf_r+0xbd2>
  4042c6:	4622      	mov	r2, r4
  4042c8:	2100      	movs	r1, #0
  4042ca:	4658      	mov	r0, fp
  4042cc:	9301      	str	r3, [sp, #4]
  4042ce:	f001 fbd7 	bl	405a80 <memchr>
  4042d2:	9b01      	ldr	r3, [sp, #4]
  4042d4:	2800      	cmp	r0, #0
  4042d6:	f000 82e5 	beq.w	4048a4 <_vfiprintf_r+0xc28>
  4042da:	eba0 020b 	sub.w	r2, r0, fp
  4042de:	9205      	str	r2, [sp, #20]
  4042e0:	9607      	str	r6, [sp, #28]
  4042e2:	9302      	str	r3, [sp, #8]
  4042e4:	f89d 5037 	ldrb.w	r5, [sp, #55]	; 0x37
  4042e8:	2400      	movs	r4, #0
  4042ea:	e619      	b.n	403f20 <_vfiprintf_r+0x2a4>
  4042ec:	f898 2000 	ldrb.w	r2, [r8]
  4042f0:	2a2a      	cmp	r2, #42	; 0x2a
  4042f2:	f108 0701 	add.w	r7, r8, #1
  4042f6:	f000 82e9 	beq.w	4048cc <_vfiprintf_r+0xc50>
  4042fa:	f1a2 0130 	sub.w	r1, r2, #48	; 0x30
  4042fe:	2909      	cmp	r1, #9
  404300:	46b8      	mov	r8, r7
  404302:	f04f 0400 	mov.w	r4, #0
  404306:	f63f ad2d 	bhi.w	403d64 <_vfiprintf_r+0xe8>
  40430a:	f818 2b01 	ldrb.w	r2, [r8], #1
  40430e:	eb04 0484 	add.w	r4, r4, r4, lsl #2
  404312:	eb01 0444 	add.w	r4, r1, r4, lsl #1
  404316:	f1a2 0130 	sub.w	r1, r2, #48	; 0x30
  40431a:	2909      	cmp	r1, #9
  40431c:	d9f5      	bls.n	40430a <_vfiprintf_r+0x68e>
  40431e:	e521      	b.n	403d64 <_vfiprintf_r+0xe8>
  404320:	f043 0320 	orr.w	r3, r3, #32
  404324:	f898 2000 	ldrb.w	r2, [r8]
  404328:	e51a      	b.n	403d60 <_vfiprintf_r+0xe4>
  40432a:	9608      	str	r6, [sp, #32]
  40432c:	2800      	cmp	r0, #0
  40432e:	f040 82db 	bne.w	4048e8 <_vfiprintf_r+0xc6c>
  404332:	2a00      	cmp	r2, #0
  404334:	f000 80e7 	beq.w	404506 <_vfiprintf_r+0x88a>
  404338:	2101      	movs	r1, #1
  40433a:	f88d 2048 	strb.w	r2, [sp, #72]	; 0x48
  40433e:	f04f 0200 	mov.w	r2, #0
  404342:	9101      	str	r1, [sp, #4]
  404344:	f88d 2037 	strb.w	r2, [sp, #55]	; 0x37
  404348:	9105      	str	r1, [sp, #20]
  40434a:	f10d 0b48 	add.w	fp, sp, #72	; 0x48
  40434e:	e77b      	b.n	404248 <_vfiprintf_r+0x5cc>
  404350:	9a07      	ldr	r2, [sp, #28]
  404352:	6813      	ldr	r3, [r2, #0]
  404354:	3204      	adds	r2, #4
  404356:	9207      	str	r2, [sp, #28]
  404358:	9a03      	ldr	r2, [sp, #12]
  40435a:	601a      	str	r2, [r3, #0]
  40435c:	e4cb      	b.n	403cf6 <_vfiprintf_r+0x7a>
  40435e:	aa0f      	add	r2, sp, #60	; 0x3c
  404360:	9904      	ldr	r1, [sp, #16]
  404362:	4620      	mov	r0, r4
  404364:	f7ff fc4a 	bl	403bfc <__sprint_r.part.0>
  404368:	2800      	cmp	r0, #0
  40436a:	f040 8139 	bne.w	4045e0 <_vfiprintf_r+0x964>
  40436e:	9910      	ldr	r1, [sp, #64]	; 0x40
  404370:	9a11      	ldr	r2, [sp, #68]	; 0x44
  404372:	f101 0c01 	add.w	ip, r1, #1
  404376:	46ce      	mov	lr, r9
  404378:	e5ff      	b.n	403f7a <_vfiprintf_r+0x2fe>
  40437a:	9910      	ldr	r1, [sp, #64]	; 0x40
  40437c:	9a11      	ldr	r2, [sp, #68]	; 0x44
  40437e:	1c48      	adds	r0, r1, #1
  404380:	f89d 5037 	ldrb.w	r5, [sp, #55]	; 0x37
  404384:	2d00      	cmp	r5, #0
  404386:	f43f ae22 	beq.w	403fce <_vfiprintf_r+0x352>
  40438a:	3201      	adds	r2, #1
  40438c:	f10d 0537 	add.w	r5, sp, #55	; 0x37
  404390:	2101      	movs	r1, #1
  404392:	2807      	cmp	r0, #7
  404394:	9211      	str	r2, [sp, #68]	; 0x44
  404396:	9010      	str	r0, [sp, #64]	; 0x40
  404398:	f8ca 5000 	str.w	r5, [sl]
  40439c:	f8ca 1004 	str.w	r1, [sl, #4]
  4043a0:	f340 8108 	ble.w	4045b4 <_vfiprintf_r+0x938>
  4043a4:	2a00      	cmp	r2, #0
  4043a6:	f040 81bc 	bne.w	404722 <_vfiprintf_r+0xaa6>
  4043aa:	9b09      	ldr	r3, [sp, #36]	; 0x24
  4043ac:	2b00      	cmp	r3, #0
  4043ae:	f43f ae1f 	beq.w	403ff0 <_vfiprintf_r+0x374>
  4043b2:	ab0e      	add	r3, sp, #56	; 0x38
  4043b4:	2202      	movs	r2, #2
  4043b6:	4608      	mov	r0, r1
  4043b8:	931c      	str	r3, [sp, #112]	; 0x70
  4043ba:	921d      	str	r2, [sp, #116]	; 0x74
  4043bc:	46ca      	mov	sl, r9
  4043be:	4601      	mov	r1, r0
  4043c0:	f10a 0a08 	add.w	sl, sl, #8
  4043c4:	3001      	adds	r0, #1
  4043c6:	9b0a      	ldr	r3, [sp, #40]	; 0x28
  4043c8:	2b80      	cmp	r3, #128	; 0x80
  4043ca:	f43f ae19 	beq.w	404000 <_vfiprintf_r+0x384>
  4043ce:	9b05      	ldr	r3, [sp, #20]
  4043d0:	1ae4      	subs	r4, r4, r3
  4043d2:	2c00      	cmp	r4, #0
  4043d4:	dd2e      	ble.n	404434 <_vfiprintf_r+0x7b8>
  4043d6:	2c10      	cmp	r4, #16
  4043d8:	4db3      	ldr	r5, [pc, #716]	; (4046a8 <_vfiprintf_r+0xa2c>)
  4043da:	dd1e      	ble.n	40441a <_vfiprintf_r+0x79e>
  4043dc:	46d6      	mov	lr, sl
  4043de:	2610      	movs	r6, #16
  4043e0:	9f06      	ldr	r7, [sp, #24]
  4043e2:	f8dd a010 	ldr.w	sl, [sp, #16]
  4043e6:	e006      	b.n	4043f6 <_vfiprintf_r+0x77a>
  4043e8:	1c88      	adds	r0, r1, #2
  4043ea:	f10e 0e08 	add.w	lr, lr, #8
  4043ee:	4619      	mov	r1, r3
  4043f0:	3c10      	subs	r4, #16
  4043f2:	2c10      	cmp	r4, #16
  4043f4:	dd10      	ble.n	404418 <_vfiprintf_r+0x79c>
  4043f6:	1c4b      	adds	r3, r1, #1
  4043f8:	3210      	adds	r2, #16
  4043fa:	2b07      	cmp	r3, #7
  4043fc:	9211      	str	r2, [sp, #68]	; 0x44
  4043fe:	e88e 0060 	stmia.w	lr, {r5, r6}
  404402:	9310      	str	r3, [sp, #64]	; 0x40
  404404:	ddf0      	ble.n	4043e8 <_vfiprintf_r+0x76c>
  404406:	2a00      	cmp	r2, #0
  404408:	d165      	bne.n	4044d6 <_vfiprintf_r+0x85a>
  40440a:	3c10      	subs	r4, #16
  40440c:	2c10      	cmp	r4, #16
  40440e:	f04f 0001 	mov.w	r0, #1
  404412:	4611      	mov	r1, r2
  404414:	46ce      	mov	lr, r9
  404416:	dcee      	bgt.n	4043f6 <_vfiprintf_r+0x77a>
  404418:	46f2      	mov	sl, lr
  40441a:	4422      	add	r2, r4
  40441c:	2807      	cmp	r0, #7
  40441e:	9211      	str	r2, [sp, #68]	; 0x44
  404420:	f8ca 5000 	str.w	r5, [sl]
  404424:	f8ca 4004 	str.w	r4, [sl, #4]
  404428:	9010      	str	r0, [sp, #64]	; 0x40
  40442a:	f300 8085 	bgt.w	404538 <_vfiprintf_r+0x8bc>
  40442e:	f10a 0a08 	add.w	sl, sl, #8
  404432:	3001      	adds	r0, #1
  404434:	9905      	ldr	r1, [sp, #20]
  404436:	f8ca b000 	str.w	fp, [sl]
  40443a:	440a      	add	r2, r1
  40443c:	2807      	cmp	r0, #7
  40443e:	9211      	str	r2, [sp, #68]	; 0x44
  404440:	f8ca 1004 	str.w	r1, [sl, #4]
  404444:	9010      	str	r0, [sp, #64]	; 0x40
  404446:	f340 8082 	ble.w	40454e <_vfiprintf_r+0x8d2>
  40444a:	2a00      	cmp	r2, #0
  40444c:	f040 8118 	bne.w	404680 <_vfiprintf_r+0xa04>
  404450:	9b02      	ldr	r3, [sp, #8]
  404452:	9210      	str	r2, [sp, #64]	; 0x40
  404454:	0758      	lsls	r0, r3, #29
  404456:	d535      	bpl.n	4044c4 <_vfiprintf_r+0x848>
  404458:	9b08      	ldr	r3, [sp, #32]
  40445a:	9901      	ldr	r1, [sp, #4]
  40445c:	1a5c      	subs	r4, r3, r1
  40445e:	2c00      	cmp	r4, #0
  404460:	f340 80e7 	ble.w	404632 <_vfiprintf_r+0x9b6>
  404464:	46ca      	mov	sl, r9
  404466:	2c10      	cmp	r4, #16
  404468:	f340 8218 	ble.w	40489c <_vfiprintf_r+0xc20>
  40446c:	9910      	ldr	r1, [sp, #64]	; 0x40
  40446e:	4e8f      	ldr	r6, [pc, #572]	; (4046ac <_vfiprintf_r+0xa30>)
  404470:	9f06      	ldr	r7, [sp, #24]
  404472:	f8dd b010 	ldr.w	fp, [sp, #16]
  404476:	2510      	movs	r5, #16
  404478:	e006      	b.n	404488 <_vfiprintf_r+0x80c>
  40447a:	1c88      	adds	r0, r1, #2
  40447c:	f10a 0a08 	add.w	sl, sl, #8
  404480:	4619      	mov	r1, r3
  404482:	3c10      	subs	r4, #16
  404484:	2c10      	cmp	r4, #16
  404486:	dd11      	ble.n	4044ac <_vfiprintf_r+0x830>
  404488:	1c4b      	adds	r3, r1, #1
  40448a:	3210      	adds	r2, #16
  40448c:	2b07      	cmp	r3, #7
  40448e:	9211      	str	r2, [sp, #68]	; 0x44
  404490:	f8ca 6000 	str.w	r6, [sl]
  404494:	f8ca 5004 	str.w	r5, [sl, #4]
  404498:	9310      	str	r3, [sp, #64]	; 0x40
  40449a:	ddee      	ble.n	40447a <_vfiprintf_r+0x7fe>
  40449c:	bb42      	cbnz	r2, 4044f0 <_vfiprintf_r+0x874>
  40449e:	3c10      	subs	r4, #16
  4044a0:	2c10      	cmp	r4, #16
  4044a2:	f04f 0001 	mov.w	r0, #1
  4044a6:	4611      	mov	r1, r2
  4044a8:	46ca      	mov	sl, r9
  4044aa:	dced      	bgt.n	404488 <_vfiprintf_r+0x80c>
  4044ac:	4422      	add	r2, r4
  4044ae:	2807      	cmp	r0, #7
  4044b0:	9211      	str	r2, [sp, #68]	; 0x44
  4044b2:	f8ca 6000 	str.w	r6, [sl]
  4044b6:	f8ca 4004 	str.w	r4, [sl, #4]
  4044ba:	9010      	str	r0, [sp, #64]	; 0x40
  4044bc:	dd51      	ble.n	404562 <_vfiprintf_r+0x8e6>
  4044be:	2a00      	cmp	r2, #0
  4044c0:	f040 819b 	bne.w	4047fa <_vfiprintf_r+0xb7e>
  4044c4:	9b03      	ldr	r3, [sp, #12]
  4044c6:	9a08      	ldr	r2, [sp, #32]
  4044c8:	9901      	ldr	r1, [sp, #4]
  4044ca:	428a      	cmp	r2, r1
  4044cc:	bfac      	ite	ge
  4044ce:	189b      	addge	r3, r3, r2
  4044d0:	185b      	addlt	r3, r3, r1
  4044d2:	9303      	str	r3, [sp, #12]
  4044d4:	e04e      	b.n	404574 <_vfiprintf_r+0x8f8>
  4044d6:	aa0f      	add	r2, sp, #60	; 0x3c
  4044d8:	4651      	mov	r1, sl
  4044da:	4638      	mov	r0, r7
  4044dc:	f7ff fb8e 	bl	403bfc <__sprint_r.part.0>
  4044e0:	2800      	cmp	r0, #0
  4044e2:	f040 813f 	bne.w	404764 <_vfiprintf_r+0xae8>
  4044e6:	9910      	ldr	r1, [sp, #64]	; 0x40
  4044e8:	9a11      	ldr	r2, [sp, #68]	; 0x44
  4044ea:	1c48      	adds	r0, r1, #1
  4044ec:	46ce      	mov	lr, r9
  4044ee:	e77f      	b.n	4043f0 <_vfiprintf_r+0x774>
  4044f0:	aa0f      	add	r2, sp, #60	; 0x3c
  4044f2:	4659      	mov	r1, fp
  4044f4:	4638      	mov	r0, r7
  4044f6:	f7ff fb81 	bl	403bfc <__sprint_r.part.0>
  4044fa:	b960      	cbnz	r0, 404516 <_vfiprintf_r+0x89a>
  4044fc:	9910      	ldr	r1, [sp, #64]	; 0x40
  4044fe:	9a11      	ldr	r2, [sp, #68]	; 0x44
  404500:	1c48      	adds	r0, r1, #1
  404502:	46ca      	mov	sl, r9
  404504:	e7bd      	b.n	404482 <_vfiprintf_r+0x806>
  404506:	9b11      	ldr	r3, [sp, #68]	; 0x44
  404508:	f8dd b010 	ldr.w	fp, [sp, #16]
  40450c:	2b00      	cmp	r3, #0
  40450e:	f040 81d4 	bne.w	4048ba <_vfiprintf_r+0xc3e>
  404512:	2300      	movs	r3, #0
  404514:	9310      	str	r3, [sp, #64]	; 0x40
  404516:	f8db 3064 	ldr.w	r3, [fp, #100]	; 0x64
  40451a:	f013 0f01 	tst.w	r3, #1
  40451e:	f8bb 300c 	ldrh.w	r3, [fp, #12]
  404522:	d102      	bne.n	40452a <_vfiprintf_r+0x8ae>
  404524:	059a      	lsls	r2, r3, #22
  404526:	f140 80de 	bpl.w	4046e6 <_vfiprintf_r+0xa6a>
  40452a:	065b      	lsls	r3, r3, #25
  40452c:	f53f acb2 	bmi.w	403e94 <_vfiprintf_r+0x218>
  404530:	9803      	ldr	r0, [sp, #12]
  404532:	b02d      	add	sp, #180	; 0xb4
  404534:	e8bd 8ff0 	ldmia.w	sp!, {r4, r5, r6, r7, r8, r9, sl, fp, pc}
  404538:	2a00      	cmp	r2, #0
  40453a:	f040 8106 	bne.w	40474a <_vfiprintf_r+0xace>
  40453e:	9a05      	ldr	r2, [sp, #20]
  404540:	921d      	str	r2, [sp, #116]	; 0x74
  404542:	2301      	movs	r3, #1
  404544:	9211      	str	r2, [sp, #68]	; 0x44
  404546:	f8cd b070 	str.w	fp, [sp, #112]	; 0x70
  40454a:	9310      	str	r3, [sp, #64]	; 0x40
  40454c:	46ca      	mov	sl, r9
  40454e:	f10a 0a08 	add.w	sl, sl, #8
  404552:	9b02      	ldr	r3, [sp, #8]
  404554:	0759      	lsls	r1, r3, #29
  404556:	d504      	bpl.n	404562 <_vfiprintf_r+0x8e6>
  404558:	9b08      	ldr	r3, [sp, #32]
  40455a:	9901      	ldr	r1, [sp, #4]
  40455c:	1a5c      	subs	r4, r3, r1
  40455e:	2c00      	cmp	r4, #0
  404560:	dc81      	bgt.n	404466 <_vfiprintf_r+0x7ea>
  404562:	9b03      	ldr	r3, [sp, #12]
  404564:	9908      	ldr	r1, [sp, #32]
  404566:	9801      	ldr	r0, [sp, #4]
  404568:	4281      	cmp	r1, r0
  40456a:	bfac      	ite	ge
  40456c:	185b      	addge	r3, r3, r1
  40456e:	181b      	addlt	r3, r3, r0
  404570:	9303      	str	r3, [sp, #12]
  404572:	bb72      	cbnz	r2, 4045d2 <_vfiprintf_r+0x956>
  404574:	2300      	movs	r3, #0
  404576:	9310      	str	r3, [sp, #64]	; 0x40
  404578:	46ca      	mov	sl, r9
  40457a:	f7ff bbbc 	b.w	403cf6 <_vfiprintf_r+0x7a>
  40457e:	aa0f      	add	r2, sp, #60	; 0x3c
  404580:	9904      	ldr	r1, [sp, #16]
  404582:	4620      	mov	r0, r4
  404584:	f7ff fb3a 	bl	403bfc <__sprint_r.part.0>
  404588:	bb50      	cbnz	r0, 4045e0 <_vfiprintf_r+0x964>
  40458a:	9910      	ldr	r1, [sp, #64]	; 0x40
  40458c:	9a11      	ldr	r2, [sp, #68]	; 0x44
  40458e:	f101 0e01 	add.w	lr, r1, #1
  404592:	46cc      	mov	ip, r9
  404594:	e548      	b.n	404028 <_vfiprintf_r+0x3ac>
  404596:	2a00      	cmp	r2, #0
  404598:	f040 8140 	bne.w	40481c <_vfiprintf_r+0xba0>
  40459c:	f89d 1037 	ldrb.w	r1, [sp, #55]	; 0x37
  4045a0:	2900      	cmp	r1, #0
  4045a2:	f000 811b 	beq.w	4047dc <_vfiprintf_r+0xb60>
  4045a6:	2201      	movs	r2, #1
  4045a8:	f10d 0137 	add.w	r1, sp, #55	; 0x37
  4045ac:	4610      	mov	r0, r2
  4045ae:	921d      	str	r2, [sp, #116]	; 0x74
  4045b0:	911c      	str	r1, [sp, #112]	; 0x70
  4045b2:	46ca      	mov	sl, r9
  4045b4:	4601      	mov	r1, r0
  4045b6:	f10a 0a08 	add.w	sl, sl, #8
  4045ba:	3001      	adds	r0, #1
  4045bc:	e507      	b.n	403fce <_vfiprintf_r+0x352>
  4045be:	9b02      	ldr	r3, [sp, #8]
  4045c0:	2a01      	cmp	r2, #1
  4045c2:	f000 8098 	beq.w	4046f6 <_vfiprintf_r+0xa7a>
  4045c6:	2a02      	cmp	r2, #2
  4045c8:	d10d      	bne.n	4045e6 <_vfiprintf_r+0x96a>
  4045ca:	9302      	str	r3, [sp, #8]
  4045cc:	2600      	movs	r6, #0
  4045ce:	2700      	movs	r7, #0
  4045d0:	e5b0      	b.n	404134 <_vfiprintf_r+0x4b8>
  4045d2:	aa0f      	add	r2, sp, #60	; 0x3c
  4045d4:	9904      	ldr	r1, [sp, #16]
  4045d6:	9806      	ldr	r0, [sp, #24]
  4045d8:	f7ff fb10 	bl	403bfc <__sprint_r.part.0>
  4045dc:	2800      	cmp	r0, #0
  4045de:	d0c9      	beq.n	404574 <_vfiprintf_r+0x8f8>
  4045e0:	f8dd b010 	ldr.w	fp, [sp, #16]
  4045e4:	e797      	b.n	404516 <_vfiprintf_r+0x89a>
  4045e6:	9302      	str	r3, [sp, #8]
  4045e8:	2600      	movs	r6, #0
  4045ea:	2700      	movs	r7, #0
  4045ec:	4649      	mov	r1, r9
  4045ee:	e000      	b.n	4045f2 <_vfiprintf_r+0x976>
  4045f0:	4659      	mov	r1, fp
  4045f2:	08f2      	lsrs	r2, r6, #3
  4045f4:	ea42 7247 	orr.w	r2, r2, r7, lsl #29
  4045f8:	08f8      	lsrs	r0, r7, #3
  4045fa:	f006 0307 	and.w	r3, r6, #7
  4045fe:	4607      	mov	r7, r0
  404600:	4616      	mov	r6, r2
  404602:	3330      	adds	r3, #48	; 0x30
  404604:	ea56 0207 	orrs.w	r2, r6, r7
  404608:	f801 3c01 	strb.w	r3, [r1, #-1]
  40460c:	f101 3bff 	add.w	fp, r1, #4294967295
  404610:	d1ee      	bne.n	4045f0 <_vfiprintf_r+0x974>
  404612:	9a02      	ldr	r2, [sp, #8]
  404614:	07d6      	lsls	r6, r2, #31
  404616:	f57f ad9d 	bpl.w	404154 <_vfiprintf_r+0x4d8>
  40461a:	2b30      	cmp	r3, #48	; 0x30
  40461c:	f43f ad9a 	beq.w	404154 <_vfiprintf_r+0x4d8>
  404620:	3902      	subs	r1, #2
  404622:	2330      	movs	r3, #48	; 0x30
  404624:	f80b 3c01 	strb.w	r3, [fp, #-1]
  404628:	eba9 0301 	sub.w	r3, r9, r1
  40462c:	9305      	str	r3, [sp, #20]
  40462e:	468b      	mov	fp, r1
  404630:	e476      	b.n	403f20 <_vfiprintf_r+0x2a4>
  404632:	9b03      	ldr	r3, [sp, #12]
  404634:	9a08      	ldr	r2, [sp, #32]
  404636:	428a      	cmp	r2, r1
  404638:	bfac      	ite	ge
  40463a:	189b      	addge	r3, r3, r2
  40463c:	185b      	addlt	r3, r3, r1
  40463e:	9303      	str	r3, [sp, #12]
  404640:	e798      	b.n	404574 <_vfiprintf_r+0x8f8>
  404642:	2202      	movs	r2, #2
  404644:	e44d      	b.n	403ee2 <_vfiprintf_r+0x266>
  404646:	2f00      	cmp	r7, #0
  404648:	bf08      	it	eq
  40464a:	2e0a      	cmpeq	r6, #10
  40464c:	d352      	bcc.n	4046f4 <_vfiprintf_r+0xa78>
  40464e:	46cb      	mov	fp, r9
  404650:	4630      	mov	r0, r6
  404652:	4639      	mov	r1, r7
  404654:	220a      	movs	r2, #10
  404656:	2300      	movs	r3, #0
  404658:	f001 ffae 	bl	4065b8 <__aeabi_uldivmod>
  40465c:	3230      	adds	r2, #48	; 0x30
  40465e:	f80b 2d01 	strb.w	r2, [fp, #-1]!
  404662:	4630      	mov	r0, r6
  404664:	4639      	mov	r1, r7
  404666:	2300      	movs	r3, #0
  404668:	220a      	movs	r2, #10
  40466a:	f001 ffa5 	bl	4065b8 <__aeabi_uldivmod>
  40466e:	4606      	mov	r6, r0
  404670:	460f      	mov	r7, r1
  404672:	ea56 0307 	orrs.w	r3, r6, r7
  404676:	d1eb      	bne.n	404650 <_vfiprintf_r+0x9d4>
  404678:	e56c      	b.n	404154 <_vfiprintf_r+0x4d8>
  40467a:	9405      	str	r4, [sp, #20]
  40467c:	46cb      	mov	fp, r9
  40467e:	e44f      	b.n	403f20 <_vfiprintf_r+0x2a4>
  404680:	aa0f      	add	r2, sp, #60	; 0x3c
  404682:	9904      	ldr	r1, [sp, #16]
  404684:	9806      	ldr	r0, [sp, #24]
  404686:	f7ff fab9 	bl	403bfc <__sprint_r.part.0>
  40468a:	2800      	cmp	r0, #0
  40468c:	d1a8      	bne.n	4045e0 <_vfiprintf_r+0x964>
  40468e:	9a11      	ldr	r2, [sp, #68]	; 0x44
  404690:	46ca      	mov	sl, r9
  404692:	e75e      	b.n	404552 <_vfiprintf_r+0x8d6>
  404694:	aa0f      	add	r2, sp, #60	; 0x3c
  404696:	9904      	ldr	r1, [sp, #16]
  404698:	9806      	ldr	r0, [sp, #24]
  40469a:	f7ff faaf 	bl	403bfc <__sprint_r.part.0>
  40469e:	2800      	cmp	r0, #0
  4046a0:	d19e      	bne.n	4045e0 <_vfiprintf_r+0x964>
  4046a2:	46ca      	mov	sl, r9
  4046a4:	f7ff bbc0 	b.w	403e28 <_vfiprintf_r+0x1ac>
  4046a8:	004114ac 	.word	0x004114ac
  4046ac:	0041149c 	.word	0x0041149c
  4046b0:	3104      	adds	r1, #4
  4046b2:	6816      	ldr	r6, [r2, #0]
  4046b4:	9107      	str	r1, [sp, #28]
  4046b6:	2201      	movs	r2, #1
  4046b8:	2700      	movs	r7, #0
  4046ba:	e412      	b.n	403ee2 <_vfiprintf_r+0x266>
  4046bc:	9807      	ldr	r0, [sp, #28]
  4046be:	4601      	mov	r1, r0
  4046c0:	3104      	adds	r1, #4
  4046c2:	6806      	ldr	r6, [r0, #0]
  4046c4:	9107      	str	r1, [sp, #28]
  4046c6:	2700      	movs	r7, #0
  4046c8:	e40b      	b.n	403ee2 <_vfiprintf_r+0x266>
  4046ca:	680e      	ldr	r6, [r1, #0]
  4046cc:	3104      	adds	r1, #4
  4046ce:	9107      	str	r1, [sp, #28]
  4046d0:	2700      	movs	r7, #0
  4046d2:	e591      	b.n	4041f8 <_vfiprintf_r+0x57c>
  4046d4:	9907      	ldr	r1, [sp, #28]
  4046d6:	680e      	ldr	r6, [r1, #0]
  4046d8:	460a      	mov	r2, r1
  4046da:	17f7      	asrs	r7, r6, #31
  4046dc:	3204      	adds	r2, #4
  4046de:	9207      	str	r2, [sp, #28]
  4046e0:	4630      	mov	r0, r6
  4046e2:	4639      	mov	r1, r7
  4046e4:	e50f      	b.n	404106 <_vfiprintf_r+0x48a>
  4046e6:	f8db 0058 	ldr.w	r0, [fp, #88]	; 0x58
  4046ea:	f000 fe7f 	bl	4053ec <__retarget_lock_release_recursive>
  4046ee:	f8bb 300c 	ldrh.w	r3, [fp, #12]
  4046f2:	e71a      	b.n	40452a <_vfiprintf_r+0x8ae>
  4046f4:	9b02      	ldr	r3, [sp, #8]
  4046f6:	9302      	str	r3, [sp, #8]
  4046f8:	f10d 0bb0 	add.w	fp, sp, #176	; 0xb0
  4046fc:	3630      	adds	r6, #48	; 0x30
  4046fe:	2301      	movs	r3, #1
  404700:	f80b 6d41 	strb.w	r6, [fp, #-65]!
  404704:	9305      	str	r3, [sp, #20]
  404706:	e40b      	b.n	403f20 <_vfiprintf_r+0x2a4>
  404708:	aa0f      	add	r2, sp, #60	; 0x3c
  40470a:	9904      	ldr	r1, [sp, #16]
  40470c:	9806      	ldr	r0, [sp, #24]
  40470e:	f7ff fa75 	bl	403bfc <__sprint_r.part.0>
  404712:	2800      	cmp	r0, #0
  404714:	f47f af64 	bne.w	4045e0 <_vfiprintf_r+0x964>
  404718:	9910      	ldr	r1, [sp, #64]	; 0x40
  40471a:	9a11      	ldr	r2, [sp, #68]	; 0x44
  40471c:	1c48      	adds	r0, r1, #1
  40471e:	46ca      	mov	sl, r9
  404720:	e651      	b.n	4043c6 <_vfiprintf_r+0x74a>
  404722:	aa0f      	add	r2, sp, #60	; 0x3c
  404724:	9904      	ldr	r1, [sp, #16]
  404726:	9806      	ldr	r0, [sp, #24]
  404728:	f7ff fa68 	bl	403bfc <__sprint_r.part.0>
  40472c:	2800      	cmp	r0, #0
  40472e:	f47f af57 	bne.w	4045e0 <_vfiprintf_r+0x964>
  404732:	9910      	ldr	r1, [sp, #64]	; 0x40
  404734:	9a11      	ldr	r2, [sp, #68]	; 0x44
  404736:	1c48      	adds	r0, r1, #1
  404738:	46ca      	mov	sl, r9
  40473a:	e448      	b.n	403fce <_vfiprintf_r+0x352>
  40473c:	2a00      	cmp	r2, #0
  40473e:	f040 8091 	bne.w	404864 <_vfiprintf_r+0xbe8>
  404742:	2001      	movs	r0, #1
  404744:	4611      	mov	r1, r2
  404746:	46ca      	mov	sl, r9
  404748:	e641      	b.n	4043ce <_vfiprintf_r+0x752>
  40474a:	aa0f      	add	r2, sp, #60	; 0x3c
  40474c:	9904      	ldr	r1, [sp, #16]
  40474e:	9806      	ldr	r0, [sp, #24]
  404750:	f7ff fa54 	bl	403bfc <__sprint_r.part.0>
  404754:	2800      	cmp	r0, #0
  404756:	f47f af43 	bne.w	4045e0 <_vfiprintf_r+0x964>
  40475a:	9810      	ldr	r0, [sp, #64]	; 0x40
  40475c:	9a11      	ldr	r2, [sp, #68]	; 0x44
  40475e:	3001      	adds	r0, #1
  404760:	46ca      	mov	sl, r9
  404762:	e667      	b.n	404434 <_vfiprintf_r+0x7b8>
  404764:	46d3      	mov	fp, sl
  404766:	e6d6      	b.n	404516 <_vfiprintf_r+0x89a>
  404768:	9e07      	ldr	r6, [sp, #28]
  40476a:	3607      	adds	r6, #7
  40476c:	f026 0207 	bic.w	r2, r6, #7
  404770:	f102 0108 	add.w	r1, r2, #8
  404774:	e9d2 6700 	ldrd	r6, r7, [r2]
  404778:	9107      	str	r1, [sp, #28]
  40477a:	2201      	movs	r2, #1
  40477c:	f7ff bbb1 	b.w	403ee2 <_vfiprintf_r+0x266>
  404780:	9e07      	ldr	r6, [sp, #28]
  404782:	3607      	adds	r6, #7
  404784:	f026 0607 	bic.w	r6, r6, #7
  404788:	e9d6 0100 	ldrd	r0, r1, [r6]
  40478c:	f106 0208 	add.w	r2, r6, #8
  404790:	9207      	str	r2, [sp, #28]
  404792:	4606      	mov	r6, r0
  404794:	460f      	mov	r7, r1
  404796:	e4b6      	b.n	404106 <_vfiprintf_r+0x48a>
  404798:	9e07      	ldr	r6, [sp, #28]
  40479a:	3607      	adds	r6, #7
  40479c:	f026 0207 	bic.w	r2, r6, #7
  4047a0:	f102 0108 	add.w	r1, r2, #8
  4047a4:	e9d2 6700 	ldrd	r6, r7, [r2]
  4047a8:	9107      	str	r1, [sp, #28]
  4047aa:	2200      	movs	r2, #0
  4047ac:	f7ff bb99 	b.w	403ee2 <_vfiprintf_r+0x266>
  4047b0:	9e07      	ldr	r6, [sp, #28]
  4047b2:	3607      	adds	r6, #7
  4047b4:	f026 0107 	bic.w	r1, r6, #7
  4047b8:	f101 0008 	add.w	r0, r1, #8
  4047bc:	9007      	str	r0, [sp, #28]
  4047be:	e9d1 6700 	ldrd	r6, r7, [r1]
  4047c2:	e519      	b.n	4041f8 <_vfiprintf_r+0x57c>
  4047c4:	46cb      	mov	fp, r9
  4047c6:	f7ff bbab 	b.w	403f20 <_vfiprintf_r+0x2a4>
  4047ca:	252d      	movs	r5, #45	; 0x2d
  4047cc:	4276      	negs	r6, r6
  4047ce:	eb67 0747 	sbc.w	r7, r7, r7, lsl #1
  4047d2:	f88d 5037 	strb.w	r5, [sp, #55]	; 0x37
  4047d6:	2201      	movs	r2, #1
  4047d8:	f7ff bb88 	b.w	403eec <_vfiprintf_r+0x270>
  4047dc:	9b09      	ldr	r3, [sp, #36]	; 0x24
  4047de:	b9b3      	cbnz	r3, 40480e <_vfiprintf_r+0xb92>
  4047e0:	4611      	mov	r1, r2
  4047e2:	2001      	movs	r0, #1
  4047e4:	46ca      	mov	sl, r9
  4047e6:	e5f2      	b.n	4043ce <_vfiprintf_r+0x752>
  4047e8:	f8db 0058 	ldr.w	r0, [fp, #88]	; 0x58
  4047ec:	f000 fdfe 	bl	4053ec <__retarget_lock_release_recursive>
  4047f0:	f04f 33ff 	mov.w	r3, #4294967295
  4047f4:	9303      	str	r3, [sp, #12]
  4047f6:	f7ff bb50 	b.w	403e9a <_vfiprintf_r+0x21e>
  4047fa:	aa0f      	add	r2, sp, #60	; 0x3c
  4047fc:	9904      	ldr	r1, [sp, #16]
  4047fe:	9806      	ldr	r0, [sp, #24]
  404800:	f7ff f9fc 	bl	403bfc <__sprint_r.part.0>
  404804:	2800      	cmp	r0, #0
  404806:	f47f aeeb 	bne.w	4045e0 <_vfiprintf_r+0x964>
  40480a:	9a11      	ldr	r2, [sp, #68]	; 0x44
  40480c:	e6a9      	b.n	404562 <_vfiprintf_r+0x8e6>
  40480e:	ab0e      	add	r3, sp, #56	; 0x38
  404810:	2202      	movs	r2, #2
  404812:	931c      	str	r3, [sp, #112]	; 0x70
  404814:	921d      	str	r2, [sp, #116]	; 0x74
  404816:	2001      	movs	r0, #1
  404818:	46ca      	mov	sl, r9
  40481a:	e5d0      	b.n	4043be <_vfiprintf_r+0x742>
  40481c:	aa0f      	add	r2, sp, #60	; 0x3c
  40481e:	9904      	ldr	r1, [sp, #16]
  404820:	9806      	ldr	r0, [sp, #24]
  404822:	f7ff f9eb 	bl	403bfc <__sprint_r.part.0>
  404826:	2800      	cmp	r0, #0
  404828:	f47f aeda 	bne.w	4045e0 <_vfiprintf_r+0x964>
  40482c:	9910      	ldr	r1, [sp, #64]	; 0x40
  40482e:	9a11      	ldr	r2, [sp, #68]	; 0x44
  404830:	1c48      	adds	r0, r1, #1
  404832:	46ca      	mov	sl, r9
  404834:	e5a4      	b.n	404380 <_vfiprintf_r+0x704>
  404836:	9a07      	ldr	r2, [sp, #28]
  404838:	9903      	ldr	r1, [sp, #12]
  40483a:	6813      	ldr	r3, [r2, #0]
  40483c:	17cd      	asrs	r5, r1, #31
  40483e:	4608      	mov	r0, r1
  404840:	3204      	adds	r2, #4
  404842:	4629      	mov	r1, r5
  404844:	9207      	str	r2, [sp, #28]
  404846:	e9c3 0100 	strd	r0, r1, [r3]
  40484a:	f7ff ba54 	b.w	403cf6 <_vfiprintf_r+0x7a>
  40484e:	4658      	mov	r0, fp
  404850:	9607      	str	r6, [sp, #28]
  404852:	9302      	str	r3, [sp, #8]
  404854:	f001 fc74 	bl	406140 <strlen>
  404858:	2400      	movs	r4, #0
  40485a:	9005      	str	r0, [sp, #20]
  40485c:	f89d 5037 	ldrb.w	r5, [sp, #55]	; 0x37
  404860:	f7ff bb5e 	b.w	403f20 <_vfiprintf_r+0x2a4>
  404864:	aa0f      	add	r2, sp, #60	; 0x3c
  404866:	9904      	ldr	r1, [sp, #16]
  404868:	9806      	ldr	r0, [sp, #24]
  40486a:	f7ff f9c7 	bl	403bfc <__sprint_r.part.0>
  40486e:	2800      	cmp	r0, #0
  404870:	f47f aeb6 	bne.w	4045e0 <_vfiprintf_r+0x964>
  404874:	9910      	ldr	r1, [sp, #64]	; 0x40
  404876:	9a11      	ldr	r2, [sp, #68]	; 0x44
  404878:	1c48      	adds	r0, r1, #1
  40487a:	46ca      	mov	sl, r9
  40487c:	e5a7      	b.n	4043ce <_vfiprintf_r+0x752>
  40487e:	9910      	ldr	r1, [sp, #64]	; 0x40
  404880:	9a11      	ldr	r2, [sp, #68]	; 0x44
  404882:	4e20      	ldr	r6, [pc, #128]	; (404904 <_vfiprintf_r+0xc88>)
  404884:	3101      	adds	r1, #1
  404886:	f7ff bb90 	b.w	403faa <_vfiprintf_r+0x32e>
  40488a:	2c06      	cmp	r4, #6
  40488c:	bf28      	it	cs
  40488e:	2406      	movcs	r4, #6
  404890:	9405      	str	r4, [sp, #20]
  404892:	9607      	str	r6, [sp, #28]
  404894:	9401      	str	r4, [sp, #4]
  404896:	f8df b070 	ldr.w	fp, [pc, #112]	; 404908 <_vfiprintf_r+0xc8c>
  40489a:	e4d5      	b.n	404248 <_vfiprintf_r+0x5cc>
  40489c:	9810      	ldr	r0, [sp, #64]	; 0x40
  40489e:	4e19      	ldr	r6, [pc, #100]	; (404904 <_vfiprintf_r+0xc88>)
  4048a0:	3001      	adds	r0, #1
  4048a2:	e603      	b.n	4044ac <_vfiprintf_r+0x830>
  4048a4:	9405      	str	r4, [sp, #20]
  4048a6:	f89d 5037 	ldrb.w	r5, [sp, #55]	; 0x37
  4048aa:	9607      	str	r6, [sp, #28]
  4048ac:	9302      	str	r3, [sp, #8]
  4048ae:	4604      	mov	r4, r0
  4048b0:	f7ff bb36 	b.w	403f20 <_vfiprintf_r+0x2a4>
  4048b4:	4686      	mov	lr, r0
  4048b6:	f7ff bbce 	b.w	404056 <_vfiprintf_r+0x3da>
  4048ba:	9806      	ldr	r0, [sp, #24]
  4048bc:	aa0f      	add	r2, sp, #60	; 0x3c
  4048be:	4659      	mov	r1, fp
  4048c0:	f7ff f99c 	bl	403bfc <__sprint_r.part.0>
  4048c4:	2800      	cmp	r0, #0
  4048c6:	f43f ae24 	beq.w	404512 <_vfiprintf_r+0x896>
  4048ca:	e624      	b.n	404516 <_vfiprintf_r+0x89a>
  4048cc:	9907      	ldr	r1, [sp, #28]
  4048ce:	f898 2001 	ldrb.w	r2, [r8, #1]
  4048d2:	680c      	ldr	r4, [r1, #0]
  4048d4:	3104      	adds	r1, #4
  4048d6:	ea44 74e4 	orr.w	r4, r4, r4, asr #31
  4048da:	46b8      	mov	r8, r7
  4048dc:	9107      	str	r1, [sp, #28]
  4048de:	f7ff ba3f 	b.w	403d60 <_vfiprintf_r+0xe4>
  4048e2:	f88d 5037 	strb.w	r5, [sp, #55]	; 0x37
  4048e6:	e43c      	b.n	404162 <_vfiprintf_r+0x4e6>
  4048e8:	f88d 5037 	strb.w	r5, [sp, #55]	; 0x37
  4048ec:	e521      	b.n	404332 <_vfiprintf_r+0x6b6>
  4048ee:	f88d 5037 	strb.w	r5, [sp, #55]	; 0x37
  4048f2:	f7ff bbf4 	b.w	4040de <_vfiprintf_r+0x462>
  4048f6:	f88d 5037 	strb.w	r5, [sp, #55]	; 0x37
  4048fa:	e491      	b.n	404220 <_vfiprintf_r+0x5a4>
  4048fc:	f88d 5037 	strb.w	r5, [sp, #55]	; 0x37
  404900:	e469      	b.n	4041d6 <_vfiprintf_r+0x55a>
  404902:	bf00      	nop
  404904:	0041149c 	.word	0x0041149c
  404908:	00411494 	.word	0x00411494

0040490c <__sbprintf>:
  40490c:	e92d 41f0 	stmdb	sp!, {r4, r5, r6, r7, r8, lr}
  404910:	460c      	mov	r4, r1
  404912:	f5ad 6d8d 	sub.w	sp, sp, #1128	; 0x468
  404916:	8989      	ldrh	r1, [r1, #12]
  404918:	6e66      	ldr	r6, [r4, #100]	; 0x64
  40491a:	89e5      	ldrh	r5, [r4, #14]
  40491c:	9619      	str	r6, [sp, #100]	; 0x64
  40491e:	f021 0102 	bic.w	r1, r1, #2
  404922:	4606      	mov	r6, r0
  404924:	69e0      	ldr	r0, [r4, #28]
  404926:	f8ad 100c 	strh.w	r1, [sp, #12]
  40492a:	4617      	mov	r7, r2
  40492c:	f44f 6180 	mov.w	r1, #1024	; 0x400
  404930:	6a62      	ldr	r2, [r4, #36]	; 0x24
  404932:	f8ad 500e 	strh.w	r5, [sp, #14]
  404936:	4698      	mov	r8, r3
  404938:	ad1a      	add	r5, sp, #104	; 0x68
  40493a:	2300      	movs	r3, #0
  40493c:	9007      	str	r0, [sp, #28]
  40493e:	a816      	add	r0, sp, #88	; 0x58
  404940:	9209      	str	r2, [sp, #36]	; 0x24
  404942:	9306      	str	r3, [sp, #24]
  404944:	9500      	str	r5, [sp, #0]
  404946:	9504      	str	r5, [sp, #16]
  404948:	9102      	str	r1, [sp, #8]
  40494a:	9105      	str	r1, [sp, #20]
  40494c:	f000 fd48 	bl	4053e0 <__retarget_lock_init_recursive>
  404950:	4643      	mov	r3, r8
  404952:	463a      	mov	r2, r7
  404954:	4669      	mov	r1, sp
  404956:	4630      	mov	r0, r6
  404958:	f7ff f990 	bl	403c7c <_vfiprintf_r>
  40495c:	1e05      	subs	r5, r0, #0
  40495e:	db07      	blt.n	404970 <__sbprintf+0x64>
  404960:	4630      	mov	r0, r6
  404962:	4669      	mov	r1, sp
  404964:	f000 f928 	bl	404bb8 <_fflush_r>
  404968:	2800      	cmp	r0, #0
  40496a:	bf18      	it	ne
  40496c:	f04f 35ff 	movne.w	r5, #4294967295
  404970:	f8bd 300c 	ldrh.w	r3, [sp, #12]
  404974:	065b      	lsls	r3, r3, #25
  404976:	d503      	bpl.n	404980 <__sbprintf+0x74>
  404978:	89a3      	ldrh	r3, [r4, #12]
  40497a:	f043 0340 	orr.w	r3, r3, #64	; 0x40
  40497e:	81a3      	strh	r3, [r4, #12]
  404980:	9816      	ldr	r0, [sp, #88]	; 0x58
  404982:	f000 fd2f 	bl	4053e4 <__retarget_lock_close_recursive>
  404986:	4628      	mov	r0, r5
  404988:	f50d 6d8d 	add.w	sp, sp, #1128	; 0x468
  40498c:	e8bd 81f0 	ldmia.w	sp!, {r4, r5, r6, r7, r8, pc}

00404990 <__swsetup_r>:
  404990:	b538      	push	{r3, r4, r5, lr}
  404992:	4b30      	ldr	r3, [pc, #192]	; (404a54 <__swsetup_r+0xc4>)
  404994:	681b      	ldr	r3, [r3, #0]
  404996:	4605      	mov	r5, r0
  404998:	460c      	mov	r4, r1
  40499a:	b113      	cbz	r3, 4049a2 <__swsetup_r+0x12>
  40499c:	6b9a      	ldr	r2, [r3, #56]	; 0x38
  40499e:	2a00      	cmp	r2, #0
  4049a0:	d038      	beq.n	404a14 <__swsetup_r+0x84>
  4049a2:	f9b4 200c 	ldrsh.w	r2, [r4, #12]
  4049a6:	b293      	uxth	r3, r2
  4049a8:	0718      	lsls	r0, r3, #28
  4049aa:	d50c      	bpl.n	4049c6 <__swsetup_r+0x36>
  4049ac:	6920      	ldr	r0, [r4, #16]
  4049ae:	b1a8      	cbz	r0, 4049dc <__swsetup_r+0x4c>
  4049b0:	f013 0201 	ands.w	r2, r3, #1
  4049b4:	d01e      	beq.n	4049f4 <__swsetup_r+0x64>
  4049b6:	6963      	ldr	r3, [r4, #20]
  4049b8:	2200      	movs	r2, #0
  4049ba:	425b      	negs	r3, r3
  4049bc:	61a3      	str	r3, [r4, #24]
  4049be:	60a2      	str	r2, [r4, #8]
  4049c0:	b1f0      	cbz	r0, 404a00 <__swsetup_r+0x70>
  4049c2:	2000      	movs	r0, #0
  4049c4:	bd38      	pop	{r3, r4, r5, pc}
  4049c6:	06d9      	lsls	r1, r3, #27
  4049c8:	d53c      	bpl.n	404a44 <__swsetup_r+0xb4>
  4049ca:	0758      	lsls	r0, r3, #29
  4049cc:	d426      	bmi.n	404a1c <__swsetup_r+0x8c>
  4049ce:	6920      	ldr	r0, [r4, #16]
  4049d0:	f042 0308 	orr.w	r3, r2, #8
  4049d4:	81a3      	strh	r3, [r4, #12]
  4049d6:	b29b      	uxth	r3, r3
  4049d8:	2800      	cmp	r0, #0
  4049da:	d1e9      	bne.n	4049b0 <__swsetup_r+0x20>
  4049dc:	f403 7220 	and.w	r2, r3, #640	; 0x280
  4049e0:	f5b2 7f00 	cmp.w	r2, #512	; 0x200
  4049e4:	d0e4      	beq.n	4049b0 <__swsetup_r+0x20>
  4049e6:	4628      	mov	r0, r5
  4049e8:	4621      	mov	r1, r4
  4049ea:	f000 fd2f 	bl	40544c <__smakebuf_r>
  4049ee:	89a3      	ldrh	r3, [r4, #12]
  4049f0:	6920      	ldr	r0, [r4, #16]
  4049f2:	e7dd      	b.n	4049b0 <__swsetup_r+0x20>
  4049f4:	0799      	lsls	r1, r3, #30
  4049f6:	bf58      	it	pl
  4049f8:	6962      	ldrpl	r2, [r4, #20]
  4049fa:	60a2      	str	r2, [r4, #8]
  4049fc:	2800      	cmp	r0, #0
  4049fe:	d1e0      	bne.n	4049c2 <__swsetup_r+0x32>
  404a00:	f9b4 300c 	ldrsh.w	r3, [r4, #12]
  404a04:	061a      	lsls	r2, r3, #24
  404a06:	d5dd      	bpl.n	4049c4 <__swsetup_r+0x34>
  404a08:	f043 0340 	orr.w	r3, r3, #64	; 0x40
  404a0c:	81a3      	strh	r3, [r4, #12]
  404a0e:	f04f 30ff 	mov.w	r0, #4294967295
  404a12:	bd38      	pop	{r3, r4, r5, pc}
  404a14:	4618      	mov	r0, r3
  404a16:	f000 f927 	bl	404c68 <__sinit>
  404a1a:	e7c2      	b.n	4049a2 <__swsetup_r+0x12>
  404a1c:	6b21      	ldr	r1, [r4, #48]	; 0x30
  404a1e:	b151      	cbz	r1, 404a36 <__swsetup_r+0xa6>
  404a20:	f104 0340 	add.w	r3, r4, #64	; 0x40
  404a24:	4299      	cmp	r1, r3
  404a26:	d004      	beq.n	404a32 <__swsetup_r+0xa2>
  404a28:	4628      	mov	r0, r5
  404a2a:	f000 fa43 	bl	404eb4 <_free_r>
  404a2e:	f9b4 200c 	ldrsh.w	r2, [r4, #12]
  404a32:	2300      	movs	r3, #0
  404a34:	6323      	str	r3, [r4, #48]	; 0x30
  404a36:	2300      	movs	r3, #0
  404a38:	6920      	ldr	r0, [r4, #16]
  404a3a:	6063      	str	r3, [r4, #4]
  404a3c:	f022 0224 	bic.w	r2, r2, #36	; 0x24
  404a40:	6020      	str	r0, [r4, #0]
  404a42:	e7c5      	b.n	4049d0 <__swsetup_r+0x40>
  404a44:	f042 0240 	orr.w	r2, r2, #64	; 0x40
  404a48:	2309      	movs	r3, #9
  404a4a:	602b      	str	r3, [r5, #0]
  404a4c:	f04f 30ff 	mov.w	r0, #4294967295
  404a50:	81a2      	strh	r2, [r4, #12]
  404a52:	bd38      	pop	{r3, r4, r5, pc}
  404a54:	2040001c 	.word	0x2040001c

00404a58 <register_fini>:
  404a58:	4b02      	ldr	r3, [pc, #8]	; (404a64 <register_fini+0xc>)
  404a5a:	b113      	cbz	r3, 404a62 <register_fini+0xa>
  404a5c:	4802      	ldr	r0, [pc, #8]	; (404a68 <register_fini+0x10>)
  404a5e:	f000 b805 	b.w	404a6c <atexit>
  404a62:	4770      	bx	lr
  404a64:	00000000 	.word	0x00000000
  404a68:	00404cd9 	.word	0x00404cd9

00404a6c <atexit>:
  404a6c:	2300      	movs	r3, #0
  404a6e:	4601      	mov	r1, r0
  404a70:	461a      	mov	r2, r3
  404a72:	4618      	mov	r0, r3
  404a74:	f001 bc78 	b.w	406368 <__register_exitproc>

00404a78 <__sflush_r>:
  404a78:	f9b1 300c 	ldrsh.w	r3, [r1, #12]
  404a7c:	b29a      	uxth	r2, r3
  404a7e:	e92d 41f0 	stmdb	sp!, {r4, r5, r6, r7, r8, lr}
  404a82:	460d      	mov	r5, r1
  404a84:	0711      	lsls	r1, r2, #28
  404a86:	4680      	mov	r8, r0
  404a88:	d43a      	bmi.n	404b00 <__sflush_r+0x88>
  404a8a:	686a      	ldr	r2, [r5, #4]
  404a8c:	f443 6300 	orr.w	r3, r3, #2048	; 0x800
  404a90:	2a00      	cmp	r2, #0
  404a92:	81ab      	strh	r3, [r5, #12]
  404a94:	dd6f      	ble.n	404b76 <__sflush_r+0xfe>
  404a96:	6aac      	ldr	r4, [r5, #40]	; 0x28
  404a98:	2c00      	cmp	r4, #0
  404a9a:	d049      	beq.n	404b30 <__sflush_r+0xb8>
  404a9c:	2200      	movs	r2, #0
  404a9e:	b29b      	uxth	r3, r3
  404aa0:	f8d8 6000 	ldr.w	r6, [r8]
  404aa4:	f8c8 2000 	str.w	r2, [r8]
  404aa8:	f413 5280 	ands.w	r2, r3, #4096	; 0x1000
  404aac:	d067      	beq.n	404b7e <__sflush_r+0x106>
  404aae:	6d2a      	ldr	r2, [r5, #80]	; 0x50
  404ab0:	075f      	lsls	r7, r3, #29
  404ab2:	d505      	bpl.n	404ac0 <__sflush_r+0x48>
  404ab4:	6869      	ldr	r1, [r5, #4]
  404ab6:	6b2b      	ldr	r3, [r5, #48]	; 0x30
  404ab8:	1a52      	subs	r2, r2, r1
  404aba:	b10b      	cbz	r3, 404ac0 <__sflush_r+0x48>
  404abc:	6beb      	ldr	r3, [r5, #60]	; 0x3c
  404abe:	1ad2      	subs	r2, r2, r3
  404ac0:	2300      	movs	r3, #0
  404ac2:	69e9      	ldr	r1, [r5, #28]
  404ac4:	4640      	mov	r0, r8
  404ac6:	47a0      	blx	r4
  404ac8:	1c44      	adds	r4, r0, #1
  404aca:	d03c      	beq.n	404b46 <__sflush_r+0xce>
  404acc:	f9b5 300c 	ldrsh.w	r3, [r5, #12]
  404ad0:	692a      	ldr	r2, [r5, #16]
  404ad2:	602a      	str	r2, [r5, #0]
  404ad4:	f423 6300 	bic.w	r3, r3, #2048	; 0x800
  404ad8:	2200      	movs	r2, #0
  404ada:	81ab      	strh	r3, [r5, #12]
  404adc:	04db      	lsls	r3, r3, #19
  404ade:	606a      	str	r2, [r5, #4]
  404ae0:	d447      	bmi.n	404b72 <__sflush_r+0xfa>
  404ae2:	6b29      	ldr	r1, [r5, #48]	; 0x30
  404ae4:	f8c8 6000 	str.w	r6, [r8]
  404ae8:	b311      	cbz	r1, 404b30 <__sflush_r+0xb8>
  404aea:	f105 0340 	add.w	r3, r5, #64	; 0x40
  404aee:	4299      	cmp	r1, r3
  404af0:	d002      	beq.n	404af8 <__sflush_r+0x80>
  404af2:	4640      	mov	r0, r8
  404af4:	f000 f9de 	bl	404eb4 <_free_r>
  404af8:	2000      	movs	r0, #0
  404afa:	6328      	str	r0, [r5, #48]	; 0x30
  404afc:	e8bd 81f0 	ldmia.w	sp!, {r4, r5, r6, r7, r8, pc}
  404b00:	692e      	ldr	r6, [r5, #16]
  404b02:	b1ae      	cbz	r6, 404b30 <__sflush_r+0xb8>
  404b04:	682c      	ldr	r4, [r5, #0]
  404b06:	602e      	str	r6, [r5, #0]
  404b08:	0791      	lsls	r1, r2, #30
  404b0a:	bf0c      	ite	eq
  404b0c:	696b      	ldreq	r3, [r5, #20]
  404b0e:	2300      	movne	r3, #0
  404b10:	1ba4      	subs	r4, r4, r6
  404b12:	60ab      	str	r3, [r5, #8]
  404b14:	e00a      	b.n	404b2c <__sflush_r+0xb4>
  404b16:	4623      	mov	r3, r4
  404b18:	4632      	mov	r2, r6
  404b1a:	6a6f      	ldr	r7, [r5, #36]	; 0x24
  404b1c:	69e9      	ldr	r1, [r5, #28]
  404b1e:	4640      	mov	r0, r8
  404b20:	47b8      	blx	r7
  404b22:	2800      	cmp	r0, #0
  404b24:	eba4 0400 	sub.w	r4, r4, r0
  404b28:	4406      	add	r6, r0
  404b2a:	dd04      	ble.n	404b36 <__sflush_r+0xbe>
  404b2c:	2c00      	cmp	r4, #0
  404b2e:	dcf2      	bgt.n	404b16 <__sflush_r+0x9e>
  404b30:	2000      	movs	r0, #0
  404b32:	e8bd 81f0 	ldmia.w	sp!, {r4, r5, r6, r7, r8, pc}
  404b36:	89ab      	ldrh	r3, [r5, #12]
  404b38:	f043 0340 	orr.w	r3, r3, #64	; 0x40
  404b3c:	81ab      	strh	r3, [r5, #12]
  404b3e:	f04f 30ff 	mov.w	r0, #4294967295
  404b42:	e8bd 81f0 	ldmia.w	sp!, {r4, r5, r6, r7, r8, pc}
  404b46:	f8d8 4000 	ldr.w	r4, [r8]
  404b4a:	2c1d      	cmp	r4, #29
  404b4c:	d8f3      	bhi.n	404b36 <__sflush_r+0xbe>
  404b4e:	4b19      	ldr	r3, [pc, #100]	; (404bb4 <__sflush_r+0x13c>)
  404b50:	40e3      	lsrs	r3, r4
  404b52:	43db      	mvns	r3, r3
  404b54:	f013 0301 	ands.w	r3, r3, #1
  404b58:	d1ed      	bne.n	404b36 <__sflush_r+0xbe>
  404b5a:	f9b5 200c 	ldrsh.w	r2, [r5, #12]
  404b5e:	606b      	str	r3, [r5, #4]
  404b60:	f422 6300 	bic.w	r3, r2, #2048	; 0x800
  404b64:	6929      	ldr	r1, [r5, #16]
  404b66:	81ab      	strh	r3, [r5, #12]
  404b68:	04da      	lsls	r2, r3, #19
  404b6a:	6029      	str	r1, [r5, #0]
  404b6c:	d5b9      	bpl.n	404ae2 <__sflush_r+0x6a>
  404b6e:	2c00      	cmp	r4, #0
  404b70:	d1b7      	bne.n	404ae2 <__sflush_r+0x6a>
  404b72:	6528      	str	r0, [r5, #80]	; 0x50
  404b74:	e7b5      	b.n	404ae2 <__sflush_r+0x6a>
  404b76:	6bea      	ldr	r2, [r5, #60]	; 0x3c
  404b78:	2a00      	cmp	r2, #0
  404b7a:	dc8c      	bgt.n	404a96 <__sflush_r+0x1e>
  404b7c:	e7d8      	b.n	404b30 <__sflush_r+0xb8>
  404b7e:	2301      	movs	r3, #1
  404b80:	69e9      	ldr	r1, [r5, #28]
  404b82:	4640      	mov	r0, r8
  404b84:	47a0      	blx	r4
  404b86:	1c43      	adds	r3, r0, #1
  404b88:	4602      	mov	r2, r0
  404b8a:	d002      	beq.n	404b92 <__sflush_r+0x11a>
  404b8c:	89ab      	ldrh	r3, [r5, #12]
  404b8e:	6aac      	ldr	r4, [r5, #40]	; 0x28
  404b90:	e78e      	b.n	404ab0 <__sflush_r+0x38>
  404b92:	f8d8 3000 	ldr.w	r3, [r8]
  404b96:	2b00      	cmp	r3, #0
  404b98:	d0f8      	beq.n	404b8c <__sflush_r+0x114>
  404b9a:	2b1d      	cmp	r3, #29
  404b9c:	d001      	beq.n	404ba2 <__sflush_r+0x12a>
  404b9e:	2b16      	cmp	r3, #22
  404ba0:	d102      	bne.n	404ba8 <__sflush_r+0x130>
  404ba2:	f8c8 6000 	str.w	r6, [r8]
  404ba6:	e7c3      	b.n	404b30 <__sflush_r+0xb8>
  404ba8:	89ab      	ldrh	r3, [r5, #12]
  404baa:	f043 0340 	orr.w	r3, r3, #64	; 0x40
  404bae:	81ab      	strh	r3, [r5, #12]
  404bb0:	e8bd 81f0 	ldmia.w	sp!, {r4, r5, r6, r7, r8, pc}
  404bb4:	20400001 	.word	0x20400001

00404bb8 <_fflush_r>:
  404bb8:	b538      	push	{r3, r4, r5, lr}
  404bba:	460d      	mov	r5, r1
  404bbc:	4604      	mov	r4, r0
  404bbe:	b108      	cbz	r0, 404bc4 <_fflush_r+0xc>
  404bc0:	6b83      	ldr	r3, [r0, #56]	; 0x38
  404bc2:	b1bb      	cbz	r3, 404bf4 <_fflush_r+0x3c>
  404bc4:	f9b5 000c 	ldrsh.w	r0, [r5, #12]
  404bc8:	b188      	cbz	r0, 404bee <_fflush_r+0x36>
  404bca:	6e6b      	ldr	r3, [r5, #100]	; 0x64
  404bcc:	07db      	lsls	r3, r3, #31
  404bce:	d401      	bmi.n	404bd4 <_fflush_r+0x1c>
  404bd0:	0581      	lsls	r1, r0, #22
  404bd2:	d517      	bpl.n	404c04 <_fflush_r+0x4c>
  404bd4:	4620      	mov	r0, r4
  404bd6:	4629      	mov	r1, r5
  404bd8:	f7ff ff4e 	bl	404a78 <__sflush_r>
  404bdc:	6e6b      	ldr	r3, [r5, #100]	; 0x64
  404bde:	07da      	lsls	r2, r3, #31
  404be0:	4604      	mov	r4, r0
  404be2:	d402      	bmi.n	404bea <_fflush_r+0x32>
  404be4:	89ab      	ldrh	r3, [r5, #12]
  404be6:	059b      	lsls	r3, r3, #22
  404be8:	d507      	bpl.n	404bfa <_fflush_r+0x42>
  404bea:	4620      	mov	r0, r4
  404bec:	bd38      	pop	{r3, r4, r5, pc}
  404bee:	4604      	mov	r4, r0
  404bf0:	4620      	mov	r0, r4
  404bf2:	bd38      	pop	{r3, r4, r5, pc}
  404bf4:	f000 f838 	bl	404c68 <__sinit>
  404bf8:	e7e4      	b.n	404bc4 <_fflush_r+0xc>
  404bfa:	6da8      	ldr	r0, [r5, #88]	; 0x58
  404bfc:	f000 fbf6 	bl	4053ec <__retarget_lock_release_recursive>
  404c00:	4620      	mov	r0, r4
  404c02:	bd38      	pop	{r3, r4, r5, pc}
  404c04:	6da8      	ldr	r0, [r5, #88]	; 0x58
  404c06:	f000 fbef 	bl	4053e8 <__retarget_lock_acquire_recursive>
  404c0a:	e7e3      	b.n	404bd4 <_fflush_r+0x1c>

00404c0c <_cleanup_r>:
  404c0c:	4901      	ldr	r1, [pc, #4]	; (404c14 <_cleanup_r+0x8>)
  404c0e:	f000 bbaf 	b.w	405370 <_fwalk_reent>
  404c12:	bf00      	nop
  404c14:	00406451 	.word	0x00406451

00404c18 <std.isra.0>:
  404c18:	b510      	push	{r4, lr}
  404c1a:	2300      	movs	r3, #0
  404c1c:	4604      	mov	r4, r0
  404c1e:	8181      	strh	r1, [r0, #12]
  404c20:	81c2      	strh	r2, [r0, #14]
  404c22:	6003      	str	r3, [r0, #0]
  404c24:	6043      	str	r3, [r0, #4]
  404c26:	6083      	str	r3, [r0, #8]
  404c28:	6643      	str	r3, [r0, #100]	; 0x64
  404c2a:	6103      	str	r3, [r0, #16]
  404c2c:	6143      	str	r3, [r0, #20]
  404c2e:	6183      	str	r3, [r0, #24]
  404c30:	4619      	mov	r1, r3
  404c32:	2208      	movs	r2, #8
  404c34:	305c      	adds	r0, #92	; 0x5c
  404c36:	f7fe fec3 	bl	4039c0 <memset>
  404c3a:	4807      	ldr	r0, [pc, #28]	; (404c58 <std.isra.0+0x40>)
  404c3c:	4907      	ldr	r1, [pc, #28]	; (404c5c <std.isra.0+0x44>)
  404c3e:	4a08      	ldr	r2, [pc, #32]	; (404c60 <std.isra.0+0x48>)
  404c40:	4b08      	ldr	r3, [pc, #32]	; (404c64 <std.isra.0+0x4c>)
  404c42:	6220      	str	r0, [r4, #32]
  404c44:	61e4      	str	r4, [r4, #28]
  404c46:	6261      	str	r1, [r4, #36]	; 0x24
  404c48:	62a2      	str	r2, [r4, #40]	; 0x28
  404c4a:	62e3      	str	r3, [r4, #44]	; 0x2c
  404c4c:	f104 0058 	add.w	r0, r4, #88	; 0x58
  404c50:	e8bd 4010 	ldmia.w	sp!, {r4, lr}
  404c54:	f000 bbc4 	b.w	4053e0 <__retarget_lock_init_recursive>
  404c58:	004060a5 	.word	0x004060a5
  404c5c:	004060c9 	.word	0x004060c9
  404c60:	00406105 	.word	0x00406105
  404c64:	00406125 	.word	0x00406125

00404c68 <__sinit>:
  404c68:	b510      	push	{r4, lr}
  404c6a:	4604      	mov	r4, r0
  404c6c:	4812      	ldr	r0, [pc, #72]	; (404cb8 <__sinit+0x50>)
  404c6e:	f000 fbbb 	bl	4053e8 <__retarget_lock_acquire_recursive>
  404c72:	6ba2      	ldr	r2, [r4, #56]	; 0x38
  404c74:	b9d2      	cbnz	r2, 404cac <__sinit+0x44>
  404c76:	f504 733b 	add.w	r3, r4, #748	; 0x2ec
  404c7a:	4810      	ldr	r0, [pc, #64]	; (404cbc <__sinit+0x54>)
  404c7c:	f8c4 32e8 	str.w	r3, [r4, #744]	; 0x2e8
  404c80:	2103      	movs	r1, #3
  404c82:	f8c4 22e0 	str.w	r2, [r4, #736]	; 0x2e0
  404c86:	63e0      	str	r0, [r4, #60]	; 0x3c
  404c88:	f8c4 12e4 	str.w	r1, [r4, #740]	; 0x2e4
  404c8c:	6860      	ldr	r0, [r4, #4]
  404c8e:	2104      	movs	r1, #4
  404c90:	f7ff ffc2 	bl	404c18 <std.isra.0>
  404c94:	2201      	movs	r2, #1
  404c96:	2109      	movs	r1, #9
  404c98:	68a0      	ldr	r0, [r4, #8]
  404c9a:	f7ff ffbd 	bl	404c18 <std.isra.0>
  404c9e:	2202      	movs	r2, #2
  404ca0:	2112      	movs	r1, #18
  404ca2:	68e0      	ldr	r0, [r4, #12]
  404ca4:	f7ff ffb8 	bl	404c18 <std.isra.0>
  404ca8:	2301      	movs	r3, #1
  404caa:	63a3      	str	r3, [r4, #56]	; 0x38
  404cac:	4802      	ldr	r0, [pc, #8]	; (404cb8 <__sinit+0x50>)
  404cae:	e8bd 4010 	ldmia.w	sp!, {r4, lr}
  404cb2:	f000 bb9b 	b.w	4053ec <__retarget_lock_release_recursive>
  404cb6:	bf00      	nop
  404cb8:	20440b38 	.word	0x20440b38
  404cbc:	00404c0d 	.word	0x00404c0d

00404cc0 <__sfp_lock_acquire>:
  404cc0:	4801      	ldr	r0, [pc, #4]	; (404cc8 <__sfp_lock_acquire+0x8>)
  404cc2:	f000 bb91 	b.w	4053e8 <__retarget_lock_acquire_recursive>
  404cc6:	bf00      	nop
  404cc8:	20440b4c 	.word	0x20440b4c

00404ccc <__sfp_lock_release>:
  404ccc:	4801      	ldr	r0, [pc, #4]	; (404cd4 <__sfp_lock_release+0x8>)
  404cce:	f000 bb8d 	b.w	4053ec <__retarget_lock_release_recursive>
  404cd2:	bf00      	nop
  404cd4:	20440b4c 	.word	0x20440b4c

00404cd8 <__libc_fini_array>:
  404cd8:	b538      	push	{r3, r4, r5, lr}
  404cda:	4c0a      	ldr	r4, [pc, #40]	; (404d04 <__libc_fini_array+0x2c>)
  404cdc:	4d0a      	ldr	r5, [pc, #40]	; (404d08 <__libc_fini_array+0x30>)
  404cde:	1b64      	subs	r4, r4, r5
  404ce0:	10a4      	asrs	r4, r4, #2
  404ce2:	d00a      	beq.n	404cfa <__libc_fini_array+0x22>
  404ce4:	f104 4380 	add.w	r3, r4, #1073741824	; 0x40000000
  404ce8:	3b01      	subs	r3, #1
  404cea:	eb05 0583 	add.w	r5, r5, r3, lsl #2
  404cee:	3c01      	subs	r4, #1
  404cf0:	f855 3904 	ldr.w	r3, [r5], #-4
  404cf4:	4798      	blx	r3
  404cf6:	2c00      	cmp	r4, #0
  404cf8:	d1f9      	bne.n	404cee <__libc_fini_array+0x16>
  404cfa:	e8bd 4038 	ldmia.w	sp!, {r3, r4, r5, lr}
  404cfe:	f00c bc71 	b.w	4115e4 <_fini>
  404d02:	bf00      	nop
  404d04:	004115f4 	.word	0x004115f4
  404d08:	004115f0 	.word	0x004115f0

00404d0c <__fputwc>:
  404d0c:	e92d 47f0 	stmdb	sp!, {r4, r5, r6, r7, r8, r9, sl, lr}
  404d10:	b082      	sub	sp, #8
  404d12:	4680      	mov	r8, r0
  404d14:	4689      	mov	r9, r1
  404d16:	4614      	mov	r4, r2
  404d18:	f000 fb54 	bl	4053c4 <__locale_mb_cur_max>
  404d1c:	2801      	cmp	r0, #1
  404d1e:	d036      	beq.n	404d8e <__fputwc+0x82>
  404d20:	464a      	mov	r2, r9
  404d22:	f104 035c 	add.w	r3, r4, #92	; 0x5c
  404d26:	a901      	add	r1, sp, #4
  404d28:	4640      	mov	r0, r8
  404d2a:	f001 facf 	bl	4062cc <_wcrtomb_r>
  404d2e:	1c42      	adds	r2, r0, #1
  404d30:	4606      	mov	r6, r0
  404d32:	d025      	beq.n	404d80 <__fputwc+0x74>
  404d34:	b3a8      	cbz	r0, 404da2 <__fputwc+0x96>
  404d36:	f89d e004 	ldrb.w	lr, [sp, #4]
  404d3a:	2500      	movs	r5, #0
  404d3c:	f10d 0a04 	add.w	sl, sp, #4
  404d40:	e009      	b.n	404d56 <__fputwc+0x4a>
  404d42:	6823      	ldr	r3, [r4, #0]
  404d44:	1c5a      	adds	r2, r3, #1
  404d46:	6022      	str	r2, [r4, #0]
  404d48:	f883 e000 	strb.w	lr, [r3]
  404d4c:	3501      	adds	r5, #1
  404d4e:	42b5      	cmp	r5, r6
  404d50:	d227      	bcs.n	404da2 <__fputwc+0x96>
  404d52:	f815 e00a 	ldrb.w	lr, [r5, sl]
  404d56:	68a3      	ldr	r3, [r4, #8]
  404d58:	3b01      	subs	r3, #1
  404d5a:	2b00      	cmp	r3, #0
  404d5c:	60a3      	str	r3, [r4, #8]
  404d5e:	daf0      	bge.n	404d42 <__fputwc+0x36>
  404d60:	69a7      	ldr	r7, [r4, #24]
  404d62:	42bb      	cmp	r3, r7
  404d64:	4671      	mov	r1, lr
  404d66:	4622      	mov	r2, r4
  404d68:	4640      	mov	r0, r8
  404d6a:	db02      	blt.n	404d72 <__fputwc+0x66>
  404d6c:	f1be 0f0a 	cmp.w	lr, #10
  404d70:	d1e7      	bne.n	404d42 <__fputwc+0x36>
  404d72:	f001 fa53 	bl	40621c <__swbuf_r>
  404d76:	1c43      	adds	r3, r0, #1
  404d78:	d1e8      	bne.n	404d4c <__fputwc+0x40>
  404d7a:	b002      	add	sp, #8
  404d7c:	e8bd 87f0 	ldmia.w	sp!, {r4, r5, r6, r7, r8, r9, sl, pc}
  404d80:	89a3      	ldrh	r3, [r4, #12]
  404d82:	f043 0340 	orr.w	r3, r3, #64	; 0x40
  404d86:	81a3      	strh	r3, [r4, #12]
  404d88:	b002      	add	sp, #8
  404d8a:	e8bd 87f0 	ldmia.w	sp!, {r4, r5, r6, r7, r8, r9, sl, pc}
  404d8e:	f109 33ff 	add.w	r3, r9, #4294967295
  404d92:	2bfe      	cmp	r3, #254	; 0xfe
  404d94:	d8c4      	bhi.n	404d20 <__fputwc+0x14>
  404d96:	fa5f fe89 	uxtb.w	lr, r9
  404d9a:	4606      	mov	r6, r0
  404d9c:	f88d e004 	strb.w	lr, [sp, #4]
  404da0:	e7cb      	b.n	404d3a <__fputwc+0x2e>
  404da2:	4648      	mov	r0, r9
  404da4:	b002      	add	sp, #8
  404da6:	e8bd 87f0 	ldmia.w	sp!, {r4, r5, r6, r7, r8, r9, sl, pc}
  404daa:	bf00      	nop

00404dac <_fputwc_r>:
  404dac:	b530      	push	{r4, r5, lr}
  404dae:	6e53      	ldr	r3, [r2, #100]	; 0x64
  404db0:	f013 0f01 	tst.w	r3, #1
  404db4:	f9b2 300c 	ldrsh.w	r3, [r2, #12]
  404db8:	4614      	mov	r4, r2
  404dba:	b083      	sub	sp, #12
  404dbc:	4605      	mov	r5, r0
  404dbe:	b29a      	uxth	r2, r3
  404dc0:	d101      	bne.n	404dc6 <_fputwc_r+0x1a>
  404dc2:	0590      	lsls	r0, r2, #22
  404dc4:	d51c      	bpl.n	404e00 <_fputwc_r+0x54>
  404dc6:	0490      	lsls	r0, r2, #18
  404dc8:	d406      	bmi.n	404dd8 <_fputwc_r+0x2c>
  404dca:	6e62      	ldr	r2, [r4, #100]	; 0x64
  404dcc:	f443 5300 	orr.w	r3, r3, #8192	; 0x2000
  404dd0:	f442 5200 	orr.w	r2, r2, #8192	; 0x2000
  404dd4:	81a3      	strh	r3, [r4, #12]
  404dd6:	6662      	str	r2, [r4, #100]	; 0x64
  404dd8:	4628      	mov	r0, r5
  404dda:	4622      	mov	r2, r4
  404ddc:	f7ff ff96 	bl	404d0c <__fputwc>
  404de0:	6e63      	ldr	r3, [r4, #100]	; 0x64
  404de2:	07da      	lsls	r2, r3, #31
  404de4:	4605      	mov	r5, r0
  404de6:	d402      	bmi.n	404dee <_fputwc_r+0x42>
  404de8:	89a3      	ldrh	r3, [r4, #12]
  404dea:	059b      	lsls	r3, r3, #22
  404dec:	d502      	bpl.n	404df4 <_fputwc_r+0x48>
  404dee:	4628      	mov	r0, r5
  404df0:	b003      	add	sp, #12
  404df2:	bd30      	pop	{r4, r5, pc}
  404df4:	6da0      	ldr	r0, [r4, #88]	; 0x58
  404df6:	f000 faf9 	bl	4053ec <__retarget_lock_release_recursive>
  404dfa:	4628      	mov	r0, r5
  404dfc:	b003      	add	sp, #12
  404dfe:	bd30      	pop	{r4, r5, pc}
  404e00:	6da0      	ldr	r0, [r4, #88]	; 0x58
  404e02:	9101      	str	r1, [sp, #4]
  404e04:	f000 faf0 	bl	4053e8 <__retarget_lock_acquire_recursive>
  404e08:	f9b4 300c 	ldrsh.w	r3, [r4, #12]
  404e0c:	9901      	ldr	r1, [sp, #4]
  404e0e:	b29a      	uxth	r2, r3
  404e10:	e7d9      	b.n	404dc6 <_fputwc_r+0x1a>
  404e12:	bf00      	nop

00404e14 <_malloc_trim_r>:
  404e14:	b5f8      	push	{r3, r4, r5, r6, r7, lr}
  404e16:	4f24      	ldr	r7, [pc, #144]	; (404ea8 <_malloc_trim_r+0x94>)
  404e18:	460c      	mov	r4, r1
  404e1a:	4606      	mov	r6, r0
  404e1c:	f000 ff7e 	bl	405d1c <__malloc_lock>
  404e20:	68bb      	ldr	r3, [r7, #8]
  404e22:	685d      	ldr	r5, [r3, #4]
  404e24:	f5c4 617e 	rsb	r1, r4, #4064	; 0xfe0
  404e28:	310f      	adds	r1, #15
  404e2a:	f025 0503 	bic.w	r5, r5, #3
  404e2e:	4429      	add	r1, r5
  404e30:	f421 617f 	bic.w	r1, r1, #4080	; 0xff0
  404e34:	f021 010f 	bic.w	r1, r1, #15
  404e38:	f5a1 5480 	sub.w	r4, r1, #4096	; 0x1000
  404e3c:	f5b4 5f80 	cmp.w	r4, #4096	; 0x1000
  404e40:	db07      	blt.n	404e52 <_malloc_trim_r+0x3e>
  404e42:	2100      	movs	r1, #0
  404e44:	4630      	mov	r0, r6
  404e46:	f001 f91b 	bl	406080 <_sbrk_r>
  404e4a:	68bb      	ldr	r3, [r7, #8]
  404e4c:	442b      	add	r3, r5
  404e4e:	4298      	cmp	r0, r3
  404e50:	d004      	beq.n	404e5c <_malloc_trim_r+0x48>
  404e52:	4630      	mov	r0, r6
  404e54:	f000 ff68 	bl	405d28 <__malloc_unlock>
  404e58:	2000      	movs	r0, #0
  404e5a:	bdf8      	pop	{r3, r4, r5, r6, r7, pc}
  404e5c:	4261      	negs	r1, r4
  404e5e:	4630      	mov	r0, r6
  404e60:	f001 f90e 	bl	406080 <_sbrk_r>
  404e64:	3001      	adds	r0, #1
  404e66:	d00d      	beq.n	404e84 <_malloc_trim_r+0x70>
  404e68:	4b10      	ldr	r3, [pc, #64]	; (404eac <_malloc_trim_r+0x98>)
  404e6a:	68ba      	ldr	r2, [r7, #8]
  404e6c:	6819      	ldr	r1, [r3, #0]
  404e6e:	1b2d      	subs	r5, r5, r4
  404e70:	f045 0501 	orr.w	r5, r5, #1
  404e74:	4630      	mov	r0, r6
  404e76:	1b09      	subs	r1, r1, r4
  404e78:	6055      	str	r5, [r2, #4]
  404e7a:	6019      	str	r1, [r3, #0]
  404e7c:	f000 ff54 	bl	405d28 <__malloc_unlock>
  404e80:	2001      	movs	r0, #1
  404e82:	bdf8      	pop	{r3, r4, r5, r6, r7, pc}
  404e84:	2100      	movs	r1, #0
  404e86:	4630      	mov	r0, r6
  404e88:	f001 f8fa 	bl	406080 <_sbrk_r>
  404e8c:	68ba      	ldr	r2, [r7, #8]
  404e8e:	1a83      	subs	r3, r0, r2
  404e90:	2b0f      	cmp	r3, #15
  404e92:	ddde      	ble.n	404e52 <_malloc_trim_r+0x3e>
  404e94:	4c06      	ldr	r4, [pc, #24]	; (404eb0 <_malloc_trim_r+0x9c>)
  404e96:	4905      	ldr	r1, [pc, #20]	; (404eac <_malloc_trim_r+0x98>)
  404e98:	6824      	ldr	r4, [r4, #0]
  404e9a:	f043 0301 	orr.w	r3, r3, #1
  404e9e:	1b00      	subs	r0, r0, r4
  404ea0:	6053      	str	r3, [r2, #4]
  404ea2:	6008      	str	r0, [r1, #0]
  404ea4:	e7d5      	b.n	404e52 <_malloc_trim_r+0x3e>
  404ea6:	bf00      	nop
  404ea8:	204005b8 	.word	0x204005b8
  404eac:	20410ae0 	.word	0x20410ae0
  404eb0:	204009c0 	.word	0x204009c0

00404eb4 <_free_r>:
  404eb4:	2900      	cmp	r1, #0
  404eb6:	d044      	beq.n	404f42 <_free_r+0x8e>
  404eb8:	e92d 41f0 	stmdb	sp!, {r4, r5, r6, r7, r8, lr}
  404ebc:	460d      	mov	r5, r1
  404ebe:	4680      	mov	r8, r0
  404ec0:	f000 ff2c 	bl	405d1c <__malloc_lock>
  404ec4:	f855 7c04 	ldr.w	r7, [r5, #-4]
  404ec8:	4969      	ldr	r1, [pc, #420]	; (405070 <_free_r+0x1bc>)
  404eca:	f027 0301 	bic.w	r3, r7, #1
  404ece:	f1a5 0408 	sub.w	r4, r5, #8
  404ed2:	18e2      	adds	r2, r4, r3
  404ed4:	688e      	ldr	r6, [r1, #8]
  404ed6:	6850      	ldr	r0, [r2, #4]
  404ed8:	42b2      	cmp	r2, r6
  404eda:	f020 0003 	bic.w	r0, r0, #3
  404ede:	d05e      	beq.n	404f9e <_free_r+0xea>
  404ee0:	07fe      	lsls	r6, r7, #31
  404ee2:	6050      	str	r0, [r2, #4]
  404ee4:	d40b      	bmi.n	404efe <_free_r+0x4a>
  404ee6:	f855 7c08 	ldr.w	r7, [r5, #-8]
  404eea:	1be4      	subs	r4, r4, r7
  404eec:	f101 0e08 	add.w	lr, r1, #8
  404ef0:	68a5      	ldr	r5, [r4, #8]
  404ef2:	4575      	cmp	r5, lr
  404ef4:	443b      	add	r3, r7
  404ef6:	d06d      	beq.n	404fd4 <_free_r+0x120>
  404ef8:	68e7      	ldr	r7, [r4, #12]
  404efa:	60ef      	str	r7, [r5, #12]
  404efc:	60bd      	str	r5, [r7, #8]
  404efe:	1815      	adds	r5, r2, r0
  404f00:	686d      	ldr	r5, [r5, #4]
  404f02:	07ed      	lsls	r5, r5, #31
  404f04:	d53e      	bpl.n	404f84 <_free_r+0xd0>
  404f06:	f043 0201 	orr.w	r2, r3, #1
  404f0a:	6062      	str	r2, [r4, #4]
  404f0c:	50e3      	str	r3, [r4, r3]
  404f0e:	f5b3 7f00 	cmp.w	r3, #512	; 0x200
  404f12:	d217      	bcs.n	404f44 <_free_r+0x90>
  404f14:	08db      	lsrs	r3, r3, #3
  404f16:	1c58      	adds	r0, r3, #1
  404f18:	109a      	asrs	r2, r3, #2
  404f1a:	684d      	ldr	r5, [r1, #4]
  404f1c:	f851 7030 	ldr.w	r7, [r1, r0, lsl #3]
  404f20:	60a7      	str	r7, [r4, #8]
  404f22:	2301      	movs	r3, #1
  404f24:	4093      	lsls	r3, r2
  404f26:	eb01 02c0 	add.w	r2, r1, r0, lsl #3
  404f2a:	432b      	orrs	r3, r5
  404f2c:	3a08      	subs	r2, #8
  404f2e:	60e2      	str	r2, [r4, #12]
  404f30:	604b      	str	r3, [r1, #4]
  404f32:	f841 4030 	str.w	r4, [r1, r0, lsl #3]
  404f36:	60fc      	str	r4, [r7, #12]
  404f38:	4640      	mov	r0, r8
  404f3a:	e8bd 41f0 	ldmia.w	sp!, {r4, r5, r6, r7, r8, lr}
  404f3e:	f000 bef3 	b.w	405d28 <__malloc_unlock>
  404f42:	4770      	bx	lr
  404f44:	0a5a      	lsrs	r2, r3, #9
  404f46:	2a04      	cmp	r2, #4
  404f48:	d852      	bhi.n	404ff0 <_free_r+0x13c>
  404f4a:	099a      	lsrs	r2, r3, #6
  404f4c:	f102 0739 	add.w	r7, r2, #57	; 0x39
  404f50:	00ff      	lsls	r7, r7, #3
  404f52:	f102 0538 	add.w	r5, r2, #56	; 0x38
  404f56:	19c8      	adds	r0, r1, r7
  404f58:	59ca      	ldr	r2, [r1, r7]
  404f5a:	3808      	subs	r0, #8
  404f5c:	4290      	cmp	r0, r2
  404f5e:	d04f      	beq.n	405000 <_free_r+0x14c>
  404f60:	6851      	ldr	r1, [r2, #4]
  404f62:	f021 0103 	bic.w	r1, r1, #3
  404f66:	428b      	cmp	r3, r1
  404f68:	d232      	bcs.n	404fd0 <_free_r+0x11c>
  404f6a:	6892      	ldr	r2, [r2, #8]
  404f6c:	4290      	cmp	r0, r2
  404f6e:	d1f7      	bne.n	404f60 <_free_r+0xac>
  404f70:	68c3      	ldr	r3, [r0, #12]
  404f72:	60a0      	str	r0, [r4, #8]
  404f74:	60e3      	str	r3, [r4, #12]
  404f76:	609c      	str	r4, [r3, #8]
  404f78:	60c4      	str	r4, [r0, #12]
  404f7a:	4640      	mov	r0, r8
  404f7c:	e8bd 41f0 	ldmia.w	sp!, {r4, r5, r6, r7, r8, lr}
  404f80:	f000 bed2 	b.w	405d28 <__malloc_unlock>
  404f84:	6895      	ldr	r5, [r2, #8]
  404f86:	4f3b      	ldr	r7, [pc, #236]	; (405074 <_free_r+0x1c0>)
  404f88:	42bd      	cmp	r5, r7
  404f8a:	4403      	add	r3, r0
  404f8c:	d040      	beq.n	405010 <_free_r+0x15c>
  404f8e:	68d0      	ldr	r0, [r2, #12]
  404f90:	60e8      	str	r0, [r5, #12]
  404f92:	f043 0201 	orr.w	r2, r3, #1
  404f96:	6085      	str	r5, [r0, #8]
  404f98:	6062      	str	r2, [r4, #4]
  404f9a:	50e3      	str	r3, [r4, r3]
  404f9c:	e7b7      	b.n	404f0e <_free_r+0x5a>
  404f9e:	07ff      	lsls	r7, r7, #31
  404fa0:	4403      	add	r3, r0
  404fa2:	d407      	bmi.n	404fb4 <_free_r+0x100>
  404fa4:	f855 2c08 	ldr.w	r2, [r5, #-8]
  404fa8:	1aa4      	subs	r4, r4, r2
  404faa:	4413      	add	r3, r2
  404fac:	68a0      	ldr	r0, [r4, #8]
  404fae:	68e2      	ldr	r2, [r4, #12]
  404fb0:	60c2      	str	r2, [r0, #12]
  404fb2:	6090      	str	r0, [r2, #8]
  404fb4:	4a30      	ldr	r2, [pc, #192]	; (405078 <_free_r+0x1c4>)
  404fb6:	6812      	ldr	r2, [r2, #0]
  404fb8:	f043 0001 	orr.w	r0, r3, #1
  404fbc:	4293      	cmp	r3, r2
  404fbe:	6060      	str	r0, [r4, #4]
  404fc0:	608c      	str	r4, [r1, #8]
  404fc2:	d3b9      	bcc.n	404f38 <_free_r+0x84>
  404fc4:	4b2d      	ldr	r3, [pc, #180]	; (40507c <_free_r+0x1c8>)
  404fc6:	4640      	mov	r0, r8
  404fc8:	6819      	ldr	r1, [r3, #0]
  404fca:	f7ff ff23 	bl	404e14 <_malloc_trim_r>
  404fce:	e7b3      	b.n	404f38 <_free_r+0x84>
  404fd0:	4610      	mov	r0, r2
  404fd2:	e7cd      	b.n	404f70 <_free_r+0xbc>
  404fd4:	1811      	adds	r1, r2, r0
  404fd6:	6849      	ldr	r1, [r1, #4]
  404fd8:	07c9      	lsls	r1, r1, #31
  404fda:	d444      	bmi.n	405066 <_free_r+0x1b2>
  404fdc:	6891      	ldr	r1, [r2, #8]
  404fde:	68d2      	ldr	r2, [r2, #12]
  404fe0:	60ca      	str	r2, [r1, #12]
  404fe2:	4403      	add	r3, r0
  404fe4:	f043 0001 	orr.w	r0, r3, #1
  404fe8:	6091      	str	r1, [r2, #8]
  404fea:	6060      	str	r0, [r4, #4]
  404fec:	50e3      	str	r3, [r4, r3]
  404fee:	e7a3      	b.n	404f38 <_free_r+0x84>
  404ff0:	2a14      	cmp	r2, #20
  404ff2:	d816      	bhi.n	405022 <_free_r+0x16e>
  404ff4:	f102 075c 	add.w	r7, r2, #92	; 0x5c
  404ff8:	00ff      	lsls	r7, r7, #3
  404ffa:	f102 055b 	add.w	r5, r2, #91	; 0x5b
  404ffe:	e7aa      	b.n	404f56 <_free_r+0xa2>
  405000:	10aa      	asrs	r2, r5, #2
  405002:	2301      	movs	r3, #1
  405004:	684d      	ldr	r5, [r1, #4]
  405006:	4093      	lsls	r3, r2
  405008:	432b      	orrs	r3, r5
  40500a:	604b      	str	r3, [r1, #4]
  40500c:	4603      	mov	r3, r0
  40500e:	e7b0      	b.n	404f72 <_free_r+0xbe>
  405010:	f043 0201 	orr.w	r2, r3, #1
  405014:	614c      	str	r4, [r1, #20]
  405016:	610c      	str	r4, [r1, #16]
  405018:	60e5      	str	r5, [r4, #12]
  40501a:	60a5      	str	r5, [r4, #8]
  40501c:	6062      	str	r2, [r4, #4]
  40501e:	50e3      	str	r3, [r4, r3]
  405020:	e78a      	b.n	404f38 <_free_r+0x84>
  405022:	2a54      	cmp	r2, #84	; 0x54
  405024:	d806      	bhi.n	405034 <_free_r+0x180>
  405026:	0b1a      	lsrs	r2, r3, #12
  405028:	f102 076f 	add.w	r7, r2, #111	; 0x6f
  40502c:	00ff      	lsls	r7, r7, #3
  40502e:	f102 056e 	add.w	r5, r2, #110	; 0x6e
  405032:	e790      	b.n	404f56 <_free_r+0xa2>
  405034:	f5b2 7faa 	cmp.w	r2, #340	; 0x154
  405038:	d806      	bhi.n	405048 <_free_r+0x194>
  40503a:	0bda      	lsrs	r2, r3, #15
  40503c:	f102 0778 	add.w	r7, r2, #120	; 0x78
  405040:	00ff      	lsls	r7, r7, #3
  405042:	f102 0577 	add.w	r5, r2, #119	; 0x77
  405046:	e786      	b.n	404f56 <_free_r+0xa2>
  405048:	f240 5054 	movw	r0, #1364	; 0x554
  40504c:	4282      	cmp	r2, r0
  40504e:	d806      	bhi.n	40505e <_free_r+0x1aa>
  405050:	0c9a      	lsrs	r2, r3, #18
  405052:	f102 077d 	add.w	r7, r2, #125	; 0x7d
  405056:	00ff      	lsls	r7, r7, #3
  405058:	f102 057c 	add.w	r5, r2, #124	; 0x7c
  40505c:	e77b      	b.n	404f56 <_free_r+0xa2>
  40505e:	f44f 777e 	mov.w	r7, #1016	; 0x3f8
  405062:	257e      	movs	r5, #126	; 0x7e
  405064:	e777      	b.n	404f56 <_free_r+0xa2>
  405066:	f043 0101 	orr.w	r1, r3, #1
  40506a:	6061      	str	r1, [r4, #4]
  40506c:	6013      	str	r3, [r2, #0]
  40506e:	e763      	b.n	404f38 <_free_r+0x84>
  405070:	204005b8 	.word	0x204005b8
  405074:	204005c0 	.word	0x204005c0
  405078:	204009c4 	.word	0x204009c4
  40507c:	20410b10 	.word	0x20410b10

00405080 <__sfvwrite_r>:
  405080:	6893      	ldr	r3, [r2, #8]
  405082:	2b00      	cmp	r3, #0
  405084:	d073      	beq.n	40516e <__sfvwrite_r+0xee>
  405086:	e92d 4ff0 	stmdb	sp!, {r4, r5, r6, r7, r8, r9, sl, fp, lr}
  40508a:	898b      	ldrh	r3, [r1, #12]
  40508c:	b083      	sub	sp, #12
  40508e:	460c      	mov	r4, r1
  405090:	0719      	lsls	r1, r3, #28
  405092:	9000      	str	r0, [sp, #0]
  405094:	4616      	mov	r6, r2
  405096:	d526      	bpl.n	4050e6 <__sfvwrite_r+0x66>
  405098:	6922      	ldr	r2, [r4, #16]
  40509a:	b322      	cbz	r2, 4050e6 <__sfvwrite_r+0x66>
  40509c:	f013 0002 	ands.w	r0, r3, #2
  4050a0:	6835      	ldr	r5, [r6, #0]
  4050a2:	d02c      	beq.n	4050fe <__sfvwrite_r+0x7e>
  4050a4:	f04f 0900 	mov.w	r9, #0
  4050a8:	4fb0      	ldr	r7, [pc, #704]	; (40536c <__sfvwrite_r+0x2ec>)
  4050aa:	46c8      	mov	r8, r9
  4050ac:	46b2      	mov	sl, r6
  4050ae:	45b8      	cmp	r8, r7
  4050b0:	4643      	mov	r3, r8
  4050b2:	464a      	mov	r2, r9
  4050b4:	bf28      	it	cs
  4050b6:	463b      	movcs	r3, r7
  4050b8:	9800      	ldr	r0, [sp, #0]
  4050ba:	f1b8 0f00 	cmp.w	r8, #0
  4050be:	d050      	beq.n	405162 <__sfvwrite_r+0xe2>
  4050c0:	69e1      	ldr	r1, [r4, #28]
  4050c2:	6a66      	ldr	r6, [r4, #36]	; 0x24
  4050c4:	47b0      	blx	r6
  4050c6:	2800      	cmp	r0, #0
  4050c8:	dd58      	ble.n	40517c <__sfvwrite_r+0xfc>
  4050ca:	f8da 3008 	ldr.w	r3, [sl, #8]
  4050ce:	1a1b      	subs	r3, r3, r0
  4050d0:	4481      	add	r9, r0
  4050d2:	eba8 0800 	sub.w	r8, r8, r0
  4050d6:	f8ca 3008 	str.w	r3, [sl, #8]
  4050da:	2b00      	cmp	r3, #0
  4050dc:	d1e7      	bne.n	4050ae <__sfvwrite_r+0x2e>
  4050de:	2000      	movs	r0, #0
  4050e0:	b003      	add	sp, #12
  4050e2:	e8bd 8ff0 	ldmia.w	sp!, {r4, r5, r6, r7, r8, r9, sl, fp, pc}
  4050e6:	4621      	mov	r1, r4
  4050e8:	9800      	ldr	r0, [sp, #0]
  4050ea:	f7ff fc51 	bl	404990 <__swsetup_r>
  4050ee:	2800      	cmp	r0, #0
  4050f0:	f040 8133 	bne.w	40535a <__sfvwrite_r+0x2da>
  4050f4:	89a3      	ldrh	r3, [r4, #12]
  4050f6:	6835      	ldr	r5, [r6, #0]
  4050f8:	f013 0002 	ands.w	r0, r3, #2
  4050fc:	d1d2      	bne.n	4050a4 <__sfvwrite_r+0x24>
  4050fe:	f013 0901 	ands.w	r9, r3, #1
  405102:	d145      	bne.n	405190 <__sfvwrite_r+0x110>
  405104:	464f      	mov	r7, r9
  405106:	9601      	str	r6, [sp, #4]
  405108:	b337      	cbz	r7, 405158 <__sfvwrite_r+0xd8>
  40510a:	059a      	lsls	r2, r3, #22
  40510c:	f8d4 8008 	ldr.w	r8, [r4, #8]
  405110:	f140 8083 	bpl.w	40521a <__sfvwrite_r+0x19a>
  405114:	4547      	cmp	r7, r8
  405116:	46c3      	mov	fp, r8
  405118:	f0c0 80ab 	bcc.w	405272 <__sfvwrite_r+0x1f2>
  40511c:	f413 6f90 	tst.w	r3, #1152	; 0x480
  405120:	f040 80ac 	bne.w	40527c <__sfvwrite_r+0x1fc>
  405124:	6820      	ldr	r0, [r4, #0]
  405126:	46ba      	mov	sl, r7
  405128:	465a      	mov	r2, fp
  40512a:	4649      	mov	r1, r9
  40512c:	f000 fd92 	bl	405c54 <memmove>
  405130:	68a2      	ldr	r2, [r4, #8]
  405132:	6823      	ldr	r3, [r4, #0]
  405134:	eba2 0208 	sub.w	r2, r2, r8
  405138:	445b      	add	r3, fp
  40513a:	60a2      	str	r2, [r4, #8]
  40513c:	6023      	str	r3, [r4, #0]
  40513e:	9a01      	ldr	r2, [sp, #4]
  405140:	6893      	ldr	r3, [r2, #8]
  405142:	eba3 030a 	sub.w	r3, r3, sl
  405146:	44d1      	add	r9, sl
  405148:	eba7 070a 	sub.w	r7, r7, sl
  40514c:	6093      	str	r3, [r2, #8]
  40514e:	2b00      	cmp	r3, #0
  405150:	d0c5      	beq.n	4050de <__sfvwrite_r+0x5e>
  405152:	89a3      	ldrh	r3, [r4, #12]
  405154:	2f00      	cmp	r7, #0
  405156:	d1d8      	bne.n	40510a <__sfvwrite_r+0x8a>
  405158:	f8d5 9000 	ldr.w	r9, [r5]
  40515c:	686f      	ldr	r7, [r5, #4]
  40515e:	3508      	adds	r5, #8
  405160:	e7d2      	b.n	405108 <__sfvwrite_r+0x88>
  405162:	f8d5 9000 	ldr.w	r9, [r5]
  405166:	f8d5 8004 	ldr.w	r8, [r5, #4]
  40516a:	3508      	adds	r5, #8
  40516c:	e79f      	b.n	4050ae <__sfvwrite_r+0x2e>
  40516e:	2000      	movs	r0, #0
  405170:	4770      	bx	lr
  405172:	4621      	mov	r1, r4
  405174:	9800      	ldr	r0, [sp, #0]
  405176:	f7ff fd1f 	bl	404bb8 <_fflush_r>
  40517a:	b370      	cbz	r0, 4051da <__sfvwrite_r+0x15a>
  40517c:	f9b4 300c 	ldrsh.w	r3, [r4, #12]
  405180:	f043 0340 	orr.w	r3, r3, #64	; 0x40
  405184:	f04f 30ff 	mov.w	r0, #4294967295
  405188:	81a3      	strh	r3, [r4, #12]
  40518a:	b003      	add	sp, #12
  40518c:	e8bd 8ff0 	ldmia.w	sp!, {r4, r5, r6, r7, r8, r9, sl, fp, pc}
  405190:	4681      	mov	r9, r0
  405192:	4633      	mov	r3, r6
  405194:	464e      	mov	r6, r9
  405196:	46a8      	mov	r8, r5
  405198:	469a      	mov	sl, r3
  40519a:	464d      	mov	r5, r9
  40519c:	b34e      	cbz	r6, 4051f2 <__sfvwrite_r+0x172>
  40519e:	b380      	cbz	r0, 405202 <__sfvwrite_r+0x182>
  4051a0:	6820      	ldr	r0, [r4, #0]
  4051a2:	6923      	ldr	r3, [r4, #16]
  4051a4:	6962      	ldr	r2, [r4, #20]
  4051a6:	45b1      	cmp	r9, r6
  4051a8:	46cb      	mov	fp, r9
  4051aa:	bf28      	it	cs
  4051ac:	46b3      	movcs	fp, r6
  4051ae:	4298      	cmp	r0, r3
  4051b0:	465f      	mov	r7, fp
  4051b2:	d904      	bls.n	4051be <__sfvwrite_r+0x13e>
  4051b4:	68a3      	ldr	r3, [r4, #8]
  4051b6:	4413      	add	r3, r2
  4051b8:	459b      	cmp	fp, r3
  4051ba:	f300 80a6 	bgt.w	40530a <__sfvwrite_r+0x28a>
  4051be:	4593      	cmp	fp, r2
  4051c0:	db4b      	blt.n	40525a <__sfvwrite_r+0x1da>
  4051c2:	4613      	mov	r3, r2
  4051c4:	6a67      	ldr	r7, [r4, #36]	; 0x24
  4051c6:	69e1      	ldr	r1, [r4, #28]
  4051c8:	9800      	ldr	r0, [sp, #0]
  4051ca:	462a      	mov	r2, r5
  4051cc:	47b8      	blx	r7
  4051ce:	1e07      	subs	r7, r0, #0
  4051d0:	ddd4      	ble.n	40517c <__sfvwrite_r+0xfc>
  4051d2:	ebb9 0907 	subs.w	r9, r9, r7
  4051d6:	d0cc      	beq.n	405172 <__sfvwrite_r+0xf2>
  4051d8:	2001      	movs	r0, #1
  4051da:	f8da 3008 	ldr.w	r3, [sl, #8]
  4051de:	1bdb      	subs	r3, r3, r7
  4051e0:	443d      	add	r5, r7
  4051e2:	1bf6      	subs	r6, r6, r7
  4051e4:	f8ca 3008 	str.w	r3, [sl, #8]
  4051e8:	2b00      	cmp	r3, #0
  4051ea:	f43f af78 	beq.w	4050de <__sfvwrite_r+0x5e>
  4051ee:	2e00      	cmp	r6, #0
  4051f0:	d1d5      	bne.n	40519e <__sfvwrite_r+0x11e>
  4051f2:	f108 0308 	add.w	r3, r8, #8
  4051f6:	e913 0060 	ldmdb	r3, {r5, r6}
  4051fa:	4698      	mov	r8, r3
  4051fc:	3308      	adds	r3, #8
  4051fe:	2e00      	cmp	r6, #0
  405200:	d0f9      	beq.n	4051f6 <__sfvwrite_r+0x176>
  405202:	4632      	mov	r2, r6
  405204:	210a      	movs	r1, #10
  405206:	4628      	mov	r0, r5
  405208:	f000 fc3a 	bl	405a80 <memchr>
  40520c:	2800      	cmp	r0, #0
  40520e:	f000 80a1 	beq.w	405354 <__sfvwrite_r+0x2d4>
  405212:	3001      	adds	r0, #1
  405214:	eba0 0905 	sub.w	r9, r0, r5
  405218:	e7c2      	b.n	4051a0 <__sfvwrite_r+0x120>
  40521a:	6820      	ldr	r0, [r4, #0]
  40521c:	6923      	ldr	r3, [r4, #16]
  40521e:	4298      	cmp	r0, r3
  405220:	d802      	bhi.n	405228 <__sfvwrite_r+0x1a8>
  405222:	6963      	ldr	r3, [r4, #20]
  405224:	429f      	cmp	r7, r3
  405226:	d25d      	bcs.n	4052e4 <__sfvwrite_r+0x264>
  405228:	45b8      	cmp	r8, r7
  40522a:	bf28      	it	cs
  40522c:	46b8      	movcs	r8, r7
  40522e:	4642      	mov	r2, r8
  405230:	4649      	mov	r1, r9
  405232:	f000 fd0f 	bl	405c54 <memmove>
  405236:	68a3      	ldr	r3, [r4, #8]
  405238:	6822      	ldr	r2, [r4, #0]
  40523a:	eba3 0308 	sub.w	r3, r3, r8
  40523e:	4442      	add	r2, r8
  405240:	60a3      	str	r3, [r4, #8]
  405242:	6022      	str	r2, [r4, #0]
  405244:	b10b      	cbz	r3, 40524a <__sfvwrite_r+0x1ca>
  405246:	46c2      	mov	sl, r8
  405248:	e779      	b.n	40513e <__sfvwrite_r+0xbe>
  40524a:	4621      	mov	r1, r4
  40524c:	9800      	ldr	r0, [sp, #0]
  40524e:	f7ff fcb3 	bl	404bb8 <_fflush_r>
  405252:	2800      	cmp	r0, #0
  405254:	d192      	bne.n	40517c <__sfvwrite_r+0xfc>
  405256:	46c2      	mov	sl, r8
  405258:	e771      	b.n	40513e <__sfvwrite_r+0xbe>
  40525a:	465a      	mov	r2, fp
  40525c:	4629      	mov	r1, r5
  40525e:	f000 fcf9 	bl	405c54 <memmove>
  405262:	68a2      	ldr	r2, [r4, #8]
  405264:	6823      	ldr	r3, [r4, #0]
  405266:	eba2 020b 	sub.w	r2, r2, fp
  40526a:	445b      	add	r3, fp
  40526c:	60a2      	str	r2, [r4, #8]
  40526e:	6023      	str	r3, [r4, #0]
  405270:	e7af      	b.n	4051d2 <__sfvwrite_r+0x152>
  405272:	6820      	ldr	r0, [r4, #0]
  405274:	46b8      	mov	r8, r7
  405276:	46ba      	mov	sl, r7
  405278:	46bb      	mov	fp, r7
  40527a:	e755      	b.n	405128 <__sfvwrite_r+0xa8>
  40527c:	6962      	ldr	r2, [r4, #20]
  40527e:	6820      	ldr	r0, [r4, #0]
  405280:	6921      	ldr	r1, [r4, #16]
  405282:	eb02 0842 	add.w	r8, r2, r2, lsl #1
  405286:	eba0 0a01 	sub.w	sl, r0, r1
  40528a:	eb08 78d8 	add.w	r8, r8, r8, lsr #31
  40528e:	f10a 0001 	add.w	r0, sl, #1
  405292:	ea4f 0868 	mov.w	r8, r8, asr #1
  405296:	4438      	add	r0, r7
  405298:	4540      	cmp	r0, r8
  40529a:	4642      	mov	r2, r8
  40529c:	bf84      	itt	hi
  40529e:	4680      	movhi	r8, r0
  4052a0:	4642      	movhi	r2, r8
  4052a2:	055b      	lsls	r3, r3, #21
  4052a4:	d544      	bpl.n	405330 <__sfvwrite_r+0x2b0>
  4052a6:	4611      	mov	r1, r2
  4052a8:	9800      	ldr	r0, [sp, #0]
  4052aa:	f000 f921 	bl	4054f0 <_malloc_r>
  4052ae:	4683      	mov	fp, r0
  4052b0:	2800      	cmp	r0, #0
  4052b2:	d055      	beq.n	405360 <__sfvwrite_r+0x2e0>
  4052b4:	4652      	mov	r2, sl
  4052b6:	6921      	ldr	r1, [r4, #16]
  4052b8:	f000 fc32 	bl	405b20 <memcpy>
  4052bc:	89a3      	ldrh	r3, [r4, #12]
  4052be:	f423 6390 	bic.w	r3, r3, #1152	; 0x480
  4052c2:	f043 0380 	orr.w	r3, r3, #128	; 0x80
  4052c6:	81a3      	strh	r3, [r4, #12]
  4052c8:	eb0b 000a 	add.w	r0, fp, sl
  4052cc:	eba8 030a 	sub.w	r3, r8, sl
  4052d0:	f8c4 b010 	str.w	fp, [r4, #16]
  4052d4:	f8c4 8014 	str.w	r8, [r4, #20]
  4052d8:	6020      	str	r0, [r4, #0]
  4052da:	60a3      	str	r3, [r4, #8]
  4052dc:	46b8      	mov	r8, r7
  4052de:	46ba      	mov	sl, r7
  4052e0:	46bb      	mov	fp, r7
  4052e2:	e721      	b.n	405128 <__sfvwrite_r+0xa8>
  4052e4:	f06f 4100 	mvn.w	r1, #2147483648	; 0x80000000
  4052e8:	42b9      	cmp	r1, r7
  4052ea:	bf28      	it	cs
  4052ec:	4639      	movcs	r1, r7
  4052ee:	464a      	mov	r2, r9
  4052f0:	fb91 f1f3 	sdiv	r1, r1, r3
  4052f4:	9800      	ldr	r0, [sp, #0]
  4052f6:	6a66      	ldr	r6, [r4, #36]	; 0x24
  4052f8:	fb03 f301 	mul.w	r3, r3, r1
  4052fc:	69e1      	ldr	r1, [r4, #28]
  4052fe:	47b0      	blx	r6
  405300:	f1b0 0a00 	subs.w	sl, r0, #0
  405304:	f73f af1b 	bgt.w	40513e <__sfvwrite_r+0xbe>
  405308:	e738      	b.n	40517c <__sfvwrite_r+0xfc>
  40530a:	461a      	mov	r2, r3
  40530c:	4629      	mov	r1, r5
  40530e:	9301      	str	r3, [sp, #4]
  405310:	f000 fca0 	bl	405c54 <memmove>
  405314:	6822      	ldr	r2, [r4, #0]
  405316:	9b01      	ldr	r3, [sp, #4]
  405318:	9800      	ldr	r0, [sp, #0]
  40531a:	441a      	add	r2, r3
  40531c:	6022      	str	r2, [r4, #0]
  40531e:	4621      	mov	r1, r4
  405320:	f7ff fc4a 	bl	404bb8 <_fflush_r>
  405324:	9b01      	ldr	r3, [sp, #4]
  405326:	2800      	cmp	r0, #0
  405328:	f47f af28 	bne.w	40517c <__sfvwrite_r+0xfc>
  40532c:	461f      	mov	r7, r3
  40532e:	e750      	b.n	4051d2 <__sfvwrite_r+0x152>
  405330:	9800      	ldr	r0, [sp, #0]
  405332:	f000 fcff 	bl	405d34 <_realloc_r>
  405336:	4683      	mov	fp, r0
  405338:	2800      	cmp	r0, #0
  40533a:	d1c5      	bne.n	4052c8 <__sfvwrite_r+0x248>
  40533c:	9d00      	ldr	r5, [sp, #0]
  40533e:	6921      	ldr	r1, [r4, #16]
  405340:	4628      	mov	r0, r5
  405342:	f7ff fdb7 	bl	404eb4 <_free_r>
  405346:	f9b4 300c 	ldrsh.w	r3, [r4, #12]
  40534a:	220c      	movs	r2, #12
  40534c:	f023 0380 	bic.w	r3, r3, #128	; 0x80
  405350:	602a      	str	r2, [r5, #0]
  405352:	e715      	b.n	405180 <__sfvwrite_r+0x100>
  405354:	f106 0901 	add.w	r9, r6, #1
  405358:	e722      	b.n	4051a0 <__sfvwrite_r+0x120>
  40535a:	f04f 30ff 	mov.w	r0, #4294967295
  40535e:	e6bf      	b.n	4050e0 <__sfvwrite_r+0x60>
  405360:	9a00      	ldr	r2, [sp, #0]
  405362:	230c      	movs	r3, #12
  405364:	6013      	str	r3, [r2, #0]
  405366:	f9b4 300c 	ldrsh.w	r3, [r4, #12]
  40536a:	e709      	b.n	405180 <__sfvwrite_r+0x100>
  40536c:	7ffffc00 	.word	0x7ffffc00

00405370 <_fwalk_reent>:
  405370:	e92d 43f8 	stmdb	sp!, {r3, r4, r5, r6, r7, r8, r9, lr}
  405374:	f510 7738 	adds.w	r7, r0, #736	; 0x2e0
  405378:	d01f      	beq.n	4053ba <_fwalk_reent+0x4a>
  40537a:	4688      	mov	r8, r1
  40537c:	4606      	mov	r6, r0
  40537e:	f04f 0900 	mov.w	r9, #0
  405382:	687d      	ldr	r5, [r7, #4]
  405384:	68bc      	ldr	r4, [r7, #8]
  405386:	3d01      	subs	r5, #1
  405388:	d411      	bmi.n	4053ae <_fwalk_reent+0x3e>
  40538a:	89a3      	ldrh	r3, [r4, #12]
  40538c:	2b01      	cmp	r3, #1
  40538e:	f105 35ff 	add.w	r5, r5, #4294967295
  405392:	d908      	bls.n	4053a6 <_fwalk_reent+0x36>
  405394:	f9b4 300e 	ldrsh.w	r3, [r4, #14]
  405398:	3301      	adds	r3, #1
  40539a:	4621      	mov	r1, r4
  40539c:	4630      	mov	r0, r6
  40539e:	d002      	beq.n	4053a6 <_fwalk_reent+0x36>
  4053a0:	47c0      	blx	r8
  4053a2:	ea49 0900 	orr.w	r9, r9, r0
  4053a6:	1c6b      	adds	r3, r5, #1
  4053a8:	f104 0468 	add.w	r4, r4, #104	; 0x68
  4053ac:	d1ed      	bne.n	40538a <_fwalk_reent+0x1a>
  4053ae:	683f      	ldr	r7, [r7, #0]
  4053b0:	2f00      	cmp	r7, #0
  4053b2:	d1e6      	bne.n	405382 <_fwalk_reent+0x12>
  4053b4:	4648      	mov	r0, r9
  4053b6:	e8bd 83f8 	ldmia.w	sp!, {r3, r4, r5, r6, r7, r8, r9, pc}
  4053ba:	46b9      	mov	r9, r7
  4053bc:	4648      	mov	r0, r9
  4053be:	e8bd 83f8 	ldmia.w	sp!, {r3, r4, r5, r6, r7, r8, r9, pc}
  4053c2:	bf00      	nop

004053c4 <__locale_mb_cur_max>:
  4053c4:	4b04      	ldr	r3, [pc, #16]	; (4053d8 <__locale_mb_cur_max+0x14>)
  4053c6:	4a05      	ldr	r2, [pc, #20]	; (4053dc <__locale_mb_cur_max+0x18>)
  4053c8:	681b      	ldr	r3, [r3, #0]
  4053ca:	6b5b      	ldr	r3, [r3, #52]	; 0x34
  4053cc:	2b00      	cmp	r3, #0
  4053ce:	bf08      	it	eq
  4053d0:	4613      	moveq	r3, r2
  4053d2:	f893 0128 	ldrb.w	r0, [r3, #296]	; 0x128
  4053d6:	4770      	bx	lr
  4053d8:	2040001c 	.word	0x2040001c
  4053dc:	2040044c 	.word	0x2040044c

004053e0 <__retarget_lock_init_recursive>:
  4053e0:	4770      	bx	lr
  4053e2:	bf00      	nop

004053e4 <__retarget_lock_close_recursive>:
  4053e4:	4770      	bx	lr
  4053e6:	bf00      	nop

004053e8 <__retarget_lock_acquire_recursive>:
  4053e8:	4770      	bx	lr
  4053ea:	bf00      	nop

004053ec <__retarget_lock_release_recursive>:
  4053ec:	4770      	bx	lr
  4053ee:	bf00      	nop

004053f0 <__swhatbuf_r>:
  4053f0:	b570      	push	{r4, r5, r6, lr}
  4053f2:	460c      	mov	r4, r1
  4053f4:	f9b1 100e 	ldrsh.w	r1, [r1, #14]
  4053f8:	2900      	cmp	r1, #0
  4053fa:	b090      	sub	sp, #64	; 0x40
  4053fc:	4615      	mov	r5, r2
  4053fe:	461e      	mov	r6, r3
  405400:	db14      	blt.n	40542c <__swhatbuf_r+0x3c>
  405402:	aa01      	add	r2, sp, #4
  405404:	f001 f886 	bl	406514 <_fstat_r>
  405408:	2800      	cmp	r0, #0
  40540a:	db0f      	blt.n	40542c <__swhatbuf_r+0x3c>
  40540c:	9a02      	ldr	r2, [sp, #8]
  40540e:	f402 4270 	and.w	r2, r2, #61440	; 0xf000
  405412:	f5a2 5200 	sub.w	r2, r2, #8192	; 0x2000
  405416:	fab2 f282 	clz	r2, r2
  40541a:	0952      	lsrs	r2, r2, #5
  40541c:	f44f 6380 	mov.w	r3, #1024	; 0x400
  405420:	f44f 6000 	mov.w	r0, #2048	; 0x800
  405424:	6032      	str	r2, [r6, #0]
  405426:	602b      	str	r3, [r5, #0]
  405428:	b010      	add	sp, #64	; 0x40
  40542a:	bd70      	pop	{r4, r5, r6, pc}
  40542c:	89a2      	ldrh	r2, [r4, #12]
  40542e:	2300      	movs	r3, #0
  405430:	f012 0080 	ands.w	r0, r2, #128	; 0x80
  405434:	6033      	str	r3, [r6, #0]
  405436:	d004      	beq.n	405442 <__swhatbuf_r+0x52>
  405438:	2240      	movs	r2, #64	; 0x40
  40543a:	4618      	mov	r0, r3
  40543c:	602a      	str	r2, [r5, #0]
  40543e:	b010      	add	sp, #64	; 0x40
  405440:	bd70      	pop	{r4, r5, r6, pc}
  405442:	f44f 6380 	mov.w	r3, #1024	; 0x400
  405446:	602b      	str	r3, [r5, #0]
  405448:	b010      	add	sp, #64	; 0x40
  40544a:	bd70      	pop	{r4, r5, r6, pc}

0040544c <__smakebuf_r>:
  40544c:	898a      	ldrh	r2, [r1, #12]
  40544e:	0792      	lsls	r2, r2, #30
  405450:	460b      	mov	r3, r1
  405452:	d506      	bpl.n	405462 <__smakebuf_r+0x16>
  405454:	f101 0243 	add.w	r2, r1, #67	; 0x43
  405458:	2101      	movs	r1, #1
  40545a:	601a      	str	r2, [r3, #0]
  40545c:	611a      	str	r2, [r3, #16]
  40545e:	6159      	str	r1, [r3, #20]
  405460:	4770      	bx	lr
  405462:	b5f0      	push	{r4, r5, r6, r7, lr}
  405464:	b083      	sub	sp, #12
  405466:	ab01      	add	r3, sp, #4
  405468:	466a      	mov	r2, sp
  40546a:	460c      	mov	r4, r1
  40546c:	4606      	mov	r6, r0
  40546e:	f7ff ffbf 	bl	4053f0 <__swhatbuf_r>
  405472:	9900      	ldr	r1, [sp, #0]
  405474:	4605      	mov	r5, r0
  405476:	4630      	mov	r0, r6
  405478:	f000 f83a 	bl	4054f0 <_malloc_r>
  40547c:	f9b4 300c 	ldrsh.w	r3, [r4, #12]
  405480:	b1d8      	cbz	r0, 4054ba <__smakebuf_r+0x6e>
  405482:	9a01      	ldr	r2, [sp, #4]
  405484:	4f15      	ldr	r7, [pc, #84]	; (4054dc <__smakebuf_r+0x90>)
  405486:	9900      	ldr	r1, [sp, #0]
  405488:	63f7      	str	r7, [r6, #60]	; 0x3c
  40548a:	f043 0380 	orr.w	r3, r3, #128	; 0x80
  40548e:	81a3      	strh	r3, [r4, #12]
  405490:	6020      	str	r0, [r4, #0]
  405492:	6120      	str	r0, [r4, #16]
  405494:	6161      	str	r1, [r4, #20]
  405496:	b91a      	cbnz	r2, 4054a0 <__smakebuf_r+0x54>
  405498:	432b      	orrs	r3, r5
  40549a:	81a3      	strh	r3, [r4, #12]
  40549c:	b003      	add	sp, #12
  40549e:	bdf0      	pop	{r4, r5, r6, r7, pc}
  4054a0:	4630      	mov	r0, r6
  4054a2:	f9b4 100e 	ldrsh.w	r1, [r4, #14]
  4054a6:	f001 f849 	bl	40653c <_isatty_r>
  4054aa:	b1a0      	cbz	r0, 4054d6 <__smakebuf_r+0x8a>
  4054ac:	89a3      	ldrh	r3, [r4, #12]
  4054ae:	f023 0303 	bic.w	r3, r3, #3
  4054b2:	f043 0301 	orr.w	r3, r3, #1
  4054b6:	b21b      	sxth	r3, r3
  4054b8:	e7ee      	b.n	405498 <__smakebuf_r+0x4c>
  4054ba:	059a      	lsls	r2, r3, #22
  4054bc:	d4ee      	bmi.n	40549c <__smakebuf_r+0x50>
  4054be:	f023 0303 	bic.w	r3, r3, #3
  4054c2:	f104 0243 	add.w	r2, r4, #67	; 0x43
  4054c6:	f043 0302 	orr.w	r3, r3, #2
  4054ca:	2101      	movs	r1, #1
  4054cc:	81a3      	strh	r3, [r4, #12]
  4054ce:	6022      	str	r2, [r4, #0]
  4054d0:	6122      	str	r2, [r4, #16]
  4054d2:	6161      	str	r1, [r4, #20]
  4054d4:	e7e2      	b.n	40549c <__smakebuf_r+0x50>
  4054d6:	f9b4 300c 	ldrsh.w	r3, [r4, #12]
  4054da:	e7dd      	b.n	405498 <__smakebuf_r+0x4c>
  4054dc:	00404c0d 	.word	0x00404c0d

004054e0 <malloc>:
  4054e0:	4b02      	ldr	r3, [pc, #8]	; (4054ec <malloc+0xc>)
  4054e2:	4601      	mov	r1, r0
  4054e4:	6818      	ldr	r0, [r3, #0]
  4054e6:	f000 b803 	b.w	4054f0 <_malloc_r>
  4054ea:	bf00      	nop
  4054ec:	2040001c 	.word	0x2040001c

004054f0 <_malloc_r>:
  4054f0:	e92d 4ff0 	stmdb	sp!, {r4, r5, r6, r7, r8, r9, sl, fp, lr}
  4054f4:	f101 060b 	add.w	r6, r1, #11
  4054f8:	2e16      	cmp	r6, #22
  4054fa:	b083      	sub	sp, #12
  4054fc:	4605      	mov	r5, r0
  4054fe:	f240 809e 	bls.w	40563e <_malloc_r+0x14e>
  405502:	f036 0607 	bics.w	r6, r6, #7
  405506:	f100 80bd 	bmi.w	405684 <_malloc_r+0x194>
  40550a:	42b1      	cmp	r1, r6
  40550c:	f200 80ba 	bhi.w	405684 <_malloc_r+0x194>
  405510:	f000 fc04 	bl	405d1c <__malloc_lock>
  405514:	f5b6 7ffc 	cmp.w	r6, #504	; 0x1f8
  405518:	f0c0 8293 	bcc.w	405a42 <_malloc_r+0x552>
  40551c:	0a73      	lsrs	r3, r6, #9
  40551e:	f000 80b8 	beq.w	405692 <_malloc_r+0x1a2>
  405522:	2b04      	cmp	r3, #4
  405524:	f200 8179 	bhi.w	40581a <_malloc_r+0x32a>
  405528:	09b3      	lsrs	r3, r6, #6
  40552a:	f103 0039 	add.w	r0, r3, #57	; 0x39
  40552e:	f103 0e38 	add.w	lr, r3, #56	; 0x38
  405532:	00c3      	lsls	r3, r0, #3
  405534:	4fbf      	ldr	r7, [pc, #764]	; (405834 <_malloc_r+0x344>)
  405536:	443b      	add	r3, r7
  405538:	f1a3 0108 	sub.w	r1, r3, #8
  40553c:	685c      	ldr	r4, [r3, #4]
  40553e:	42a1      	cmp	r1, r4
  405540:	d106      	bne.n	405550 <_malloc_r+0x60>
  405542:	e00c      	b.n	40555e <_malloc_r+0x6e>
  405544:	2a00      	cmp	r2, #0
  405546:	f280 80aa 	bge.w	40569e <_malloc_r+0x1ae>
  40554a:	68e4      	ldr	r4, [r4, #12]
  40554c:	42a1      	cmp	r1, r4
  40554e:	d006      	beq.n	40555e <_malloc_r+0x6e>
  405550:	6863      	ldr	r3, [r4, #4]
  405552:	f023 0303 	bic.w	r3, r3, #3
  405556:	1b9a      	subs	r2, r3, r6
  405558:	2a0f      	cmp	r2, #15
  40555a:	ddf3      	ble.n	405544 <_malloc_r+0x54>
  40555c:	4670      	mov	r0, lr
  40555e:	693c      	ldr	r4, [r7, #16]
  405560:	f8df e2e4 	ldr.w	lr, [pc, #740]	; 405848 <_malloc_r+0x358>
  405564:	4574      	cmp	r4, lr
  405566:	f000 81ab 	beq.w	4058c0 <_malloc_r+0x3d0>
  40556a:	6863      	ldr	r3, [r4, #4]
  40556c:	f023 0303 	bic.w	r3, r3, #3
  405570:	1b9a      	subs	r2, r3, r6
  405572:	2a0f      	cmp	r2, #15
  405574:	f300 8190 	bgt.w	405898 <_malloc_r+0x3a8>
  405578:	2a00      	cmp	r2, #0
  40557a:	f8c7 e014 	str.w	lr, [r7, #20]
  40557e:	f8c7 e010 	str.w	lr, [r7, #16]
  405582:	f280 809d 	bge.w	4056c0 <_malloc_r+0x1d0>
  405586:	f5b3 7f00 	cmp.w	r3, #512	; 0x200
  40558a:	f080 8161 	bcs.w	405850 <_malloc_r+0x360>
  40558e:	08db      	lsrs	r3, r3, #3
  405590:	f103 0c01 	add.w	ip, r3, #1
  405594:	1099      	asrs	r1, r3, #2
  405596:	687a      	ldr	r2, [r7, #4]
  405598:	f857 803c 	ldr.w	r8, [r7, ip, lsl #3]
  40559c:	f8c4 8008 	str.w	r8, [r4, #8]
  4055a0:	2301      	movs	r3, #1
  4055a2:	408b      	lsls	r3, r1
  4055a4:	eb07 01cc 	add.w	r1, r7, ip, lsl #3
  4055a8:	4313      	orrs	r3, r2
  4055aa:	3908      	subs	r1, #8
  4055ac:	60e1      	str	r1, [r4, #12]
  4055ae:	607b      	str	r3, [r7, #4]
  4055b0:	f847 403c 	str.w	r4, [r7, ip, lsl #3]
  4055b4:	f8c8 400c 	str.w	r4, [r8, #12]
  4055b8:	1082      	asrs	r2, r0, #2
  4055ba:	2401      	movs	r4, #1
  4055bc:	4094      	lsls	r4, r2
  4055be:	429c      	cmp	r4, r3
  4055c0:	f200 808b 	bhi.w	4056da <_malloc_r+0x1ea>
  4055c4:	421c      	tst	r4, r3
  4055c6:	d106      	bne.n	4055d6 <_malloc_r+0xe6>
  4055c8:	f020 0003 	bic.w	r0, r0, #3
  4055cc:	0064      	lsls	r4, r4, #1
  4055ce:	421c      	tst	r4, r3
  4055d0:	f100 0004 	add.w	r0, r0, #4
  4055d4:	d0fa      	beq.n	4055cc <_malloc_r+0xdc>
  4055d6:	eb07 09c0 	add.w	r9, r7, r0, lsl #3
  4055da:	46cc      	mov	ip, r9
  4055dc:	4680      	mov	r8, r0
  4055de:	f8dc 300c 	ldr.w	r3, [ip, #12]
  4055e2:	459c      	cmp	ip, r3
  4055e4:	d107      	bne.n	4055f6 <_malloc_r+0x106>
  4055e6:	e16d      	b.n	4058c4 <_malloc_r+0x3d4>
  4055e8:	2a00      	cmp	r2, #0
  4055ea:	f280 817b 	bge.w	4058e4 <_malloc_r+0x3f4>
  4055ee:	68db      	ldr	r3, [r3, #12]
  4055f0:	459c      	cmp	ip, r3
  4055f2:	f000 8167 	beq.w	4058c4 <_malloc_r+0x3d4>
  4055f6:	6859      	ldr	r1, [r3, #4]
  4055f8:	f021 0103 	bic.w	r1, r1, #3
  4055fc:	1b8a      	subs	r2, r1, r6
  4055fe:	2a0f      	cmp	r2, #15
  405600:	ddf2      	ble.n	4055e8 <_malloc_r+0xf8>
  405602:	f8d3 c00c 	ldr.w	ip, [r3, #12]
  405606:	f8d3 8008 	ldr.w	r8, [r3, #8]
  40560a:	9300      	str	r3, [sp, #0]
  40560c:	199c      	adds	r4, r3, r6
  40560e:	4628      	mov	r0, r5
  405610:	f046 0601 	orr.w	r6, r6, #1
  405614:	f042 0501 	orr.w	r5, r2, #1
  405618:	605e      	str	r6, [r3, #4]
  40561a:	f8c8 c00c 	str.w	ip, [r8, #12]
  40561e:	f8cc 8008 	str.w	r8, [ip, #8]
  405622:	617c      	str	r4, [r7, #20]
  405624:	613c      	str	r4, [r7, #16]
  405626:	f8c4 e00c 	str.w	lr, [r4, #12]
  40562a:	f8c4 e008 	str.w	lr, [r4, #8]
  40562e:	6065      	str	r5, [r4, #4]
  405630:	505a      	str	r2, [r3, r1]
  405632:	f000 fb79 	bl	405d28 <__malloc_unlock>
  405636:	9b00      	ldr	r3, [sp, #0]
  405638:	f103 0408 	add.w	r4, r3, #8
  40563c:	e01e      	b.n	40567c <_malloc_r+0x18c>
  40563e:	2910      	cmp	r1, #16
  405640:	d820      	bhi.n	405684 <_malloc_r+0x194>
  405642:	f000 fb6b 	bl	405d1c <__malloc_lock>
  405646:	2610      	movs	r6, #16
  405648:	2318      	movs	r3, #24
  40564a:	2002      	movs	r0, #2
  40564c:	4f79      	ldr	r7, [pc, #484]	; (405834 <_malloc_r+0x344>)
  40564e:	443b      	add	r3, r7
  405650:	f1a3 0208 	sub.w	r2, r3, #8
  405654:	685c      	ldr	r4, [r3, #4]
  405656:	4294      	cmp	r4, r2
  405658:	f000 813d 	beq.w	4058d6 <_malloc_r+0x3e6>
  40565c:	6863      	ldr	r3, [r4, #4]
  40565e:	68e1      	ldr	r1, [r4, #12]
  405660:	68a6      	ldr	r6, [r4, #8]
  405662:	f023 0303 	bic.w	r3, r3, #3
  405666:	4423      	add	r3, r4
  405668:	4628      	mov	r0, r5
  40566a:	685a      	ldr	r2, [r3, #4]
  40566c:	60f1      	str	r1, [r6, #12]
  40566e:	f042 0201 	orr.w	r2, r2, #1
  405672:	608e      	str	r6, [r1, #8]
  405674:	605a      	str	r2, [r3, #4]
  405676:	f000 fb57 	bl	405d28 <__malloc_unlock>
  40567a:	3408      	adds	r4, #8
  40567c:	4620      	mov	r0, r4
  40567e:	b003      	add	sp, #12
  405680:	e8bd 8ff0 	ldmia.w	sp!, {r4, r5, r6, r7, r8, r9, sl, fp, pc}
  405684:	2400      	movs	r4, #0
  405686:	230c      	movs	r3, #12
  405688:	4620      	mov	r0, r4
  40568a:	602b      	str	r3, [r5, #0]
  40568c:	b003      	add	sp, #12
  40568e:	e8bd 8ff0 	ldmia.w	sp!, {r4, r5, r6, r7, r8, r9, sl, fp, pc}
  405692:	2040      	movs	r0, #64	; 0x40
  405694:	f44f 7300 	mov.w	r3, #512	; 0x200
  405698:	f04f 0e3f 	mov.w	lr, #63	; 0x3f
  40569c:	e74a      	b.n	405534 <_malloc_r+0x44>
  40569e:	4423      	add	r3, r4
  4056a0:	68e1      	ldr	r1, [r4, #12]
  4056a2:	685a      	ldr	r2, [r3, #4]
  4056a4:	68a6      	ldr	r6, [r4, #8]
  4056a6:	f042 0201 	orr.w	r2, r2, #1
  4056aa:	60f1      	str	r1, [r6, #12]
  4056ac:	4628      	mov	r0, r5
  4056ae:	608e      	str	r6, [r1, #8]
  4056b0:	605a      	str	r2, [r3, #4]
  4056b2:	f000 fb39 	bl	405d28 <__malloc_unlock>
  4056b6:	3408      	adds	r4, #8
  4056b8:	4620      	mov	r0, r4
  4056ba:	b003      	add	sp, #12
  4056bc:	e8bd 8ff0 	ldmia.w	sp!, {r4, r5, r6, r7, r8, r9, sl, fp, pc}
  4056c0:	4423      	add	r3, r4
  4056c2:	4628      	mov	r0, r5
  4056c4:	685a      	ldr	r2, [r3, #4]
  4056c6:	f042 0201 	orr.w	r2, r2, #1
  4056ca:	605a      	str	r2, [r3, #4]
  4056cc:	f000 fb2c 	bl	405d28 <__malloc_unlock>
  4056d0:	3408      	adds	r4, #8
  4056d2:	4620      	mov	r0, r4
  4056d4:	b003      	add	sp, #12
  4056d6:	e8bd 8ff0 	ldmia.w	sp!, {r4, r5, r6, r7, r8, r9, sl, fp, pc}
  4056da:	68bc      	ldr	r4, [r7, #8]
  4056dc:	6863      	ldr	r3, [r4, #4]
  4056de:	f023 0803 	bic.w	r8, r3, #3
  4056e2:	45b0      	cmp	r8, r6
  4056e4:	d304      	bcc.n	4056f0 <_malloc_r+0x200>
  4056e6:	eba8 0306 	sub.w	r3, r8, r6
  4056ea:	2b0f      	cmp	r3, #15
  4056ec:	f300 8085 	bgt.w	4057fa <_malloc_r+0x30a>
  4056f0:	f8df 9158 	ldr.w	r9, [pc, #344]	; 40584c <_malloc_r+0x35c>
  4056f4:	4b50      	ldr	r3, [pc, #320]	; (405838 <_malloc_r+0x348>)
  4056f6:	f8d9 2000 	ldr.w	r2, [r9]
  4056fa:	681b      	ldr	r3, [r3, #0]
  4056fc:	3201      	adds	r2, #1
  4056fe:	4433      	add	r3, r6
  405700:	eb04 0a08 	add.w	sl, r4, r8
  405704:	f000 8155 	beq.w	4059b2 <_malloc_r+0x4c2>
  405708:	f503 5380 	add.w	r3, r3, #4096	; 0x1000
  40570c:	330f      	adds	r3, #15
  40570e:	f423 6b7f 	bic.w	fp, r3, #4080	; 0xff0
  405712:	f02b 0b0f 	bic.w	fp, fp, #15
  405716:	4659      	mov	r1, fp
  405718:	4628      	mov	r0, r5
  40571a:	f000 fcb1 	bl	406080 <_sbrk_r>
  40571e:	1c41      	adds	r1, r0, #1
  405720:	4602      	mov	r2, r0
  405722:	f000 80fc 	beq.w	40591e <_malloc_r+0x42e>
  405726:	4582      	cmp	sl, r0
  405728:	f200 80f7 	bhi.w	40591a <_malloc_r+0x42a>
  40572c:	4b43      	ldr	r3, [pc, #268]	; (40583c <_malloc_r+0x34c>)
  40572e:	6819      	ldr	r1, [r3, #0]
  405730:	4459      	add	r1, fp
  405732:	6019      	str	r1, [r3, #0]
  405734:	f000 814d 	beq.w	4059d2 <_malloc_r+0x4e2>
  405738:	f8d9 0000 	ldr.w	r0, [r9]
  40573c:	3001      	adds	r0, #1
  40573e:	bf1b      	ittet	ne
  405740:	eba2 0a0a 	subne.w	sl, r2, sl
  405744:	4451      	addne	r1, sl
  405746:	f8c9 2000 	streq.w	r2, [r9]
  40574a:	6019      	strne	r1, [r3, #0]
  40574c:	f012 0107 	ands.w	r1, r2, #7
  405750:	f000 8115 	beq.w	40597e <_malloc_r+0x48e>
  405754:	f1c1 0008 	rsb	r0, r1, #8
  405758:	f5c1 5180 	rsb	r1, r1, #4096	; 0x1000
  40575c:	4402      	add	r2, r0
  40575e:	3108      	adds	r1, #8
  405760:	eb02 090b 	add.w	r9, r2, fp
  405764:	f3c9 090b 	ubfx	r9, r9, #0, #12
  405768:	eba1 0909 	sub.w	r9, r1, r9
  40576c:	4649      	mov	r1, r9
  40576e:	4628      	mov	r0, r5
  405770:	9301      	str	r3, [sp, #4]
  405772:	9200      	str	r2, [sp, #0]
  405774:	f000 fc84 	bl	406080 <_sbrk_r>
  405778:	1c43      	adds	r3, r0, #1
  40577a:	e89d 000c 	ldmia.w	sp, {r2, r3}
  40577e:	f000 8143 	beq.w	405a08 <_malloc_r+0x518>
  405782:	1a80      	subs	r0, r0, r2
  405784:	4448      	add	r0, r9
  405786:	f040 0001 	orr.w	r0, r0, #1
  40578a:	6819      	ldr	r1, [r3, #0]
  40578c:	60ba      	str	r2, [r7, #8]
  40578e:	4449      	add	r1, r9
  405790:	42bc      	cmp	r4, r7
  405792:	6050      	str	r0, [r2, #4]
  405794:	6019      	str	r1, [r3, #0]
  405796:	d017      	beq.n	4057c8 <_malloc_r+0x2d8>
  405798:	f1b8 0f0f 	cmp.w	r8, #15
  40579c:	f240 80fb 	bls.w	405996 <_malloc_r+0x4a6>
  4057a0:	6860      	ldr	r0, [r4, #4]
  4057a2:	f1a8 020c 	sub.w	r2, r8, #12
  4057a6:	f022 0207 	bic.w	r2, r2, #7
  4057aa:	eb04 0e02 	add.w	lr, r4, r2
  4057ae:	f000 0001 	and.w	r0, r0, #1
  4057b2:	f04f 0c05 	mov.w	ip, #5
  4057b6:	4310      	orrs	r0, r2
  4057b8:	2a0f      	cmp	r2, #15
  4057ba:	6060      	str	r0, [r4, #4]
  4057bc:	f8ce c004 	str.w	ip, [lr, #4]
  4057c0:	f8ce c008 	str.w	ip, [lr, #8]
  4057c4:	f200 8117 	bhi.w	4059f6 <_malloc_r+0x506>
  4057c8:	4b1d      	ldr	r3, [pc, #116]	; (405840 <_malloc_r+0x350>)
  4057ca:	68bc      	ldr	r4, [r7, #8]
  4057cc:	681a      	ldr	r2, [r3, #0]
  4057ce:	4291      	cmp	r1, r2
  4057d0:	bf88      	it	hi
  4057d2:	6019      	strhi	r1, [r3, #0]
  4057d4:	4b1b      	ldr	r3, [pc, #108]	; (405844 <_malloc_r+0x354>)
  4057d6:	681a      	ldr	r2, [r3, #0]
  4057d8:	4291      	cmp	r1, r2
  4057da:	6862      	ldr	r2, [r4, #4]
  4057dc:	bf88      	it	hi
  4057de:	6019      	strhi	r1, [r3, #0]
  4057e0:	f022 0203 	bic.w	r2, r2, #3
  4057e4:	4296      	cmp	r6, r2
  4057e6:	eba2 0306 	sub.w	r3, r2, r6
  4057ea:	d801      	bhi.n	4057f0 <_malloc_r+0x300>
  4057ec:	2b0f      	cmp	r3, #15
  4057ee:	dc04      	bgt.n	4057fa <_malloc_r+0x30a>
  4057f0:	4628      	mov	r0, r5
  4057f2:	f000 fa99 	bl	405d28 <__malloc_unlock>
  4057f6:	2400      	movs	r4, #0
  4057f8:	e740      	b.n	40567c <_malloc_r+0x18c>
  4057fa:	19a2      	adds	r2, r4, r6
  4057fc:	f043 0301 	orr.w	r3, r3, #1
  405800:	f046 0601 	orr.w	r6, r6, #1
  405804:	6066      	str	r6, [r4, #4]
  405806:	4628      	mov	r0, r5
  405808:	60ba      	str	r2, [r7, #8]
  40580a:	6053      	str	r3, [r2, #4]
  40580c:	f000 fa8c 	bl	405d28 <__malloc_unlock>
  405810:	3408      	adds	r4, #8
  405812:	4620      	mov	r0, r4
  405814:	b003      	add	sp, #12
  405816:	e8bd 8ff0 	ldmia.w	sp!, {r4, r5, r6, r7, r8, r9, sl, fp, pc}
  40581a:	2b14      	cmp	r3, #20
  40581c:	d971      	bls.n	405902 <_malloc_r+0x412>
  40581e:	2b54      	cmp	r3, #84	; 0x54
  405820:	f200 80a3 	bhi.w	40596a <_malloc_r+0x47a>
  405824:	0b33      	lsrs	r3, r6, #12
  405826:	f103 006f 	add.w	r0, r3, #111	; 0x6f
  40582a:	f103 0e6e 	add.w	lr, r3, #110	; 0x6e
  40582e:	00c3      	lsls	r3, r0, #3
  405830:	e680      	b.n	405534 <_malloc_r+0x44>
  405832:	bf00      	nop
  405834:	204005b8 	.word	0x204005b8
  405838:	20410b10 	.word	0x20410b10
  40583c:	20410ae0 	.word	0x20410ae0
  405840:	20410b08 	.word	0x20410b08
  405844:	20410b0c 	.word	0x20410b0c
  405848:	204005c0 	.word	0x204005c0
  40584c:	204009c0 	.word	0x204009c0
  405850:	0a5a      	lsrs	r2, r3, #9
  405852:	2a04      	cmp	r2, #4
  405854:	d95b      	bls.n	40590e <_malloc_r+0x41e>
  405856:	2a14      	cmp	r2, #20
  405858:	f200 80ae 	bhi.w	4059b8 <_malloc_r+0x4c8>
  40585c:	f102 015c 	add.w	r1, r2, #92	; 0x5c
  405860:	00c9      	lsls	r1, r1, #3
  405862:	325b      	adds	r2, #91	; 0x5b
  405864:	eb07 0c01 	add.w	ip, r7, r1
  405868:	5879      	ldr	r1, [r7, r1]
  40586a:	f1ac 0c08 	sub.w	ip, ip, #8
  40586e:	458c      	cmp	ip, r1
  405870:	f000 8088 	beq.w	405984 <_malloc_r+0x494>
  405874:	684a      	ldr	r2, [r1, #4]
  405876:	f022 0203 	bic.w	r2, r2, #3
  40587a:	4293      	cmp	r3, r2
  40587c:	d273      	bcs.n	405966 <_malloc_r+0x476>
  40587e:	6889      	ldr	r1, [r1, #8]
  405880:	458c      	cmp	ip, r1
  405882:	d1f7      	bne.n	405874 <_malloc_r+0x384>
  405884:	f8dc 200c 	ldr.w	r2, [ip, #12]
  405888:	687b      	ldr	r3, [r7, #4]
  40588a:	60e2      	str	r2, [r4, #12]
  40588c:	f8c4 c008 	str.w	ip, [r4, #8]
  405890:	6094      	str	r4, [r2, #8]
  405892:	f8cc 400c 	str.w	r4, [ip, #12]
  405896:	e68f      	b.n	4055b8 <_malloc_r+0xc8>
  405898:	19a1      	adds	r1, r4, r6
  40589a:	f046 0c01 	orr.w	ip, r6, #1
  40589e:	f042 0601 	orr.w	r6, r2, #1
  4058a2:	f8c4 c004 	str.w	ip, [r4, #4]
  4058a6:	4628      	mov	r0, r5
  4058a8:	6179      	str	r1, [r7, #20]
  4058aa:	6139      	str	r1, [r7, #16]
  4058ac:	f8c1 e00c 	str.w	lr, [r1, #12]
  4058b0:	f8c1 e008 	str.w	lr, [r1, #8]
  4058b4:	604e      	str	r6, [r1, #4]
  4058b6:	50e2      	str	r2, [r4, r3]
  4058b8:	f000 fa36 	bl	405d28 <__malloc_unlock>
  4058bc:	3408      	adds	r4, #8
  4058be:	e6dd      	b.n	40567c <_malloc_r+0x18c>
  4058c0:	687b      	ldr	r3, [r7, #4]
  4058c2:	e679      	b.n	4055b8 <_malloc_r+0xc8>
  4058c4:	f108 0801 	add.w	r8, r8, #1
  4058c8:	f018 0f03 	tst.w	r8, #3
  4058cc:	f10c 0c08 	add.w	ip, ip, #8
  4058d0:	f47f ae85 	bne.w	4055de <_malloc_r+0xee>
  4058d4:	e02d      	b.n	405932 <_malloc_r+0x442>
  4058d6:	68dc      	ldr	r4, [r3, #12]
  4058d8:	42a3      	cmp	r3, r4
  4058da:	bf08      	it	eq
  4058dc:	3002      	addeq	r0, #2
  4058de:	f43f ae3e 	beq.w	40555e <_malloc_r+0x6e>
  4058e2:	e6bb      	b.n	40565c <_malloc_r+0x16c>
  4058e4:	4419      	add	r1, r3
  4058e6:	461c      	mov	r4, r3
  4058e8:	684a      	ldr	r2, [r1, #4]
  4058ea:	68db      	ldr	r3, [r3, #12]
  4058ec:	f854 6f08 	ldr.w	r6, [r4, #8]!
  4058f0:	f042 0201 	orr.w	r2, r2, #1
  4058f4:	604a      	str	r2, [r1, #4]
  4058f6:	4628      	mov	r0, r5
  4058f8:	60f3      	str	r3, [r6, #12]
  4058fa:	609e      	str	r6, [r3, #8]
  4058fc:	f000 fa14 	bl	405d28 <__malloc_unlock>
  405900:	e6bc      	b.n	40567c <_malloc_r+0x18c>
  405902:	f103 005c 	add.w	r0, r3, #92	; 0x5c
  405906:	f103 0e5b 	add.w	lr, r3, #91	; 0x5b
  40590a:	00c3      	lsls	r3, r0, #3
  40590c:	e612      	b.n	405534 <_malloc_r+0x44>
  40590e:	099a      	lsrs	r2, r3, #6
  405910:	f102 0139 	add.w	r1, r2, #57	; 0x39
  405914:	00c9      	lsls	r1, r1, #3
  405916:	3238      	adds	r2, #56	; 0x38
  405918:	e7a4      	b.n	405864 <_malloc_r+0x374>
  40591a:	42bc      	cmp	r4, r7
  40591c:	d054      	beq.n	4059c8 <_malloc_r+0x4d8>
  40591e:	68bc      	ldr	r4, [r7, #8]
  405920:	6862      	ldr	r2, [r4, #4]
  405922:	f022 0203 	bic.w	r2, r2, #3
  405926:	e75d      	b.n	4057e4 <_malloc_r+0x2f4>
  405928:	f859 3908 	ldr.w	r3, [r9], #-8
  40592c:	4599      	cmp	r9, r3
  40592e:	f040 8086 	bne.w	405a3e <_malloc_r+0x54e>
  405932:	f010 0f03 	tst.w	r0, #3
  405936:	f100 30ff 	add.w	r0, r0, #4294967295
  40593a:	d1f5      	bne.n	405928 <_malloc_r+0x438>
  40593c:	687b      	ldr	r3, [r7, #4]
  40593e:	ea23 0304 	bic.w	r3, r3, r4
  405942:	607b      	str	r3, [r7, #4]
  405944:	0064      	lsls	r4, r4, #1
  405946:	429c      	cmp	r4, r3
  405948:	f63f aec7 	bhi.w	4056da <_malloc_r+0x1ea>
  40594c:	2c00      	cmp	r4, #0
  40594e:	f43f aec4 	beq.w	4056da <_malloc_r+0x1ea>
  405952:	421c      	tst	r4, r3
  405954:	4640      	mov	r0, r8
  405956:	f47f ae3e 	bne.w	4055d6 <_malloc_r+0xe6>
  40595a:	0064      	lsls	r4, r4, #1
  40595c:	421c      	tst	r4, r3
  40595e:	f100 0004 	add.w	r0, r0, #4
  405962:	d0fa      	beq.n	40595a <_malloc_r+0x46a>
  405964:	e637      	b.n	4055d6 <_malloc_r+0xe6>
  405966:	468c      	mov	ip, r1
  405968:	e78c      	b.n	405884 <_malloc_r+0x394>
  40596a:	f5b3 7faa 	cmp.w	r3, #340	; 0x154
  40596e:	d815      	bhi.n	40599c <_malloc_r+0x4ac>
  405970:	0bf3      	lsrs	r3, r6, #15
  405972:	f103 0078 	add.w	r0, r3, #120	; 0x78
  405976:	f103 0e77 	add.w	lr, r3, #119	; 0x77
  40597a:	00c3      	lsls	r3, r0, #3
  40597c:	e5da      	b.n	405534 <_malloc_r+0x44>
  40597e:	f44f 5180 	mov.w	r1, #4096	; 0x1000
  405982:	e6ed      	b.n	405760 <_malloc_r+0x270>
  405984:	687b      	ldr	r3, [r7, #4]
  405986:	1092      	asrs	r2, r2, #2
  405988:	2101      	movs	r1, #1
  40598a:	fa01 f202 	lsl.w	r2, r1, r2
  40598e:	4313      	orrs	r3, r2
  405990:	607b      	str	r3, [r7, #4]
  405992:	4662      	mov	r2, ip
  405994:	e779      	b.n	40588a <_malloc_r+0x39a>
  405996:	2301      	movs	r3, #1
  405998:	6053      	str	r3, [r2, #4]
  40599a:	e729      	b.n	4057f0 <_malloc_r+0x300>
  40599c:	f240 5254 	movw	r2, #1364	; 0x554
  4059a0:	4293      	cmp	r3, r2
  4059a2:	d822      	bhi.n	4059ea <_malloc_r+0x4fa>
  4059a4:	0cb3      	lsrs	r3, r6, #18
  4059a6:	f103 007d 	add.w	r0, r3, #125	; 0x7d
  4059aa:	f103 0e7c 	add.w	lr, r3, #124	; 0x7c
  4059ae:	00c3      	lsls	r3, r0, #3
  4059b0:	e5c0      	b.n	405534 <_malloc_r+0x44>
  4059b2:	f103 0b10 	add.w	fp, r3, #16
  4059b6:	e6ae      	b.n	405716 <_malloc_r+0x226>
  4059b8:	2a54      	cmp	r2, #84	; 0x54
  4059ba:	d829      	bhi.n	405a10 <_malloc_r+0x520>
  4059bc:	0b1a      	lsrs	r2, r3, #12
  4059be:	f102 016f 	add.w	r1, r2, #111	; 0x6f
  4059c2:	00c9      	lsls	r1, r1, #3
  4059c4:	326e      	adds	r2, #110	; 0x6e
  4059c6:	e74d      	b.n	405864 <_malloc_r+0x374>
  4059c8:	4b20      	ldr	r3, [pc, #128]	; (405a4c <_malloc_r+0x55c>)
  4059ca:	6819      	ldr	r1, [r3, #0]
  4059cc:	4459      	add	r1, fp
  4059ce:	6019      	str	r1, [r3, #0]
  4059d0:	e6b2      	b.n	405738 <_malloc_r+0x248>
  4059d2:	f3ca 000b 	ubfx	r0, sl, #0, #12
  4059d6:	2800      	cmp	r0, #0
  4059d8:	f47f aeae 	bne.w	405738 <_malloc_r+0x248>
  4059dc:	eb08 030b 	add.w	r3, r8, fp
  4059e0:	68ba      	ldr	r2, [r7, #8]
  4059e2:	f043 0301 	orr.w	r3, r3, #1
  4059e6:	6053      	str	r3, [r2, #4]
  4059e8:	e6ee      	b.n	4057c8 <_malloc_r+0x2d8>
  4059ea:	207f      	movs	r0, #127	; 0x7f
  4059ec:	f44f 737e 	mov.w	r3, #1016	; 0x3f8
  4059f0:	f04f 0e7e 	mov.w	lr, #126	; 0x7e
  4059f4:	e59e      	b.n	405534 <_malloc_r+0x44>
  4059f6:	f104 0108 	add.w	r1, r4, #8
  4059fa:	4628      	mov	r0, r5
  4059fc:	9300      	str	r3, [sp, #0]
  4059fe:	f7ff fa59 	bl	404eb4 <_free_r>
  405a02:	9b00      	ldr	r3, [sp, #0]
  405a04:	6819      	ldr	r1, [r3, #0]
  405a06:	e6df      	b.n	4057c8 <_malloc_r+0x2d8>
  405a08:	2001      	movs	r0, #1
  405a0a:	f04f 0900 	mov.w	r9, #0
  405a0e:	e6bc      	b.n	40578a <_malloc_r+0x29a>
  405a10:	f5b2 7faa 	cmp.w	r2, #340	; 0x154
  405a14:	d805      	bhi.n	405a22 <_malloc_r+0x532>
  405a16:	0bda      	lsrs	r2, r3, #15
  405a18:	f102 0178 	add.w	r1, r2, #120	; 0x78
  405a1c:	00c9      	lsls	r1, r1, #3
  405a1e:	3277      	adds	r2, #119	; 0x77
  405a20:	e720      	b.n	405864 <_malloc_r+0x374>
  405a22:	f240 5154 	movw	r1, #1364	; 0x554
  405a26:	428a      	cmp	r2, r1
  405a28:	d805      	bhi.n	405a36 <_malloc_r+0x546>
  405a2a:	0c9a      	lsrs	r2, r3, #18
  405a2c:	f102 017d 	add.w	r1, r2, #125	; 0x7d
  405a30:	00c9      	lsls	r1, r1, #3
  405a32:	327c      	adds	r2, #124	; 0x7c
  405a34:	e716      	b.n	405864 <_malloc_r+0x374>
  405a36:	f44f 717e 	mov.w	r1, #1016	; 0x3f8
  405a3a:	227e      	movs	r2, #126	; 0x7e
  405a3c:	e712      	b.n	405864 <_malloc_r+0x374>
  405a3e:	687b      	ldr	r3, [r7, #4]
  405a40:	e780      	b.n	405944 <_malloc_r+0x454>
  405a42:	08f0      	lsrs	r0, r6, #3
  405a44:	f106 0308 	add.w	r3, r6, #8
  405a48:	e600      	b.n	40564c <_malloc_r+0x15c>
  405a4a:	bf00      	nop
  405a4c:	20410ae0 	.word	0x20410ae0

00405a50 <__ascii_mbtowc>:
  405a50:	b082      	sub	sp, #8
  405a52:	b149      	cbz	r1, 405a68 <__ascii_mbtowc+0x18>
  405a54:	b15a      	cbz	r2, 405a6e <__ascii_mbtowc+0x1e>
  405a56:	b16b      	cbz	r3, 405a74 <__ascii_mbtowc+0x24>
  405a58:	7813      	ldrb	r3, [r2, #0]
  405a5a:	600b      	str	r3, [r1, #0]
  405a5c:	7812      	ldrb	r2, [r2, #0]
  405a5e:	1c10      	adds	r0, r2, #0
  405a60:	bf18      	it	ne
  405a62:	2001      	movne	r0, #1
  405a64:	b002      	add	sp, #8
  405a66:	4770      	bx	lr
  405a68:	a901      	add	r1, sp, #4
  405a6a:	2a00      	cmp	r2, #0
  405a6c:	d1f3      	bne.n	405a56 <__ascii_mbtowc+0x6>
  405a6e:	4610      	mov	r0, r2
  405a70:	b002      	add	sp, #8
  405a72:	4770      	bx	lr
  405a74:	f06f 0001 	mvn.w	r0, #1
  405a78:	e7f4      	b.n	405a64 <__ascii_mbtowc+0x14>
  405a7a:	bf00      	nop
  405a7c:	0000      	movs	r0, r0
	...

00405a80 <memchr>:
  405a80:	f001 01ff 	and.w	r1, r1, #255	; 0xff
  405a84:	2a10      	cmp	r2, #16
  405a86:	db2b      	blt.n	405ae0 <memchr+0x60>
  405a88:	f010 0f07 	tst.w	r0, #7
  405a8c:	d008      	beq.n	405aa0 <memchr+0x20>
  405a8e:	f810 3b01 	ldrb.w	r3, [r0], #1
  405a92:	3a01      	subs	r2, #1
  405a94:	428b      	cmp	r3, r1
  405a96:	d02d      	beq.n	405af4 <memchr+0x74>
  405a98:	f010 0f07 	tst.w	r0, #7
  405a9c:	b342      	cbz	r2, 405af0 <memchr+0x70>
  405a9e:	d1f6      	bne.n	405a8e <memchr+0xe>
  405aa0:	b4f0      	push	{r4, r5, r6, r7}
  405aa2:	ea41 2101 	orr.w	r1, r1, r1, lsl #8
  405aa6:	ea41 4101 	orr.w	r1, r1, r1, lsl #16
  405aaa:	f022 0407 	bic.w	r4, r2, #7
  405aae:	f07f 0700 	mvns.w	r7, #0
  405ab2:	2300      	movs	r3, #0
  405ab4:	e8f0 5602 	ldrd	r5, r6, [r0], #8
  405ab8:	3c08      	subs	r4, #8
  405aba:	ea85 0501 	eor.w	r5, r5, r1
  405abe:	ea86 0601 	eor.w	r6, r6, r1
  405ac2:	fa85 f547 	uadd8	r5, r5, r7
  405ac6:	faa3 f587 	sel	r5, r3, r7
  405aca:	fa86 f647 	uadd8	r6, r6, r7
  405ace:	faa5 f687 	sel	r6, r5, r7
  405ad2:	b98e      	cbnz	r6, 405af8 <memchr+0x78>
  405ad4:	d1ee      	bne.n	405ab4 <memchr+0x34>
  405ad6:	bcf0      	pop	{r4, r5, r6, r7}
  405ad8:	f001 01ff 	and.w	r1, r1, #255	; 0xff
  405adc:	f002 0207 	and.w	r2, r2, #7
  405ae0:	b132      	cbz	r2, 405af0 <memchr+0x70>
  405ae2:	f810 3b01 	ldrb.w	r3, [r0], #1
  405ae6:	3a01      	subs	r2, #1
  405ae8:	ea83 0301 	eor.w	r3, r3, r1
  405aec:	b113      	cbz	r3, 405af4 <memchr+0x74>
  405aee:	d1f8      	bne.n	405ae2 <memchr+0x62>
  405af0:	2000      	movs	r0, #0
  405af2:	4770      	bx	lr
  405af4:	3801      	subs	r0, #1
  405af6:	4770      	bx	lr
  405af8:	2d00      	cmp	r5, #0
  405afa:	bf06      	itte	eq
  405afc:	4635      	moveq	r5, r6
  405afe:	3803      	subeq	r0, #3
  405b00:	3807      	subne	r0, #7
  405b02:	f015 0f01 	tst.w	r5, #1
  405b06:	d107      	bne.n	405b18 <memchr+0x98>
  405b08:	3001      	adds	r0, #1
  405b0a:	f415 7f80 	tst.w	r5, #256	; 0x100
  405b0e:	bf02      	ittt	eq
  405b10:	3001      	addeq	r0, #1
  405b12:	f415 3fc0 	tsteq.w	r5, #98304	; 0x18000
  405b16:	3001      	addeq	r0, #1
  405b18:	bcf0      	pop	{r4, r5, r6, r7}
  405b1a:	3801      	subs	r0, #1
  405b1c:	4770      	bx	lr
  405b1e:	bf00      	nop

00405b20 <memcpy>:
  405b20:	4684      	mov	ip, r0
  405b22:	ea41 0300 	orr.w	r3, r1, r0
  405b26:	f013 0303 	ands.w	r3, r3, #3
  405b2a:	d16d      	bne.n	405c08 <memcpy+0xe8>
  405b2c:	3a40      	subs	r2, #64	; 0x40
  405b2e:	d341      	bcc.n	405bb4 <memcpy+0x94>
  405b30:	f851 3b04 	ldr.w	r3, [r1], #4
  405b34:	f840 3b04 	str.w	r3, [r0], #4
  405b38:	f851 3b04 	ldr.w	r3, [r1], #4
  405b3c:	f840 3b04 	str.w	r3, [r0], #4
  405b40:	f851 3b04 	ldr.w	r3, [r1], #4
  405b44:	f840 3b04 	str.w	r3, [r0], #4
  405b48:	f851 3b04 	ldr.w	r3, [r1], #4
  405b4c:	f840 3b04 	str.w	r3, [r0], #4
  405b50:	f851 3b04 	ldr.w	r3, [r1], #4
  405b54:	f840 3b04 	str.w	r3, [r0], #4
  405b58:	f851 3b04 	ldr.w	r3, [r1], #4
  405b5c:	f840 3b04 	str.w	r3, [r0], #4
  405b60:	f851 3b04 	ldr.w	r3, [r1], #4
  405b64:	f840 3b04 	str.w	r3, [r0], #4
  405b68:	f851 3b04 	ldr.w	r3, [r1], #4
  405b6c:	f840 3b04 	str.w	r3, [r0], #4
  405b70:	f851 3b04 	ldr.w	r3, [r1], #4
  405b74:	f840 3b04 	str.w	r3, [r0], #4
  405b78:	f851 3b04 	ldr.w	r3, [r1], #4
  405b7c:	f840 3b04 	str.w	r3, [r0], #4
  405b80:	f851 3b04 	ldr.w	r3, [r1], #4
  405b84:	f840 3b04 	str.w	r3, [r0], #4
  405b88:	f851 3b04 	ldr.w	r3, [r1], #4
  405b8c:	f840 3b04 	str.w	r3, [r0], #4
  405b90:	f851 3b04 	ldr.w	r3, [r1], #4
  405b94:	f840 3b04 	str.w	r3, [r0], #4
  405b98:	f851 3b04 	ldr.w	r3, [r1], #4
  405b9c:	f840 3b04 	str.w	r3, [r0], #4
  405ba0:	f851 3b04 	ldr.w	r3, [r1], #4
  405ba4:	f840 3b04 	str.w	r3, [r0], #4
  405ba8:	f851 3b04 	ldr.w	r3, [r1], #4
  405bac:	f840 3b04 	str.w	r3, [r0], #4
  405bb0:	3a40      	subs	r2, #64	; 0x40
  405bb2:	d2bd      	bcs.n	405b30 <memcpy+0x10>
  405bb4:	3230      	adds	r2, #48	; 0x30
  405bb6:	d311      	bcc.n	405bdc <memcpy+0xbc>
  405bb8:	f851 3b04 	ldr.w	r3, [r1], #4
  405bbc:	f840 3b04 	str.w	r3, [r0], #4
  405bc0:	f851 3b04 	ldr.w	r3, [r1], #4
  405bc4:	f840 3b04 	str.w	r3, [r0], #4
  405bc8:	f851 3b04 	ldr.w	r3, [r1], #4
  405bcc:	f840 3b04 	str.w	r3, [r0], #4
  405bd0:	f851 3b04 	ldr.w	r3, [r1], #4
  405bd4:	f840 3b04 	str.w	r3, [r0], #4
  405bd8:	3a10      	subs	r2, #16
  405bda:	d2ed      	bcs.n	405bb8 <memcpy+0x98>
  405bdc:	320c      	adds	r2, #12
  405bde:	d305      	bcc.n	405bec <memcpy+0xcc>
  405be0:	f851 3b04 	ldr.w	r3, [r1], #4
  405be4:	f840 3b04 	str.w	r3, [r0], #4
  405be8:	3a04      	subs	r2, #4
  405bea:	d2f9      	bcs.n	405be0 <memcpy+0xc0>
  405bec:	3204      	adds	r2, #4
  405bee:	d008      	beq.n	405c02 <memcpy+0xe2>
  405bf0:	07d2      	lsls	r2, r2, #31
  405bf2:	bf1c      	itt	ne
  405bf4:	f811 3b01 	ldrbne.w	r3, [r1], #1
  405bf8:	f800 3b01 	strbne.w	r3, [r0], #1
  405bfc:	d301      	bcc.n	405c02 <memcpy+0xe2>
  405bfe:	880b      	ldrh	r3, [r1, #0]
  405c00:	8003      	strh	r3, [r0, #0]
  405c02:	4660      	mov	r0, ip
  405c04:	4770      	bx	lr
  405c06:	bf00      	nop
  405c08:	2a08      	cmp	r2, #8
  405c0a:	d313      	bcc.n	405c34 <memcpy+0x114>
  405c0c:	078b      	lsls	r3, r1, #30
  405c0e:	d08d      	beq.n	405b2c <memcpy+0xc>
  405c10:	f010 0303 	ands.w	r3, r0, #3
  405c14:	d08a      	beq.n	405b2c <memcpy+0xc>
  405c16:	f1c3 0304 	rsb	r3, r3, #4
  405c1a:	1ad2      	subs	r2, r2, r3
  405c1c:	07db      	lsls	r3, r3, #31
  405c1e:	bf1c      	itt	ne
  405c20:	f811 3b01 	ldrbne.w	r3, [r1], #1
  405c24:	f800 3b01 	strbne.w	r3, [r0], #1
  405c28:	d380      	bcc.n	405b2c <memcpy+0xc>
  405c2a:	f831 3b02 	ldrh.w	r3, [r1], #2
  405c2e:	f820 3b02 	strh.w	r3, [r0], #2
  405c32:	e77b      	b.n	405b2c <memcpy+0xc>
  405c34:	3a04      	subs	r2, #4
  405c36:	d3d9      	bcc.n	405bec <memcpy+0xcc>
  405c38:	3a01      	subs	r2, #1
  405c3a:	f811 3b01 	ldrb.w	r3, [r1], #1
  405c3e:	f800 3b01 	strb.w	r3, [r0], #1
  405c42:	d2f9      	bcs.n	405c38 <memcpy+0x118>
  405c44:	780b      	ldrb	r3, [r1, #0]
  405c46:	7003      	strb	r3, [r0, #0]
  405c48:	784b      	ldrb	r3, [r1, #1]
  405c4a:	7043      	strb	r3, [r0, #1]
  405c4c:	788b      	ldrb	r3, [r1, #2]
  405c4e:	7083      	strb	r3, [r0, #2]
  405c50:	4660      	mov	r0, ip
  405c52:	4770      	bx	lr

00405c54 <memmove>:
  405c54:	4288      	cmp	r0, r1
  405c56:	b5f0      	push	{r4, r5, r6, r7, lr}
  405c58:	d90d      	bls.n	405c76 <memmove+0x22>
  405c5a:	188b      	adds	r3, r1, r2
  405c5c:	4298      	cmp	r0, r3
  405c5e:	d20a      	bcs.n	405c76 <memmove+0x22>
  405c60:	1884      	adds	r4, r0, r2
  405c62:	2a00      	cmp	r2, #0
  405c64:	d051      	beq.n	405d0a <memmove+0xb6>
  405c66:	4622      	mov	r2, r4
  405c68:	f813 4d01 	ldrb.w	r4, [r3, #-1]!
  405c6c:	f802 4d01 	strb.w	r4, [r2, #-1]!
  405c70:	4299      	cmp	r1, r3
  405c72:	d1f9      	bne.n	405c68 <memmove+0x14>
  405c74:	bdf0      	pop	{r4, r5, r6, r7, pc}
  405c76:	2a0f      	cmp	r2, #15
  405c78:	d948      	bls.n	405d0c <memmove+0xb8>
  405c7a:	ea41 0300 	orr.w	r3, r1, r0
  405c7e:	079b      	lsls	r3, r3, #30
  405c80:	d146      	bne.n	405d10 <memmove+0xbc>
  405c82:	f100 0410 	add.w	r4, r0, #16
  405c86:	f101 0310 	add.w	r3, r1, #16
  405c8a:	4615      	mov	r5, r2
  405c8c:	f853 6c10 	ldr.w	r6, [r3, #-16]
  405c90:	f844 6c10 	str.w	r6, [r4, #-16]
  405c94:	f853 6c0c 	ldr.w	r6, [r3, #-12]
  405c98:	f844 6c0c 	str.w	r6, [r4, #-12]
  405c9c:	f853 6c08 	ldr.w	r6, [r3, #-8]
  405ca0:	f844 6c08 	str.w	r6, [r4, #-8]
  405ca4:	3d10      	subs	r5, #16
  405ca6:	f853 6c04 	ldr.w	r6, [r3, #-4]
  405caa:	f844 6c04 	str.w	r6, [r4, #-4]
  405cae:	2d0f      	cmp	r5, #15
  405cb0:	f103 0310 	add.w	r3, r3, #16
  405cb4:	f104 0410 	add.w	r4, r4, #16
  405cb8:	d8e8      	bhi.n	405c8c <memmove+0x38>
  405cba:	f1a2 0310 	sub.w	r3, r2, #16
  405cbe:	f023 030f 	bic.w	r3, r3, #15
  405cc2:	f002 0e0f 	and.w	lr, r2, #15
  405cc6:	3310      	adds	r3, #16
  405cc8:	f1be 0f03 	cmp.w	lr, #3
  405ccc:	4419      	add	r1, r3
  405cce:	4403      	add	r3, r0
  405cd0:	d921      	bls.n	405d16 <memmove+0xc2>
  405cd2:	1f1e      	subs	r6, r3, #4
  405cd4:	460d      	mov	r5, r1
  405cd6:	4674      	mov	r4, lr
  405cd8:	3c04      	subs	r4, #4
  405cda:	f855 7b04 	ldr.w	r7, [r5], #4
  405cde:	f846 7f04 	str.w	r7, [r6, #4]!
  405ce2:	2c03      	cmp	r4, #3
  405ce4:	d8f8      	bhi.n	405cd8 <memmove+0x84>
  405ce6:	f1ae 0404 	sub.w	r4, lr, #4
  405cea:	f024 0403 	bic.w	r4, r4, #3
  405cee:	3404      	adds	r4, #4
  405cf0:	4421      	add	r1, r4
  405cf2:	4423      	add	r3, r4
  405cf4:	f002 0203 	and.w	r2, r2, #3
  405cf8:	b162      	cbz	r2, 405d14 <memmove+0xc0>
  405cfa:	3b01      	subs	r3, #1
  405cfc:	440a      	add	r2, r1
  405cfe:	f811 4b01 	ldrb.w	r4, [r1], #1
  405d02:	f803 4f01 	strb.w	r4, [r3, #1]!
  405d06:	428a      	cmp	r2, r1
  405d08:	d1f9      	bne.n	405cfe <memmove+0xaa>
  405d0a:	bdf0      	pop	{r4, r5, r6, r7, pc}
  405d0c:	4603      	mov	r3, r0
  405d0e:	e7f3      	b.n	405cf8 <memmove+0xa4>
  405d10:	4603      	mov	r3, r0
  405d12:	e7f2      	b.n	405cfa <memmove+0xa6>
  405d14:	bdf0      	pop	{r4, r5, r6, r7, pc}
  405d16:	4672      	mov	r2, lr
  405d18:	e7ee      	b.n	405cf8 <memmove+0xa4>
  405d1a:	bf00      	nop

00405d1c <__malloc_lock>:
  405d1c:	4801      	ldr	r0, [pc, #4]	; (405d24 <__malloc_lock+0x8>)
  405d1e:	f7ff bb63 	b.w	4053e8 <__retarget_lock_acquire_recursive>
  405d22:	bf00      	nop
  405d24:	20440b3c 	.word	0x20440b3c

00405d28 <__malloc_unlock>:
  405d28:	4801      	ldr	r0, [pc, #4]	; (405d30 <__malloc_unlock+0x8>)
  405d2a:	f7ff bb5f 	b.w	4053ec <__retarget_lock_release_recursive>
  405d2e:	bf00      	nop
  405d30:	20440b3c 	.word	0x20440b3c

00405d34 <_realloc_r>:
  405d34:	2900      	cmp	r1, #0
  405d36:	f000 8095 	beq.w	405e64 <_realloc_r+0x130>
  405d3a:	e92d 4ff0 	stmdb	sp!, {r4, r5, r6, r7, r8, r9, sl, fp, lr}
  405d3e:	460d      	mov	r5, r1
  405d40:	4616      	mov	r6, r2
  405d42:	b083      	sub	sp, #12
  405d44:	4680      	mov	r8, r0
  405d46:	f106 070b 	add.w	r7, r6, #11
  405d4a:	f7ff ffe7 	bl	405d1c <__malloc_lock>
  405d4e:	f855 ec04 	ldr.w	lr, [r5, #-4]
  405d52:	2f16      	cmp	r7, #22
  405d54:	f02e 0403 	bic.w	r4, lr, #3
  405d58:	f1a5 0908 	sub.w	r9, r5, #8
  405d5c:	d83c      	bhi.n	405dd8 <_realloc_r+0xa4>
  405d5e:	2210      	movs	r2, #16
  405d60:	4617      	mov	r7, r2
  405d62:	42be      	cmp	r6, r7
  405d64:	d83d      	bhi.n	405de2 <_realloc_r+0xae>
  405d66:	4294      	cmp	r4, r2
  405d68:	da43      	bge.n	405df2 <_realloc_r+0xbe>
  405d6a:	4bc4      	ldr	r3, [pc, #784]	; (40607c <_realloc_r+0x348>)
  405d6c:	6899      	ldr	r1, [r3, #8]
  405d6e:	eb09 0004 	add.w	r0, r9, r4
  405d72:	4288      	cmp	r0, r1
  405d74:	f000 80b4 	beq.w	405ee0 <_realloc_r+0x1ac>
  405d78:	6843      	ldr	r3, [r0, #4]
  405d7a:	f023 0101 	bic.w	r1, r3, #1
  405d7e:	4401      	add	r1, r0
  405d80:	6849      	ldr	r1, [r1, #4]
  405d82:	07c9      	lsls	r1, r1, #31
  405d84:	d54c      	bpl.n	405e20 <_realloc_r+0xec>
  405d86:	f01e 0f01 	tst.w	lr, #1
  405d8a:	f000 809b 	beq.w	405ec4 <_realloc_r+0x190>
  405d8e:	4631      	mov	r1, r6
  405d90:	4640      	mov	r0, r8
  405d92:	f7ff fbad 	bl	4054f0 <_malloc_r>
  405d96:	4606      	mov	r6, r0
  405d98:	2800      	cmp	r0, #0
  405d9a:	d03a      	beq.n	405e12 <_realloc_r+0xde>
  405d9c:	f855 3c04 	ldr.w	r3, [r5, #-4]
  405da0:	f023 0301 	bic.w	r3, r3, #1
  405da4:	444b      	add	r3, r9
  405da6:	f1a0 0208 	sub.w	r2, r0, #8
  405daa:	429a      	cmp	r2, r3
  405dac:	f000 8121 	beq.w	405ff2 <_realloc_r+0x2be>
  405db0:	1f22      	subs	r2, r4, #4
  405db2:	2a24      	cmp	r2, #36	; 0x24
  405db4:	f200 8107 	bhi.w	405fc6 <_realloc_r+0x292>
  405db8:	2a13      	cmp	r2, #19
  405dba:	f200 80db 	bhi.w	405f74 <_realloc_r+0x240>
  405dbe:	4603      	mov	r3, r0
  405dc0:	462a      	mov	r2, r5
  405dc2:	6811      	ldr	r1, [r2, #0]
  405dc4:	6019      	str	r1, [r3, #0]
  405dc6:	6851      	ldr	r1, [r2, #4]
  405dc8:	6059      	str	r1, [r3, #4]
  405dca:	6892      	ldr	r2, [r2, #8]
  405dcc:	609a      	str	r2, [r3, #8]
  405dce:	4629      	mov	r1, r5
  405dd0:	4640      	mov	r0, r8
  405dd2:	f7ff f86f 	bl	404eb4 <_free_r>
  405dd6:	e01c      	b.n	405e12 <_realloc_r+0xde>
  405dd8:	f027 0707 	bic.w	r7, r7, #7
  405ddc:	2f00      	cmp	r7, #0
  405dde:	463a      	mov	r2, r7
  405de0:	dabf      	bge.n	405d62 <_realloc_r+0x2e>
  405de2:	2600      	movs	r6, #0
  405de4:	230c      	movs	r3, #12
  405de6:	4630      	mov	r0, r6
  405de8:	f8c8 3000 	str.w	r3, [r8]
  405dec:	b003      	add	sp, #12
  405dee:	e8bd 8ff0 	ldmia.w	sp!, {r4, r5, r6, r7, r8, r9, sl, fp, pc}
  405df2:	462e      	mov	r6, r5
  405df4:	1be3      	subs	r3, r4, r7
  405df6:	2b0f      	cmp	r3, #15
  405df8:	d81e      	bhi.n	405e38 <_realloc_r+0x104>
  405dfa:	f8d9 3004 	ldr.w	r3, [r9, #4]
  405dfe:	f003 0301 	and.w	r3, r3, #1
  405e02:	4323      	orrs	r3, r4
  405e04:	444c      	add	r4, r9
  405e06:	f8c9 3004 	str.w	r3, [r9, #4]
  405e0a:	6863      	ldr	r3, [r4, #4]
  405e0c:	f043 0301 	orr.w	r3, r3, #1
  405e10:	6063      	str	r3, [r4, #4]
  405e12:	4640      	mov	r0, r8
  405e14:	f7ff ff88 	bl	405d28 <__malloc_unlock>
  405e18:	4630      	mov	r0, r6
  405e1a:	b003      	add	sp, #12
  405e1c:	e8bd 8ff0 	ldmia.w	sp!, {r4, r5, r6, r7, r8, r9, sl, fp, pc}
  405e20:	f023 0303 	bic.w	r3, r3, #3
  405e24:	18e1      	adds	r1, r4, r3
  405e26:	4291      	cmp	r1, r2
  405e28:	db1f      	blt.n	405e6a <_realloc_r+0x136>
  405e2a:	68c3      	ldr	r3, [r0, #12]
  405e2c:	6882      	ldr	r2, [r0, #8]
  405e2e:	462e      	mov	r6, r5
  405e30:	60d3      	str	r3, [r2, #12]
  405e32:	460c      	mov	r4, r1
  405e34:	609a      	str	r2, [r3, #8]
  405e36:	e7dd      	b.n	405df4 <_realloc_r+0xc0>
  405e38:	f8d9 2004 	ldr.w	r2, [r9, #4]
  405e3c:	eb09 0107 	add.w	r1, r9, r7
  405e40:	f002 0201 	and.w	r2, r2, #1
  405e44:	444c      	add	r4, r9
  405e46:	f043 0301 	orr.w	r3, r3, #1
  405e4a:	4317      	orrs	r7, r2
  405e4c:	f8c9 7004 	str.w	r7, [r9, #4]
  405e50:	604b      	str	r3, [r1, #4]
  405e52:	6863      	ldr	r3, [r4, #4]
  405e54:	f043 0301 	orr.w	r3, r3, #1
  405e58:	3108      	adds	r1, #8
  405e5a:	6063      	str	r3, [r4, #4]
  405e5c:	4640      	mov	r0, r8
  405e5e:	f7ff f829 	bl	404eb4 <_free_r>
  405e62:	e7d6      	b.n	405e12 <_realloc_r+0xde>
  405e64:	4611      	mov	r1, r2
  405e66:	f7ff bb43 	b.w	4054f0 <_malloc_r>
  405e6a:	f01e 0f01 	tst.w	lr, #1
  405e6e:	d18e      	bne.n	405d8e <_realloc_r+0x5a>
  405e70:	f855 1c08 	ldr.w	r1, [r5, #-8]
  405e74:	eba9 0a01 	sub.w	sl, r9, r1
  405e78:	f8da 1004 	ldr.w	r1, [sl, #4]
  405e7c:	f021 0103 	bic.w	r1, r1, #3
  405e80:	440b      	add	r3, r1
  405e82:	4423      	add	r3, r4
  405e84:	4293      	cmp	r3, r2
  405e86:	db25      	blt.n	405ed4 <_realloc_r+0x1a0>
  405e88:	68c2      	ldr	r2, [r0, #12]
  405e8a:	6881      	ldr	r1, [r0, #8]
  405e8c:	4656      	mov	r6, sl
  405e8e:	60ca      	str	r2, [r1, #12]
  405e90:	6091      	str	r1, [r2, #8]
  405e92:	f8da 100c 	ldr.w	r1, [sl, #12]
  405e96:	f856 0f08 	ldr.w	r0, [r6, #8]!
  405e9a:	1f22      	subs	r2, r4, #4
  405e9c:	2a24      	cmp	r2, #36	; 0x24
  405e9e:	60c1      	str	r1, [r0, #12]
  405ea0:	6088      	str	r0, [r1, #8]
  405ea2:	f200 8094 	bhi.w	405fce <_realloc_r+0x29a>
  405ea6:	2a13      	cmp	r2, #19
  405ea8:	d96f      	bls.n	405f8a <_realloc_r+0x256>
  405eaa:	6829      	ldr	r1, [r5, #0]
  405eac:	f8ca 1008 	str.w	r1, [sl, #8]
  405eb0:	6869      	ldr	r1, [r5, #4]
  405eb2:	f8ca 100c 	str.w	r1, [sl, #12]
  405eb6:	2a1b      	cmp	r2, #27
  405eb8:	f200 80a2 	bhi.w	406000 <_realloc_r+0x2cc>
  405ebc:	3508      	adds	r5, #8
  405ebe:	f10a 0210 	add.w	r2, sl, #16
  405ec2:	e063      	b.n	405f8c <_realloc_r+0x258>
  405ec4:	f855 3c08 	ldr.w	r3, [r5, #-8]
  405ec8:	eba9 0a03 	sub.w	sl, r9, r3
  405ecc:	f8da 1004 	ldr.w	r1, [sl, #4]
  405ed0:	f021 0103 	bic.w	r1, r1, #3
  405ed4:	1863      	adds	r3, r4, r1
  405ed6:	4293      	cmp	r3, r2
  405ed8:	f6ff af59 	blt.w	405d8e <_realloc_r+0x5a>
  405edc:	4656      	mov	r6, sl
  405ede:	e7d8      	b.n	405e92 <_realloc_r+0x15e>
  405ee0:	6841      	ldr	r1, [r0, #4]
  405ee2:	f021 0b03 	bic.w	fp, r1, #3
  405ee6:	44a3      	add	fp, r4
  405ee8:	f107 0010 	add.w	r0, r7, #16
  405eec:	4583      	cmp	fp, r0
  405eee:	da56      	bge.n	405f9e <_realloc_r+0x26a>
  405ef0:	f01e 0f01 	tst.w	lr, #1
  405ef4:	f47f af4b 	bne.w	405d8e <_realloc_r+0x5a>
  405ef8:	f855 1c08 	ldr.w	r1, [r5, #-8]
  405efc:	eba9 0a01 	sub.w	sl, r9, r1
  405f00:	f8da 1004 	ldr.w	r1, [sl, #4]
  405f04:	f021 0103 	bic.w	r1, r1, #3
  405f08:	448b      	add	fp, r1
  405f0a:	4558      	cmp	r0, fp
  405f0c:	dce2      	bgt.n	405ed4 <_realloc_r+0x1a0>
  405f0e:	4656      	mov	r6, sl
  405f10:	f8da 100c 	ldr.w	r1, [sl, #12]
  405f14:	f856 0f08 	ldr.w	r0, [r6, #8]!
  405f18:	1f22      	subs	r2, r4, #4
  405f1a:	2a24      	cmp	r2, #36	; 0x24
  405f1c:	60c1      	str	r1, [r0, #12]
  405f1e:	6088      	str	r0, [r1, #8]
  405f20:	f200 808f 	bhi.w	406042 <_realloc_r+0x30e>
  405f24:	2a13      	cmp	r2, #19
  405f26:	f240 808a 	bls.w	40603e <_realloc_r+0x30a>
  405f2a:	6829      	ldr	r1, [r5, #0]
  405f2c:	f8ca 1008 	str.w	r1, [sl, #8]
  405f30:	6869      	ldr	r1, [r5, #4]
  405f32:	f8ca 100c 	str.w	r1, [sl, #12]
  405f36:	2a1b      	cmp	r2, #27
  405f38:	f200 808a 	bhi.w	406050 <_realloc_r+0x31c>
  405f3c:	3508      	adds	r5, #8
  405f3e:	f10a 0210 	add.w	r2, sl, #16
  405f42:	6829      	ldr	r1, [r5, #0]
  405f44:	6011      	str	r1, [r2, #0]
  405f46:	6869      	ldr	r1, [r5, #4]
  405f48:	6051      	str	r1, [r2, #4]
  405f4a:	68a9      	ldr	r1, [r5, #8]
  405f4c:	6091      	str	r1, [r2, #8]
  405f4e:	eb0a 0107 	add.w	r1, sl, r7
  405f52:	ebab 0207 	sub.w	r2, fp, r7
  405f56:	f042 0201 	orr.w	r2, r2, #1
  405f5a:	6099      	str	r1, [r3, #8]
  405f5c:	604a      	str	r2, [r1, #4]
  405f5e:	f8da 3004 	ldr.w	r3, [sl, #4]
  405f62:	f003 0301 	and.w	r3, r3, #1
  405f66:	431f      	orrs	r7, r3
  405f68:	4640      	mov	r0, r8
  405f6a:	f8ca 7004 	str.w	r7, [sl, #4]
  405f6e:	f7ff fedb 	bl	405d28 <__malloc_unlock>
  405f72:	e751      	b.n	405e18 <_realloc_r+0xe4>
  405f74:	682b      	ldr	r3, [r5, #0]
  405f76:	6003      	str	r3, [r0, #0]
  405f78:	686b      	ldr	r3, [r5, #4]
  405f7a:	6043      	str	r3, [r0, #4]
  405f7c:	2a1b      	cmp	r2, #27
  405f7e:	d82d      	bhi.n	405fdc <_realloc_r+0x2a8>
  405f80:	f100 0308 	add.w	r3, r0, #8
  405f84:	f105 0208 	add.w	r2, r5, #8
  405f88:	e71b      	b.n	405dc2 <_realloc_r+0x8e>
  405f8a:	4632      	mov	r2, r6
  405f8c:	6829      	ldr	r1, [r5, #0]
  405f8e:	6011      	str	r1, [r2, #0]
  405f90:	6869      	ldr	r1, [r5, #4]
  405f92:	6051      	str	r1, [r2, #4]
  405f94:	68a9      	ldr	r1, [r5, #8]
  405f96:	6091      	str	r1, [r2, #8]
  405f98:	461c      	mov	r4, r3
  405f9a:	46d1      	mov	r9, sl
  405f9c:	e72a      	b.n	405df4 <_realloc_r+0xc0>
  405f9e:	eb09 0107 	add.w	r1, r9, r7
  405fa2:	ebab 0b07 	sub.w	fp, fp, r7
  405fa6:	f04b 0201 	orr.w	r2, fp, #1
  405faa:	6099      	str	r1, [r3, #8]
  405fac:	604a      	str	r2, [r1, #4]
  405fae:	f855 3c04 	ldr.w	r3, [r5, #-4]
  405fb2:	f003 0301 	and.w	r3, r3, #1
  405fb6:	431f      	orrs	r7, r3
  405fb8:	4640      	mov	r0, r8
  405fba:	f845 7c04 	str.w	r7, [r5, #-4]
  405fbe:	f7ff feb3 	bl	405d28 <__malloc_unlock>
  405fc2:	462e      	mov	r6, r5
  405fc4:	e728      	b.n	405e18 <_realloc_r+0xe4>
  405fc6:	4629      	mov	r1, r5
  405fc8:	f7ff fe44 	bl	405c54 <memmove>
  405fcc:	e6ff      	b.n	405dce <_realloc_r+0x9a>
  405fce:	4629      	mov	r1, r5
  405fd0:	4630      	mov	r0, r6
  405fd2:	461c      	mov	r4, r3
  405fd4:	46d1      	mov	r9, sl
  405fd6:	f7ff fe3d 	bl	405c54 <memmove>
  405fda:	e70b      	b.n	405df4 <_realloc_r+0xc0>
  405fdc:	68ab      	ldr	r3, [r5, #8]
  405fde:	6083      	str	r3, [r0, #8]
  405fe0:	68eb      	ldr	r3, [r5, #12]
  405fe2:	60c3      	str	r3, [r0, #12]
  405fe4:	2a24      	cmp	r2, #36	; 0x24
  405fe6:	d017      	beq.n	406018 <_realloc_r+0x2e4>
  405fe8:	f100 0310 	add.w	r3, r0, #16
  405fec:	f105 0210 	add.w	r2, r5, #16
  405ff0:	e6e7      	b.n	405dc2 <_realloc_r+0x8e>
  405ff2:	f850 3c04 	ldr.w	r3, [r0, #-4]
  405ff6:	f023 0303 	bic.w	r3, r3, #3
  405ffa:	441c      	add	r4, r3
  405ffc:	462e      	mov	r6, r5
  405ffe:	e6f9      	b.n	405df4 <_realloc_r+0xc0>
  406000:	68a9      	ldr	r1, [r5, #8]
  406002:	f8ca 1010 	str.w	r1, [sl, #16]
  406006:	68e9      	ldr	r1, [r5, #12]
  406008:	f8ca 1014 	str.w	r1, [sl, #20]
  40600c:	2a24      	cmp	r2, #36	; 0x24
  40600e:	d00c      	beq.n	40602a <_realloc_r+0x2f6>
  406010:	3510      	adds	r5, #16
  406012:	f10a 0218 	add.w	r2, sl, #24
  406016:	e7b9      	b.n	405f8c <_realloc_r+0x258>
  406018:	692b      	ldr	r3, [r5, #16]
  40601a:	6103      	str	r3, [r0, #16]
  40601c:	696b      	ldr	r3, [r5, #20]
  40601e:	6143      	str	r3, [r0, #20]
  406020:	f105 0218 	add.w	r2, r5, #24
  406024:	f100 0318 	add.w	r3, r0, #24
  406028:	e6cb      	b.n	405dc2 <_realloc_r+0x8e>
  40602a:	692a      	ldr	r2, [r5, #16]
  40602c:	f8ca 2018 	str.w	r2, [sl, #24]
  406030:	696a      	ldr	r2, [r5, #20]
  406032:	f8ca 201c 	str.w	r2, [sl, #28]
  406036:	3518      	adds	r5, #24
  406038:	f10a 0220 	add.w	r2, sl, #32
  40603c:	e7a6      	b.n	405f8c <_realloc_r+0x258>
  40603e:	4632      	mov	r2, r6
  406040:	e77f      	b.n	405f42 <_realloc_r+0x20e>
  406042:	4629      	mov	r1, r5
  406044:	4630      	mov	r0, r6
  406046:	9301      	str	r3, [sp, #4]
  406048:	f7ff fe04 	bl	405c54 <memmove>
  40604c:	9b01      	ldr	r3, [sp, #4]
  40604e:	e77e      	b.n	405f4e <_realloc_r+0x21a>
  406050:	68a9      	ldr	r1, [r5, #8]
  406052:	f8ca 1010 	str.w	r1, [sl, #16]
  406056:	68e9      	ldr	r1, [r5, #12]
  406058:	f8ca 1014 	str.w	r1, [sl, #20]
  40605c:	2a24      	cmp	r2, #36	; 0x24
  40605e:	d003      	beq.n	406068 <_realloc_r+0x334>
  406060:	3510      	adds	r5, #16
  406062:	f10a 0218 	add.w	r2, sl, #24
  406066:	e76c      	b.n	405f42 <_realloc_r+0x20e>
  406068:	692a      	ldr	r2, [r5, #16]
  40606a:	f8ca 2018 	str.w	r2, [sl, #24]
  40606e:	696a      	ldr	r2, [r5, #20]
  406070:	f8ca 201c 	str.w	r2, [sl, #28]
  406074:	3518      	adds	r5, #24
  406076:	f10a 0220 	add.w	r2, sl, #32
  40607a:	e762      	b.n	405f42 <_realloc_r+0x20e>
  40607c:	204005b8 	.word	0x204005b8

00406080 <_sbrk_r>:
  406080:	b538      	push	{r3, r4, r5, lr}
  406082:	4c07      	ldr	r4, [pc, #28]	; (4060a0 <_sbrk_r+0x20>)
  406084:	2300      	movs	r3, #0
  406086:	4605      	mov	r5, r0
  406088:	4608      	mov	r0, r1
  40608a:	6023      	str	r3, [r4, #0]
  40608c:	f7fc fc84 	bl	402998 <_sbrk>
  406090:	1c43      	adds	r3, r0, #1
  406092:	d000      	beq.n	406096 <_sbrk_r+0x16>
  406094:	bd38      	pop	{r3, r4, r5, pc}
  406096:	6823      	ldr	r3, [r4, #0]
  406098:	2b00      	cmp	r3, #0
  40609a:	d0fb      	beq.n	406094 <_sbrk_r+0x14>
  40609c:	602b      	str	r3, [r5, #0]
  40609e:	bd38      	pop	{r3, r4, r5, pc}
  4060a0:	20440b50 	.word	0x20440b50

004060a4 <__sread>:
  4060a4:	b510      	push	{r4, lr}
  4060a6:	460c      	mov	r4, r1
  4060a8:	f9b1 100e 	ldrsh.w	r1, [r1, #14]
  4060ac:	f000 fa6e 	bl	40658c <_read_r>
  4060b0:	2800      	cmp	r0, #0
  4060b2:	db03      	blt.n	4060bc <__sread+0x18>
  4060b4:	6d23      	ldr	r3, [r4, #80]	; 0x50
  4060b6:	4403      	add	r3, r0
  4060b8:	6523      	str	r3, [r4, #80]	; 0x50
  4060ba:	bd10      	pop	{r4, pc}
  4060bc:	89a3      	ldrh	r3, [r4, #12]
  4060be:	f423 5380 	bic.w	r3, r3, #4096	; 0x1000
  4060c2:	81a3      	strh	r3, [r4, #12]
  4060c4:	bd10      	pop	{r4, pc}
  4060c6:	bf00      	nop

004060c8 <__swrite>:
  4060c8:	e92d 41f0 	stmdb	sp!, {r4, r5, r6, r7, r8, lr}
  4060cc:	4616      	mov	r6, r2
  4060ce:	f9b1 200c 	ldrsh.w	r2, [r1, #12]
  4060d2:	461f      	mov	r7, r3
  4060d4:	05d3      	lsls	r3, r2, #23
  4060d6:	460c      	mov	r4, r1
  4060d8:	4605      	mov	r5, r0
  4060da:	d507      	bpl.n	4060ec <__swrite+0x24>
  4060dc:	2200      	movs	r2, #0
  4060de:	2302      	movs	r3, #2
  4060e0:	f9b1 100e 	ldrsh.w	r1, [r1, #14]
  4060e4:	f000 fa3c 	bl	406560 <_lseek_r>
  4060e8:	f9b4 200c 	ldrsh.w	r2, [r4, #12]
  4060ec:	f9b4 100e 	ldrsh.w	r1, [r4, #14]
  4060f0:	f422 5280 	bic.w	r2, r2, #4096	; 0x1000
  4060f4:	81a2      	strh	r2, [r4, #12]
  4060f6:	463b      	mov	r3, r7
  4060f8:	4632      	mov	r2, r6
  4060fa:	4628      	mov	r0, r5
  4060fc:	e8bd 41f0 	ldmia.w	sp!, {r4, r5, r6, r7, r8, lr}
  406100:	f000 b91c 	b.w	40633c <_write_r>

00406104 <__sseek>:
  406104:	b510      	push	{r4, lr}
  406106:	460c      	mov	r4, r1
  406108:	f9b1 100e 	ldrsh.w	r1, [r1, #14]
  40610c:	f000 fa28 	bl	406560 <_lseek_r>
  406110:	89a3      	ldrh	r3, [r4, #12]
  406112:	1c42      	adds	r2, r0, #1
  406114:	bf0e      	itee	eq
  406116:	f423 5380 	biceq.w	r3, r3, #4096	; 0x1000
  40611a:	f443 5380 	orrne.w	r3, r3, #4096	; 0x1000
  40611e:	6520      	strne	r0, [r4, #80]	; 0x50
  406120:	81a3      	strh	r3, [r4, #12]
  406122:	bd10      	pop	{r4, pc}

00406124 <__sclose>:
  406124:	f9b1 100e 	ldrsh.w	r1, [r1, #14]
  406128:	f000 b980 	b.w	40642c <_close_r>
	...

00406140 <strlen>:
  406140:	f890 f000 	pld	[r0]
  406144:	e96d 4502 	strd	r4, r5, [sp, #-8]!
  406148:	f020 0107 	bic.w	r1, r0, #7
  40614c:	f06f 0c00 	mvn.w	ip, #0
  406150:	f010 0407 	ands.w	r4, r0, #7
  406154:	f891 f020 	pld	[r1, #32]
  406158:	f040 8049 	bne.w	4061ee <strlen+0xae>
  40615c:	f04f 0400 	mov.w	r4, #0
  406160:	f06f 0007 	mvn.w	r0, #7
  406164:	e9d1 2300 	ldrd	r2, r3, [r1]
  406168:	f891 f040 	pld	[r1, #64]	; 0x40
  40616c:	f100 0008 	add.w	r0, r0, #8
  406170:	fa82 f24c 	uadd8	r2, r2, ip
  406174:	faa4 f28c 	sel	r2, r4, ip
  406178:	fa83 f34c 	uadd8	r3, r3, ip
  40617c:	faa2 f38c 	sel	r3, r2, ip
  406180:	bb4b      	cbnz	r3, 4061d6 <strlen+0x96>
  406182:	e9d1 2302 	ldrd	r2, r3, [r1, #8]
  406186:	fa82 f24c 	uadd8	r2, r2, ip
  40618a:	f100 0008 	add.w	r0, r0, #8
  40618e:	faa4 f28c 	sel	r2, r4, ip
  406192:	fa83 f34c 	uadd8	r3, r3, ip
  406196:	faa2 f38c 	sel	r3, r2, ip
  40619a:	b9e3      	cbnz	r3, 4061d6 <strlen+0x96>
  40619c:	e9d1 2304 	ldrd	r2, r3, [r1, #16]
  4061a0:	fa82 f24c 	uadd8	r2, r2, ip
  4061a4:	f100 0008 	add.w	r0, r0, #8
  4061a8:	faa4 f28c 	sel	r2, r4, ip
  4061ac:	fa83 f34c 	uadd8	r3, r3, ip
  4061b0:	faa2 f38c 	sel	r3, r2, ip
  4061b4:	b97b      	cbnz	r3, 4061d6 <strlen+0x96>
  4061b6:	e9d1 2306 	ldrd	r2, r3, [r1, #24]
  4061ba:	f101 0120 	add.w	r1, r1, #32
  4061be:	fa82 f24c 	uadd8	r2, r2, ip
  4061c2:	f100 0008 	add.w	r0, r0, #8
  4061c6:	faa4 f28c 	sel	r2, r4, ip
  4061ca:	fa83 f34c 	uadd8	r3, r3, ip
  4061ce:	faa2 f38c 	sel	r3, r2, ip
  4061d2:	2b00      	cmp	r3, #0
  4061d4:	d0c6      	beq.n	406164 <strlen+0x24>
  4061d6:	2a00      	cmp	r2, #0
  4061d8:	bf04      	itt	eq
  4061da:	3004      	addeq	r0, #4
  4061dc:	461a      	moveq	r2, r3
  4061de:	ba12      	rev	r2, r2
  4061e0:	fab2 f282 	clz	r2, r2
  4061e4:	e8fd 4502 	ldrd	r4, r5, [sp], #8
  4061e8:	eb00 00d2 	add.w	r0, r0, r2, lsr #3
  4061ec:	4770      	bx	lr
  4061ee:	e9d1 2300 	ldrd	r2, r3, [r1]
  4061f2:	f004 0503 	and.w	r5, r4, #3
  4061f6:	f1c4 0000 	rsb	r0, r4, #0
  4061fa:	ea4f 05c5 	mov.w	r5, r5, lsl #3
  4061fe:	f014 0f04 	tst.w	r4, #4
  406202:	f891 f040 	pld	[r1, #64]	; 0x40
  406206:	fa0c f505 	lsl.w	r5, ip, r5
  40620a:	ea62 0205 	orn	r2, r2, r5
  40620e:	bf1c      	itt	ne
  406210:	ea63 0305 	ornne	r3, r3, r5
  406214:	4662      	movne	r2, ip
  406216:	f04f 0400 	mov.w	r4, #0
  40621a:	e7a9      	b.n	406170 <strlen+0x30>

0040621c <__swbuf_r>:
  40621c:	b5f8      	push	{r3, r4, r5, r6, r7, lr}
  40621e:	460d      	mov	r5, r1
  406220:	4614      	mov	r4, r2
  406222:	4606      	mov	r6, r0
  406224:	b110      	cbz	r0, 40622c <__swbuf_r+0x10>
  406226:	6b83      	ldr	r3, [r0, #56]	; 0x38
  406228:	2b00      	cmp	r3, #0
  40622a:	d04b      	beq.n	4062c4 <__swbuf_r+0xa8>
  40622c:	f9b4 200c 	ldrsh.w	r2, [r4, #12]
  406230:	69a3      	ldr	r3, [r4, #24]
  406232:	60a3      	str	r3, [r4, #8]
  406234:	b291      	uxth	r1, r2
  406236:	0708      	lsls	r0, r1, #28
  406238:	d539      	bpl.n	4062ae <__swbuf_r+0x92>
  40623a:	6923      	ldr	r3, [r4, #16]
  40623c:	2b00      	cmp	r3, #0
  40623e:	d036      	beq.n	4062ae <__swbuf_r+0x92>
  406240:	b2ed      	uxtb	r5, r5
  406242:	0489      	lsls	r1, r1, #18
  406244:	462f      	mov	r7, r5
  406246:	d515      	bpl.n	406274 <__swbuf_r+0x58>
  406248:	6822      	ldr	r2, [r4, #0]
  40624a:	6961      	ldr	r1, [r4, #20]
  40624c:	1ad3      	subs	r3, r2, r3
  40624e:	428b      	cmp	r3, r1
  406250:	da1c      	bge.n	40628c <__swbuf_r+0x70>
  406252:	3301      	adds	r3, #1
  406254:	68a1      	ldr	r1, [r4, #8]
  406256:	1c50      	adds	r0, r2, #1
  406258:	3901      	subs	r1, #1
  40625a:	60a1      	str	r1, [r4, #8]
  40625c:	6020      	str	r0, [r4, #0]
  40625e:	7015      	strb	r5, [r2, #0]
  406260:	6962      	ldr	r2, [r4, #20]
  406262:	429a      	cmp	r2, r3
  406264:	d01a      	beq.n	40629c <__swbuf_r+0x80>
  406266:	89a3      	ldrh	r3, [r4, #12]
  406268:	07db      	lsls	r3, r3, #31
  40626a:	d501      	bpl.n	406270 <__swbuf_r+0x54>
  40626c:	2d0a      	cmp	r5, #10
  40626e:	d015      	beq.n	40629c <__swbuf_r+0x80>
  406270:	4638      	mov	r0, r7
  406272:	bdf8      	pop	{r3, r4, r5, r6, r7, pc}
  406274:	6e61      	ldr	r1, [r4, #100]	; 0x64
  406276:	f442 5200 	orr.w	r2, r2, #8192	; 0x2000
  40627a:	f421 5100 	bic.w	r1, r1, #8192	; 0x2000
  40627e:	81a2      	strh	r2, [r4, #12]
  406280:	6822      	ldr	r2, [r4, #0]
  406282:	6661      	str	r1, [r4, #100]	; 0x64
  406284:	6961      	ldr	r1, [r4, #20]
  406286:	1ad3      	subs	r3, r2, r3
  406288:	428b      	cmp	r3, r1
  40628a:	dbe2      	blt.n	406252 <__swbuf_r+0x36>
  40628c:	4621      	mov	r1, r4
  40628e:	4630      	mov	r0, r6
  406290:	f7fe fc92 	bl	404bb8 <_fflush_r>
  406294:	b940      	cbnz	r0, 4062a8 <__swbuf_r+0x8c>
  406296:	6822      	ldr	r2, [r4, #0]
  406298:	2301      	movs	r3, #1
  40629a:	e7db      	b.n	406254 <__swbuf_r+0x38>
  40629c:	4621      	mov	r1, r4
  40629e:	4630      	mov	r0, r6
  4062a0:	f7fe fc8a 	bl	404bb8 <_fflush_r>
  4062a4:	2800      	cmp	r0, #0
  4062a6:	d0e3      	beq.n	406270 <__swbuf_r+0x54>
  4062a8:	f04f 37ff 	mov.w	r7, #4294967295
  4062ac:	e7e0      	b.n	406270 <__swbuf_r+0x54>
  4062ae:	4621      	mov	r1, r4
  4062b0:	4630      	mov	r0, r6
  4062b2:	f7fe fb6d 	bl	404990 <__swsetup_r>
  4062b6:	2800      	cmp	r0, #0
  4062b8:	d1f6      	bne.n	4062a8 <__swbuf_r+0x8c>
  4062ba:	f9b4 200c 	ldrsh.w	r2, [r4, #12]
  4062be:	6923      	ldr	r3, [r4, #16]
  4062c0:	b291      	uxth	r1, r2
  4062c2:	e7bd      	b.n	406240 <__swbuf_r+0x24>
  4062c4:	f7fe fcd0 	bl	404c68 <__sinit>
  4062c8:	e7b0      	b.n	40622c <__swbuf_r+0x10>
  4062ca:	bf00      	nop

004062cc <_wcrtomb_r>:
  4062cc:	b5f0      	push	{r4, r5, r6, r7, lr}
  4062ce:	4606      	mov	r6, r0
  4062d0:	b085      	sub	sp, #20
  4062d2:	461f      	mov	r7, r3
  4062d4:	b189      	cbz	r1, 4062fa <_wcrtomb_r+0x2e>
  4062d6:	4c10      	ldr	r4, [pc, #64]	; (406318 <_wcrtomb_r+0x4c>)
  4062d8:	4d10      	ldr	r5, [pc, #64]	; (40631c <_wcrtomb_r+0x50>)
  4062da:	6824      	ldr	r4, [r4, #0]
  4062dc:	6b64      	ldr	r4, [r4, #52]	; 0x34
  4062de:	2c00      	cmp	r4, #0
  4062e0:	bf08      	it	eq
  4062e2:	462c      	moveq	r4, r5
  4062e4:	f8d4 40e0 	ldr.w	r4, [r4, #224]	; 0xe0
  4062e8:	47a0      	blx	r4
  4062ea:	1c43      	adds	r3, r0, #1
  4062ec:	d103      	bne.n	4062f6 <_wcrtomb_r+0x2a>
  4062ee:	2200      	movs	r2, #0
  4062f0:	238a      	movs	r3, #138	; 0x8a
  4062f2:	603a      	str	r2, [r7, #0]
  4062f4:	6033      	str	r3, [r6, #0]
  4062f6:	b005      	add	sp, #20
  4062f8:	bdf0      	pop	{r4, r5, r6, r7, pc}
  4062fa:	460c      	mov	r4, r1
  4062fc:	4906      	ldr	r1, [pc, #24]	; (406318 <_wcrtomb_r+0x4c>)
  4062fe:	4a07      	ldr	r2, [pc, #28]	; (40631c <_wcrtomb_r+0x50>)
  406300:	6809      	ldr	r1, [r1, #0]
  406302:	6b49      	ldr	r1, [r1, #52]	; 0x34
  406304:	2900      	cmp	r1, #0
  406306:	bf08      	it	eq
  406308:	4611      	moveq	r1, r2
  40630a:	4622      	mov	r2, r4
  40630c:	f8d1 40e0 	ldr.w	r4, [r1, #224]	; 0xe0
  406310:	a901      	add	r1, sp, #4
  406312:	47a0      	blx	r4
  406314:	e7e9      	b.n	4062ea <_wcrtomb_r+0x1e>
  406316:	bf00      	nop
  406318:	2040001c 	.word	0x2040001c
  40631c:	2040044c 	.word	0x2040044c

00406320 <__ascii_wctomb>:
  406320:	b121      	cbz	r1, 40632c <__ascii_wctomb+0xc>
  406322:	2aff      	cmp	r2, #255	; 0xff
  406324:	d804      	bhi.n	406330 <__ascii_wctomb+0x10>
  406326:	700a      	strb	r2, [r1, #0]
  406328:	2001      	movs	r0, #1
  40632a:	4770      	bx	lr
  40632c:	4608      	mov	r0, r1
  40632e:	4770      	bx	lr
  406330:	238a      	movs	r3, #138	; 0x8a
  406332:	6003      	str	r3, [r0, #0]
  406334:	f04f 30ff 	mov.w	r0, #4294967295
  406338:	4770      	bx	lr
  40633a:	bf00      	nop

0040633c <_write_r>:
  40633c:	b570      	push	{r4, r5, r6, lr}
  40633e:	460d      	mov	r5, r1
  406340:	4c08      	ldr	r4, [pc, #32]	; (406364 <_write_r+0x28>)
  406342:	4611      	mov	r1, r2
  406344:	4606      	mov	r6, r0
  406346:	461a      	mov	r2, r3
  406348:	4628      	mov	r0, r5
  40634a:	2300      	movs	r3, #0
  40634c:	6023      	str	r3, [r4, #0]
  40634e:	f7fb fbf3 	bl	401b38 <_write>
  406352:	1c43      	adds	r3, r0, #1
  406354:	d000      	beq.n	406358 <_write_r+0x1c>
  406356:	bd70      	pop	{r4, r5, r6, pc}
  406358:	6823      	ldr	r3, [r4, #0]
  40635a:	2b00      	cmp	r3, #0
  40635c:	d0fb      	beq.n	406356 <_write_r+0x1a>
  40635e:	6033      	str	r3, [r6, #0]
  406360:	bd70      	pop	{r4, r5, r6, pc}
  406362:	bf00      	nop
  406364:	20440b50 	.word	0x20440b50

00406368 <__register_exitproc>:
  406368:	e92d 43f8 	stmdb	sp!, {r3, r4, r5, r6, r7, r8, r9, lr}
  40636c:	4d2c      	ldr	r5, [pc, #176]	; (406420 <__register_exitproc+0xb8>)
  40636e:	4606      	mov	r6, r0
  406370:	6828      	ldr	r0, [r5, #0]
  406372:	4698      	mov	r8, r3
  406374:	460f      	mov	r7, r1
  406376:	4691      	mov	r9, r2
  406378:	f7ff f836 	bl	4053e8 <__retarget_lock_acquire_recursive>
  40637c:	4b29      	ldr	r3, [pc, #164]	; (406424 <__register_exitproc+0xbc>)
  40637e:	681c      	ldr	r4, [r3, #0]
  406380:	f8d4 3148 	ldr.w	r3, [r4, #328]	; 0x148
  406384:	2b00      	cmp	r3, #0
  406386:	d03e      	beq.n	406406 <__register_exitproc+0x9e>
  406388:	685a      	ldr	r2, [r3, #4]
  40638a:	2a1f      	cmp	r2, #31
  40638c:	dc1c      	bgt.n	4063c8 <__register_exitproc+0x60>
  40638e:	f102 0e01 	add.w	lr, r2, #1
  406392:	b176      	cbz	r6, 4063b2 <__register_exitproc+0x4a>
  406394:	eb03 0182 	add.w	r1, r3, r2, lsl #2
  406398:	2401      	movs	r4, #1
  40639a:	f8c1 9088 	str.w	r9, [r1, #136]	; 0x88
  40639e:	f8d3 0188 	ldr.w	r0, [r3, #392]	; 0x188
  4063a2:	4094      	lsls	r4, r2
  4063a4:	4320      	orrs	r0, r4
  4063a6:	2e02      	cmp	r6, #2
  4063a8:	f8c3 0188 	str.w	r0, [r3, #392]	; 0x188
  4063ac:	f8c1 8108 	str.w	r8, [r1, #264]	; 0x108
  4063b0:	d023      	beq.n	4063fa <__register_exitproc+0x92>
  4063b2:	3202      	adds	r2, #2
  4063b4:	f8c3 e004 	str.w	lr, [r3, #4]
  4063b8:	6828      	ldr	r0, [r5, #0]
  4063ba:	f843 7022 	str.w	r7, [r3, r2, lsl #2]
  4063be:	f7ff f815 	bl	4053ec <__retarget_lock_release_recursive>
  4063c2:	2000      	movs	r0, #0
  4063c4:	e8bd 83f8 	ldmia.w	sp!, {r3, r4, r5, r6, r7, r8, r9, pc}
  4063c8:	4b17      	ldr	r3, [pc, #92]	; (406428 <__register_exitproc+0xc0>)
  4063ca:	b30b      	cbz	r3, 406410 <__register_exitproc+0xa8>
  4063cc:	f44f 70c8 	mov.w	r0, #400	; 0x190
  4063d0:	f7ff f886 	bl	4054e0 <malloc>
  4063d4:	4603      	mov	r3, r0
  4063d6:	b1d8      	cbz	r0, 406410 <__register_exitproc+0xa8>
  4063d8:	f8d4 2148 	ldr.w	r2, [r4, #328]	; 0x148
  4063dc:	6002      	str	r2, [r0, #0]
  4063de:	2100      	movs	r1, #0
  4063e0:	6041      	str	r1, [r0, #4]
  4063e2:	460a      	mov	r2, r1
  4063e4:	f8c4 0148 	str.w	r0, [r4, #328]	; 0x148
  4063e8:	f04f 0e01 	mov.w	lr, #1
  4063ec:	f8c0 1188 	str.w	r1, [r0, #392]	; 0x188
  4063f0:	f8c0 118c 	str.w	r1, [r0, #396]	; 0x18c
  4063f4:	2e00      	cmp	r6, #0
  4063f6:	d0dc      	beq.n	4063b2 <__register_exitproc+0x4a>
  4063f8:	e7cc      	b.n	406394 <__register_exitproc+0x2c>
  4063fa:	f8d3 118c 	ldr.w	r1, [r3, #396]	; 0x18c
  4063fe:	430c      	orrs	r4, r1
  406400:	f8c3 418c 	str.w	r4, [r3, #396]	; 0x18c
  406404:	e7d5      	b.n	4063b2 <__register_exitproc+0x4a>
  406406:	f504 73a6 	add.w	r3, r4, #332	; 0x14c
  40640a:	f8c4 3148 	str.w	r3, [r4, #328]	; 0x148
  40640e:	e7bb      	b.n	406388 <__register_exitproc+0x20>
  406410:	6828      	ldr	r0, [r5, #0]
  406412:	f7fe ffeb 	bl	4053ec <__retarget_lock_release_recursive>
  406416:	f04f 30ff 	mov.w	r0, #4294967295
  40641a:	e8bd 83f8 	ldmia.w	sp!, {r3, r4, r5, r6, r7, r8, r9, pc}
  40641e:	bf00      	nop
  406420:	20400448 	.word	0x20400448
  406424:	00411468 	.word	0x00411468
  406428:	004054e1 	.word	0x004054e1

0040642c <_close_r>:
  40642c:	b538      	push	{r3, r4, r5, lr}
  40642e:	4c07      	ldr	r4, [pc, #28]	; (40644c <_close_r+0x20>)
  406430:	2300      	movs	r3, #0
  406432:	4605      	mov	r5, r0
  406434:	4608      	mov	r0, r1
  406436:	6023      	str	r3, [r4, #0]
  406438:	f7fc faca 	bl	4029d0 <_close>
  40643c:	1c43      	adds	r3, r0, #1
  40643e:	d000      	beq.n	406442 <_close_r+0x16>
  406440:	bd38      	pop	{r3, r4, r5, pc}
  406442:	6823      	ldr	r3, [r4, #0]
  406444:	2b00      	cmp	r3, #0
  406446:	d0fb      	beq.n	406440 <_close_r+0x14>
  406448:	602b      	str	r3, [r5, #0]
  40644a:	bd38      	pop	{r3, r4, r5, pc}
  40644c:	20440b50 	.word	0x20440b50

00406450 <_fclose_r>:
  406450:	b570      	push	{r4, r5, r6, lr}
  406452:	b159      	cbz	r1, 40646c <_fclose_r+0x1c>
  406454:	4605      	mov	r5, r0
  406456:	460c      	mov	r4, r1
  406458:	b110      	cbz	r0, 406460 <_fclose_r+0x10>
  40645a:	6b83      	ldr	r3, [r0, #56]	; 0x38
  40645c:	2b00      	cmp	r3, #0
  40645e:	d03c      	beq.n	4064da <_fclose_r+0x8a>
  406460:	6e63      	ldr	r3, [r4, #100]	; 0x64
  406462:	07d8      	lsls	r0, r3, #31
  406464:	d505      	bpl.n	406472 <_fclose_r+0x22>
  406466:	f9b4 300c 	ldrsh.w	r3, [r4, #12]
  40646a:	b92b      	cbnz	r3, 406478 <_fclose_r+0x28>
  40646c:	2600      	movs	r6, #0
  40646e:	4630      	mov	r0, r6
  406470:	bd70      	pop	{r4, r5, r6, pc}
  406472:	89a3      	ldrh	r3, [r4, #12]
  406474:	0599      	lsls	r1, r3, #22
  406476:	d53c      	bpl.n	4064f2 <_fclose_r+0xa2>
  406478:	4621      	mov	r1, r4
  40647a:	4628      	mov	r0, r5
  40647c:	f7fe fafc 	bl	404a78 <__sflush_r>
  406480:	6ae3      	ldr	r3, [r4, #44]	; 0x2c
  406482:	4606      	mov	r6, r0
  406484:	b133      	cbz	r3, 406494 <_fclose_r+0x44>
  406486:	69e1      	ldr	r1, [r4, #28]
  406488:	4628      	mov	r0, r5
  40648a:	4798      	blx	r3
  40648c:	2800      	cmp	r0, #0
  40648e:	bfb8      	it	lt
  406490:	f04f 36ff 	movlt.w	r6, #4294967295
  406494:	89a3      	ldrh	r3, [r4, #12]
  406496:	061a      	lsls	r2, r3, #24
  406498:	d422      	bmi.n	4064e0 <_fclose_r+0x90>
  40649a:	6b21      	ldr	r1, [r4, #48]	; 0x30
  40649c:	b141      	cbz	r1, 4064b0 <_fclose_r+0x60>
  40649e:	f104 0340 	add.w	r3, r4, #64	; 0x40
  4064a2:	4299      	cmp	r1, r3
  4064a4:	d002      	beq.n	4064ac <_fclose_r+0x5c>
  4064a6:	4628      	mov	r0, r5
  4064a8:	f7fe fd04 	bl	404eb4 <_free_r>
  4064ac:	2300      	movs	r3, #0
  4064ae:	6323      	str	r3, [r4, #48]	; 0x30
  4064b0:	6c61      	ldr	r1, [r4, #68]	; 0x44
  4064b2:	b121      	cbz	r1, 4064be <_fclose_r+0x6e>
  4064b4:	4628      	mov	r0, r5
  4064b6:	f7fe fcfd 	bl	404eb4 <_free_r>
  4064ba:	2300      	movs	r3, #0
  4064bc:	6463      	str	r3, [r4, #68]	; 0x44
  4064be:	f7fe fbff 	bl	404cc0 <__sfp_lock_acquire>
  4064c2:	6e63      	ldr	r3, [r4, #100]	; 0x64
  4064c4:	2200      	movs	r2, #0
  4064c6:	07db      	lsls	r3, r3, #31
  4064c8:	81a2      	strh	r2, [r4, #12]
  4064ca:	d50e      	bpl.n	4064ea <_fclose_r+0x9a>
  4064cc:	6da0      	ldr	r0, [r4, #88]	; 0x58
  4064ce:	f7fe ff89 	bl	4053e4 <__retarget_lock_close_recursive>
  4064d2:	f7fe fbfb 	bl	404ccc <__sfp_lock_release>
  4064d6:	4630      	mov	r0, r6
  4064d8:	bd70      	pop	{r4, r5, r6, pc}
  4064da:	f7fe fbc5 	bl	404c68 <__sinit>
  4064de:	e7bf      	b.n	406460 <_fclose_r+0x10>
  4064e0:	6921      	ldr	r1, [r4, #16]
  4064e2:	4628      	mov	r0, r5
  4064e4:	f7fe fce6 	bl	404eb4 <_free_r>
  4064e8:	e7d7      	b.n	40649a <_fclose_r+0x4a>
  4064ea:	6da0      	ldr	r0, [r4, #88]	; 0x58
  4064ec:	f7fe ff7e 	bl	4053ec <__retarget_lock_release_recursive>
  4064f0:	e7ec      	b.n	4064cc <_fclose_r+0x7c>
  4064f2:	6da0      	ldr	r0, [r4, #88]	; 0x58
  4064f4:	f7fe ff78 	bl	4053e8 <__retarget_lock_acquire_recursive>
  4064f8:	f9b4 300c 	ldrsh.w	r3, [r4, #12]
  4064fc:	2b00      	cmp	r3, #0
  4064fe:	d1bb      	bne.n	406478 <_fclose_r+0x28>
  406500:	6e66      	ldr	r6, [r4, #100]	; 0x64
  406502:	f016 0601 	ands.w	r6, r6, #1
  406506:	d1b1      	bne.n	40646c <_fclose_r+0x1c>
  406508:	6da0      	ldr	r0, [r4, #88]	; 0x58
  40650a:	f7fe ff6f 	bl	4053ec <__retarget_lock_release_recursive>
  40650e:	4630      	mov	r0, r6
  406510:	bd70      	pop	{r4, r5, r6, pc}
  406512:	bf00      	nop

00406514 <_fstat_r>:
  406514:	b538      	push	{r3, r4, r5, lr}
  406516:	460b      	mov	r3, r1
  406518:	4c07      	ldr	r4, [pc, #28]	; (406538 <_fstat_r+0x24>)
  40651a:	4605      	mov	r5, r0
  40651c:	4611      	mov	r1, r2
  40651e:	4618      	mov	r0, r3
  406520:	2300      	movs	r3, #0
  406522:	6023      	str	r3, [r4, #0]
  406524:	f7fc fa57 	bl	4029d6 <_fstat>
  406528:	1c43      	adds	r3, r0, #1
  40652a:	d000      	beq.n	40652e <_fstat_r+0x1a>
  40652c:	bd38      	pop	{r3, r4, r5, pc}
  40652e:	6823      	ldr	r3, [r4, #0]
  406530:	2b00      	cmp	r3, #0
  406532:	d0fb      	beq.n	40652c <_fstat_r+0x18>
  406534:	602b      	str	r3, [r5, #0]
  406536:	bd38      	pop	{r3, r4, r5, pc}
  406538:	20440b50 	.word	0x20440b50

0040653c <_isatty_r>:
  40653c:	b538      	push	{r3, r4, r5, lr}
  40653e:	4c07      	ldr	r4, [pc, #28]	; (40655c <_isatty_r+0x20>)
  406540:	2300      	movs	r3, #0
  406542:	4605      	mov	r5, r0
  406544:	4608      	mov	r0, r1
  406546:	6023      	str	r3, [r4, #0]
  406548:	f7fc fa4a 	bl	4029e0 <_isatty>
  40654c:	1c43      	adds	r3, r0, #1
  40654e:	d000      	beq.n	406552 <_isatty_r+0x16>
  406550:	bd38      	pop	{r3, r4, r5, pc}
  406552:	6823      	ldr	r3, [r4, #0]
  406554:	2b00      	cmp	r3, #0
  406556:	d0fb      	beq.n	406550 <_isatty_r+0x14>
  406558:	602b      	str	r3, [r5, #0]
  40655a:	bd38      	pop	{r3, r4, r5, pc}
  40655c:	20440b50 	.word	0x20440b50

00406560 <_lseek_r>:
  406560:	b570      	push	{r4, r5, r6, lr}
  406562:	460d      	mov	r5, r1
  406564:	4c08      	ldr	r4, [pc, #32]	; (406588 <_lseek_r+0x28>)
  406566:	4611      	mov	r1, r2
  406568:	4606      	mov	r6, r0
  40656a:	461a      	mov	r2, r3
  40656c:	4628      	mov	r0, r5
  40656e:	2300      	movs	r3, #0
  406570:	6023      	str	r3, [r4, #0]
  406572:	f7fc fa37 	bl	4029e4 <_lseek>
  406576:	1c43      	adds	r3, r0, #1
  406578:	d000      	beq.n	40657c <_lseek_r+0x1c>
  40657a:	bd70      	pop	{r4, r5, r6, pc}
  40657c:	6823      	ldr	r3, [r4, #0]
  40657e:	2b00      	cmp	r3, #0
  406580:	d0fb      	beq.n	40657a <_lseek_r+0x1a>
  406582:	6033      	str	r3, [r6, #0]
  406584:	bd70      	pop	{r4, r5, r6, pc}
  406586:	bf00      	nop
  406588:	20440b50 	.word	0x20440b50

0040658c <_read_r>:
  40658c:	b570      	push	{r4, r5, r6, lr}
  40658e:	460d      	mov	r5, r1
  406590:	4c08      	ldr	r4, [pc, #32]	; (4065b4 <_read_r+0x28>)
  406592:	4611      	mov	r1, r2
  406594:	4606      	mov	r6, r0
  406596:	461a      	mov	r2, r3
  406598:	4628      	mov	r0, r5
  40659a:	2300      	movs	r3, #0
  40659c:	6023      	str	r3, [r4, #0]
  40659e:	f7fa fe37 	bl	401210 <_read>
  4065a2:	1c43      	adds	r3, r0, #1
  4065a4:	d000      	beq.n	4065a8 <_read_r+0x1c>
  4065a6:	bd70      	pop	{r4, r5, r6, pc}
  4065a8:	6823      	ldr	r3, [r4, #0]
  4065aa:	2b00      	cmp	r3, #0
  4065ac:	d0fb      	beq.n	4065a6 <_read_r+0x1a>
  4065ae:	6033      	str	r3, [r6, #0]
  4065b0:	bd70      	pop	{r4, r5, r6, pc}
  4065b2:	bf00      	nop
  4065b4:	20440b50 	.word	0x20440b50

004065b8 <__aeabi_uldivmod>:
  4065b8:	b953      	cbnz	r3, 4065d0 <__aeabi_uldivmod+0x18>
  4065ba:	b94a      	cbnz	r2, 4065d0 <__aeabi_uldivmod+0x18>
  4065bc:	2900      	cmp	r1, #0
  4065be:	bf08      	it	eq
  4065c0:	2800      	cmpeq	r0, #0
  4065c2:	bf1c      	itt	ne
  4065c4:	f04f 31ff 	movne.w	r1, #4294967295
  4065c8:	f04f 30ff 	movne.w	r0, #4294967295
  4065cc:	f000 b97a 	b.w	4068c4 <__aeabi_idiv0>
  4065d0:	f1ad 0c08 	sub.w	ip, sp, #8
  4065d4:	e96d ce04 	strd	ip, lr, [sp, #-16]!
  4065d8:	f000 f806 	bl	4065e8 <__udivmoddi4>
  4065dc:	f8dd e004 	ldr.w	lr, [sp, #4]
  4065e0:	e9dd 2302 	ldrd	r2, r3, [sp, #8]
  4065e4:	b004      	add	sp, #16
  4065e6:	4770      	bx	lr

004065e8 <__udivmoddi4>:
  4065e8:	e92d 47f0 	stmdb	sp!, {r4, r5, r6, r7, r8, r9, sl, lr}
  4065ec:	468c      	mov	ip, r1
  4065ee:	460d      	mov	r5, r1
  4065f0:	4604      	mov	r4, r0
  4065f2:	9e08      	ldr	r6, [sp, #32]
  4065f4:	2b00      	cmp	r3, #0
  4065f6:	d151      	bne.n	40669c <__udivmoddi4+0xb4>
  4065f8:	428a      	cmp	r2, r1
  4065fa:	4617      	mov	r7, r2
  4065fc:	d96d      	bls.n	4066da <__udivmoddi4+0xf2>
  4065fe:	fab2 fe82 	clz	lr, r2
  406602:	f1be 0f00 	cmp.w	lr, #0
  406606:	d00b      	beq.n	406620 <__udivmoddi4+0x38>
  406608:	f1ce 0c20 	rsb	ip, lr, #32
  40660c:	fa01 f50e 	lsl.w	r5, r1, lr
  406610:	fa20 fc0c 	lsr.w	ip, r0, ip
  406614:	fa02 f70e 	lsl.w	r7, r2, lr
  406618:	ea4c 0c05 	orr.w	ip, ip, r5
  40661c:	fa00 f40e 	lsl.w	r4, r0, lr
  406620:	ea4f 4a17 	mov.w	sl, r7, lsr #16
  406624:	0c25      	lsrs	r5, r4, #16
  406626:	fbbc f8fa 	udiv	r8, ip, sl
  40662a:	fa1f f987 	uxth.w	r9, r7
  40662e:	fb0a cc18 	mls	ip, sl, r8, ip
  406632:	ea45 450c 	orr.w	r5, r5, ip, lsl #16
  406636:	fb08 f309 	mul.w	r3, r8, r9
  40663a:	42ab      	cmp	r3, r5
  40663c:	d90a      	bls.n	406654 <__udivmoddi4+0x6c>
  40663e:	19ed      	adds	r5, r5, r7
  406640:	f108 32ff 	add.w	r2, r8, #4294967295
  406644:	f080 8123 	bcs.w	40688e <__udivmoddi4+0x2a6>
  406648:	42ab      	cmp	r3, r5
  40664a:	f240 8120 	bls.w	40688e <__udivmoddi4+0x2a6>
  40664e:	f1a8 0802 	sub.w	r8, r8, #2
  406652:	443d      	add	r5, r7
  406654:	1aed      	subs	r5, r5, r3
  406656:	b2a4      	uxth	r4, r4
  406658:	fbb5 f0fa 	udiv	r0, r5, sl
  40665c:	fb0a 5510 	mls	r5, sl, r0, r5
  406660:	ea44 4405 	orr.w	r4, r4, r5, lsl #16
  406664:	fb00 f909 	mul.w	r9, r0, r9
  406668:	45a1      	cmp	r9, r4
  40666a:	d909      	bls.n	406680 <__udivmoddi4+0x98>
  40666c:	19e4      	adds	r4, r4, r7
  40666e:	f100 33ff 	add.w	r3, r0, #4294967295
  406672:	f080 810a 	bcs.w	40688a <__udivmoddi4+0x2a2>
  406676:	45a1      	cmp	r9, r4
  406678:	f240 8107 	bls.w	40688a <__udivmoddi4+0x2a2>
  40667c:	3802      	subs	r0, #2
  40667e:	443c      	add	r4, r7
  406680:	eba4 0409 	sub.w	r4, r4, r9
  406684:	ea40 4008 	orr.w	r0, r0, r8, lsl #16
  406688:	2100      	movs	r1, #0
  40668a:	2e00      	cmp	r6, #0
  40668c:	d061      	beq.n	406752 <__udivmoddi4+0x16a>
  40668e:	fa24 f40e 	lsr.w	r4, r4, lr
  406692:	2300      	movs	r3, #0
  406694:	6034      	str	r4, [r6, #0]
  406696:	6073      	str	r3, [r6, #4]
  406698:	e8bd 87f0 	ldmia.w	sp!, {r4, r5, r6, r7, r8, r9, sl, pc}
  40669c:	428b      	cmp	r3, r1
  40669e:	d907      	bls.n	4066b0 <__udivmoddi4+0xc8>
  4066a0:	2e00      	cmp	r6, #0
  4066a2:	d054      	beq.n	40674e <__udivmoddi4+0x166>
  4066a4:	2100      	movs	r1, #0
  4066a6:	e886 0021 	stmia.w	r6, {r0, r5}
  4066aa:	4608      	mov	r0, r1
  4066ac:	e8bd 87f0 	ldmia.w	sp!, {r4, r5, r6, r7, r8, r9, sl, pc}
  4066b0:	fab3 f183 	clz	r1, r3
  4066b4:	2900      	cmp	r1, #0
  4066b6:	f040 808e 	bne.w	4067d6 <__udivmoddi4+0x1ee>
  4066ba:	42ab      	cmp	r3, r5
  4066bc:	d302      	bcc.n	4066c4 <__udivmoddi4+0xdc>
  4066be:	4282      	cmp	r2, r0
  4066c0:	f200 80fa 	bhi.w	4068b8 <__udivmoddi4+0x2d0>
  4066c4:	1a84      	subs	r4, r0, r2
  4066c6:	eb65 0503 	sbc.w	r5, r5, r3
  4066ca:	2001      	movs	r0, #1
  4066cc:	46ac      	mov	ip, r5
  4066ce:	2e00      	cmp	r6, #0
  4066d0:	d03f      	beq.n	406752 <__udivmoddi4+0x16a>
  4066d2:	e886 1010 	stmia.w	r6, {r4, ip}
  4066d6:	e8bd 87f0 	ldmia.w	sp!, {r4, r5, r6, r7, r8, r9, sl, pc}
  4066da:	b912      	cbnz	r2, 4066e2 <__udivmoddi4+0xfa>
  4066dc:	2701      	movs	r7, #1
  4066de:	fbb7 f7f2 	udiv	r7, r7, r2
  4066e2:	fab7 fe87 	clz	lr, r7
  4066e6:	f1be 0f00 	cmp.w	lr, #0
  4066ea:	d134      	bne.n	406756 <__udivmoddi4+0x16e>
  4066ec:	1beb      	subs	r3, r5, r7
  4066ee:	0c3a      	lsrs	r2, r7, #16
  4066f0:	fa1f fc87 	uxth.w	ip, r7
  4066f4:	2101      	movs	r1, #1
  4066f6:	fbb3 f8f2 	udiv	r8, r3, r2
  4066fa:	0c25      	lsrs	r5, r4, #16
  4066fc:	fb02 3318 	mls	r3, r2, r8, r3
  406700:	ea45 4503 	orr.w	r5, r5, r3, lsl #16
  406704:	fb0c f308 	mul.w	r3, ip, r8
  406708:	42ab      	cmp	r3, r5
  40670a:	d907      	bls.n	40671c <__udivmoddi4+0x134>
  40670c:	19ed      	adds	r5, r5, r7
  40670e:	f108 30ff 	add.w	r0, r8, #4294967295
  406712:	d202      	bcs.n	40671a <__udivmoddi4+0x132>
  406714:	42ab      	cmp	r3, r5
  406716:	f200 80d1 	bhi.w	4068bc <__udivmoddi4+0x2d4>
  40671a:	4680      	mov	r8, r0
  40671c:	1aed      	subs	r5, r5, r3
  40671e:	b2a3      	uxth	r3, r4
  406720:	fbb5 f0f2 	udiv	r0, r5, r2
  406724:	fb02 5510 	mls	r5, r2, r0, r5
  406728:	ea43 4405 	orr.w	r4, r3, r5, lsl #16
  40672c:	fb0c fc00 	mul.w	ip, ip, r0
  406730:	45a4      	cmp	ip, r4
  406732:	d907      	bls.n	406744 <__udivmoddi4+0x15c>
  406734:	19e4      	adds	r4, r4, r7
  406736:	f100 33ff 	add.w	r3, r0, #4294967295
  40673a:	d202      	bcs.n	406742 <__udivmoddi4+0x15a>
  40673c:	45a4      	cmp	ip, r4
  40673e:	f200 80b8 	bhi.w	4068b2 <__udivmoddi4+0x2ca>
  406742:	4618      	mov	r0, r3
  406744:	eba4 040c 	sub.w	r4, r4, ip
  406748:	ea40 4008 	orr.w	r0, r0, r8, lsl #16
  40674c:	e79d      	b.n	40668a <__udivmoddi4+0xa2>
  40674e:	4631      	mov	r1, r6
  406750:	4630      	mov	r0, r6
  406752:	e8bd 87f0 	ldmia.w	sp!, {r4, r5, r6, r7, r8, r9, sl, pc}
  406756:	f1ce 0420 	rsb	r4, lr, #32
  40675a:	fa05 f30e 	lsl.w	r3, r5, lr
  40675e:	fa07 f70e 	lsl.w	r7, r7, lr
  406762:	fa20 f804 	lsr.w	r8, r0, r4
  406766:	0c3a      	lsrs	r2, r7, #16
  406768:	fa25 f404 	lsr.w	r4, r5, r4
  40676c:	ea48 0803 	orr.w	r8, r8, r3
  406770:	fbb4 f1f2 	udiv	r1, r4, r2
  406774:	ea4f 4518 	mov.w	r5, r8, lsr #16
  406778:	fb02 4411 	mls	r4, r2, r1, r4
  40677c:	fa1f fc87 	uxth.w	ip, r7
  406780:	ea45 4504 	orr.w	r5, r5, r4, lsl #16
  406784:	fb01 f30c 	mul.w	r3, r1, ip
  406788:	42ab      	cmp	r3, r5
  40678a:	fa00 f40e 	lsl.w	r4, r0, lr
  40678e:	d909      	bls.n	4067a4 <__udivmoddi4+0x1bc>
  406790:	19ed      	adds	r5, r5, r7
  406792:	f101 30ff 	add.w	r0, r1, #4294967295
  406796:	f080 808a 	bcs.w	4068ae <__udivmoddi4+0x2c6>
  40679a:	42ab      	cmp	r3, r5
  40679c:	f240 8087 	bls.w	4068ae <__udivmoddi4+0x2c6>
  4067a0:	3902      	subs	r1, #2
  4067a2:	443d      	add	r5, r7
  4067a4:	1aeb      	subs	r3, r5, r3
  4067a6:	fa1f f588 	uxth.w	r5, r8
  4067aa:	fbb3 f0f2 	udiv	r0, r3, r2
  4067ae:	fb02 3310 	mls	r3, r2, r0, r3
  4067b2:	ea45 4503 	orr.w	r5, r5, r3, lsl #16
  4067b6:	fb00 f30c 	mul.w	r3, r0, ip
  4067ba:	42ab      	cmp	r3, r5
  4067bc:	d907      	bls.n	4067ce <__udivmoddi4+0x1e6>
  4067be:	19ed      	adds	r5, r5, r7
  4067c0:	f100 38ff 	add.w	r8, r0, #4294967295
  4067c4:	d26f      	bcs.n	4068a6 <__udivmoddi4+0x2be>
  4067c6:	42ab      	cmp	r3, r5
  4067c8:	d96d      	bls.n	4068a6 <__udivmoddi4+0x2be>
  4067ca:	3802      	subs	r0, #2
  4067cc:	443d      	add	r5, r7
  4067ce:	1aeb      	subs	r3, r5, r3
  4067d0:	ea40 4101 	orr.w	r1, r0, r1, lsl #16
  4067d4:	e78f      	b.n	4066f6 <__udivmoddi4+0x10e>
  4067d6:	f1c1 0720 	rsb	r7, r1, #32
  4067da:	fa22 f807 	lsr.w	r8, r2, r7
  4067de:	408b      	lsls	r3, r1
  4067e0:	fa05 f401 	lsl.w	r4, r5, r1
  4067e4:	ea48 0303 	orr.w	r3, r8, r3
  4067e8:	fa20 fe07 	lsr.w	lr, r0, r7
  4067ec:	ea4f 4c13 	mov.w	ip, r3, lsr #16
  4067f0:	40fd      	lsrs	r5, r7
  4067f2:	ea4e 0e04 	orr.w	lr, lr, r4
  4067f6:	fbb5 f9fc 	udiv	r9, r5, ip
  4067fa:	ea4f 441e 	mov.w	r4, lr, lsr #16
  4067fe:	fb0c 5519 	mls	r5, ip, r9, r5
  406802:	fa1f f883 	uxth.w	r8, r3
  406806:	ea44 4505 	orr.w	r5, r4, r5, lsl #16
  40680a:	fb09 f408 	mul.w	r4, r9, r8
  40680e:	42ac      	cmp	r4, r5
  406810:	fa02 f201 	lsl.w	r2, r2, r1
  406814:	fa00 fa01 	lsl.w	sl, r0, r1
  406818:	d908      	bls.n	40682c <__udivmoddi4+0x244>
  40681a:	18ed      	adds	r5, r5, r3
  40681c:	f109 30ff 	add.w	r0, r9, #4294967295
  406820:	d243      	bcs.n	4068aa <__udivmoddi4+0x2c2>
  406822:	42ac      	cmp	r4, r5
  406824:	d941      	bls.n	4068aa <__udivmoddi4+0x2c2>
  406826:	f1a9 0902 	sub.w	r9, r9, #2
  40682a:	441d      	add	r5, r3
  40682c:	1b2d      	subs	r5, r5, r4
  40682e:	fa1f fe8e 	uxth.w	lr, lr
  406832:	fbb5 f0fc 	udiv	r0, r5, ip
  406836:	fb0c 5510 	mls	r5, ip, r0, r5
  40683a:	ea4e 4405 	orr.w	r4, lr, r5, lsl #16
  40683e:	fb00 f808 	mul.w	r8, r0, r8
  406842:	45a0      	cmp	r8, r4
  406844:	d907      	bls.n	406856 <__udivmoddi4+0x26e>
  406846:	18e4      	adds	r4, r4, r3
  406848:	f100 35ff 	add.w	r5, r0, #4294967295
  40684c:	d229      	bcs.n	4068a2 <__udivmoddi4+0x2ba>
  40684e:	45a0      	cmp	r8, r4
  406850:	d927      	bls.n	4068a2 <__udivmoddi4+0x2ba>
  406852:	3802      	subs	r0, #2
  406854:	441c      	add	r4, r3
  406856:	ea40 4009 	orr.w	r0, r0, r9, lsl #16
  40685a:	eba4 0408 	sub.w	r4, r4, r8
  40685e:	fba0 8902 	umull	r8, r9, r0, r2
  406862:	454c      	cmp	r4, r9
  406864:	46c6      	mov	lr, r8
  406866:	464d      	mov	r5, r9
  406868:	d315      	bcc.n	406896 <__udivmoddi4+0x2ae>
  40686a:	d012      	beq.n	406892 <__udivmoddi4+0x2aa>
  40686c:	b156      	cbz	r6, 406884 <__udivmoddi4+0x29c>
  40686e:	ebba 030e 	subs.w	r3, sl, lr
  406872:	eb64 0405 	sbc.w	r4, r4, r5
  406876:	fa04 f707 	lsl.w	r7, r4, r7
  40687a:	40cb      	lsrs	r3, r1
  40687c:	431f      	orrs	r7, r3
  40687e:	40cc      	lsrs	r4, r1
  406880:	6037      	str	r7, [r6, #0]
  406882:	6074      	str	r4, [r6, #4]
  406884:	2100      	movs	r1, #0
  406886:	e8bd 87f0 	ldmia.w	sp!, {r4, r5, r6, r7, r8, r9, sl, pc}
  40688a:	4618      	mov	r0, r3
  40688c:	e6f8      	b.n	406680 <__udivmoddi4+0x98>
  40688e:	4690      	mov	r8, r2
  406890:	e6e0      	b.n	406654 <__udivmoddi4+0x6c>
  406892:	45c2      	cmp	sl, r8
  406894:	d2ea      	bcs.n	40686c <__udivmoddi4+0x284>
  406896:	ebb8 0e02 	subs.w	lr, r8, r2
  40689a:	eb69 0503 	sbc.w	r5, r9, r3
  40689e:	3801      	subs	r0, #1
  4068a0:	e7e4      	b.n	40686c <__udivmoddi4+0x284>
  4068a2:	4628      	mov	r0, r5
  4068a4:	e7d7      	b.n	406856 <__udivmoddi4+0x26e>
  4068a6:	4640      	mov	r0, r8
  4068a8:	e791      	b.n	4067ce <__udivmoddi4+0x1e6>
  4068aa:	4681      	mov	r9, r0
  4068ac:	e7be      	b.n	40682c <__udivmoddi4+0x244>
  4068ae:	4601      	mov	r1, r0
  4068b0:	e778      	b.n	4067a4 <__udivmoddi4+0x1bc>
  4068b2:	3802      	subs	r0, #2
  4068b4:	443c      	add	r4, r7
  4068b6:	e745      	b.n	406744 <__udivmoddi4+0x15c>
  4068b8:	4608      	mov	r0, r1
  4068ba:	e708      	b.n	4066ce <__udivmoddi4+0xe6>
  4068bc:	f1a8 0802 	sub.w	r8, r8, #2
  4068c0:	443d      	add	r5, r7
  4068c2:	e72b      	b.n	40671c <__udivmoddi4+0x134>

004068c4 <__aeabi_idiv0>:
  4068c4:	4770      	bx	lr
  4068c6:	bf00      	nop

004068c8 <armBitRevIndexTable1024>:
  4068c8:	0008 1000 0010 0200 0018 1200 0020 0400     ............ ...
  4068d8:	0028 1400 0030 0600 0038 1600 0040 0800     (...0...8...@...
  4068e8:	0048 1800 0050 0a00 0058 1a00 0060 0c00     H...P...X...`...
  4068f8:	0068 1c00 0070 0e00 0078 1e00 0080 0800     h...p...x.......
  406908:	0088 1040 0090 0240 0098 1240 00a0 0440     ..@...@...@...@.
  406918:	00a8 1440 00b0 0640 00b8 1640 00c0 0840     ..@...@...@...@.
  406928:	00c8 1840 00d0 0a40 00d8 1a40 00e0 0c40     ..@...@...@...@.
  406938:	00e8 1c40 00f0 0e40 00f8 1e40 0100 0800     ..@...@...@.....
  406948:	0108 1080 0110 0280 0118 1280 0120 0480     ............ ...
  406958:	0128 1480 0130 0680 0138 1680 0140 0880     (...0...8...@...
  406968:	0148 1880 0150 0a80 0158 1a80 0160 0c80     H...P...X...`...
  406978:	0168 1c80 0170 0e80 0178 1e80 0180 0840     h...p...x.....@.
  406988:	0188 10c0 0190 02c0 0198 12c0 01a0 04c0     ................
  406998:	01a8 14c0 01b0 06c0 01b8 16c0 01c0 08c0     ................
  4069a8:	01c8 18c0 01d0 0ac0 01d8 1ac0 01e0 0cc0     ................
  4069b8:	01e8 1cc0 01f0 0ec0 01f8 1ec0 0200 0800     ................
  4069c8:	0208 1100 0210 0300 0218 1300 0220 0500     ............ ...
  4069d8:	0228 1500 0230 0700 0238 1700 0240 0900     (...0...8...@...
  4069e8:	0248 1900 0250 0b00 0258 1b00 0260 0d00     H...P...X...`...
  4069f8:	0268 1d00 0270 0f00 0278 1f00 0280 0880     h...p...x.......
  406a08:	0288 1140 0290 0340 0298 1340 02a0 0540     ..@...@...@...@.
  406a18:	02a8 1540 02b0 0740 02b8 1740 02c0 0940     ..@...@...@...@.
  406a28:	02c8 1940 02d0 0b40 02d8 1b40 02e0 0d40     ..@...@...@...@.
  406a38:	02e8 1d40 02f0 0f40 02f8 1f40 0300 0840     ..@...@...@...@.
  406a48:	0308 1180 0310 0380 0318 1380 0320 0580     ............ ...
  406a58:	0328 1580 0330 0780 0338 1780 0340 0980     (...0...8...@...
  406a68:	0348 1980 0350 0b80 0358 1b80 0360 0d80     H...P...X...`...
  406a78:	0368 1d80 0370 0f80 0378 1f80 0380 08c0     h...p...x.......
  406a88:	0388 11c0 0390 03c0 0398 13c0 03a0 05c0     ................
  406a98:	03a8 15c0 03b0 07c0 03b8 17c0 03c0 09c0     ................
  406aa8:	03c8 19c0 03d0 0bc0 03d8 1bc0 03e0 0dc0     ................
  406ab8:	03e8 1dc0 03f0 0fc0 03f8 1fc0 0400 1000     ................
  406ac8:	0408 1008 0410 1100 0418 1208 0420 1008     ............ ...
  406ad8:	0428 1408 0430 0608 0438 1608 0440 0808     (...0...8...@...
  406ae8:	0448 1808 0450 0a08 0458 1a08 0460 0c08     H...P...X...`...
  406af8:	0468 1c08 0470 0e08 0478 1e08 0480 1800     h...p...x.......
  406b08:	0488 1048 0490 1900 0498 1248 04a0 1808     ..H.......H.....
  406b18:	04a8 1448 04b0 0648 04b8 1648 04c0 0848     ..H...H...H...H.
  406b28:	04c8 1848 04d0 0a48 04d8 1a48 04e0 0c48     ..H...H...H...H.
  406b38:	04e8 1c48 04f0 0e48 04f8 1e48 0500 1040     ..H...H...H...@.
  406b48:	0508 1088 0510 1140 0518 1288 0520 1048     ......@..... .H.
  406b58:	0528 1488 0530 0688 0538 1688 0540 0888     (...0...8...@...
  406b68:	0548 1888 0550 0a88 0558 1a88 0560 0c88     H...P...X...`...
  406b78:	0568 1c88 0570 0e88 0578 1e88 0580 1840     h...p...x.....@.
  406b88:	0588 10c8 0590 1940 0598 12c8 05a0 1848     ......@.......H.
  406b98:	05a8 14c8 05b0 06c8 05b8 16c8 05c0 08c8     ................
  406ba8:	05c8 18c8 05d0 0ac8 05d8 1ac8 05e0 0cc8     ................
  406bb8:	05e8 1cc8 05f0 0ec8 05f8 1ec8 0600 1080     ................
  406bc8:	0608 1108 0610 1180 0618 1308 0620 1088     ............ ...
  406bd8:	0628 1508 0630 0708 0638 1708 0640 0908     (...0...8...@...
  406be8:	0648 1908 0650 0b08 0658 1b08 0660 0d08     H...P...X...`...
  406bf8:	0668 1d08 0670 0f08 0678 1f08 0680 1880     h...p...x.......
  406c08:	0688 1148 0690 1980 0698 1348 06a0 1888     ..H.......H.....
  406c18:	06a8 1548 06b0 0748 06b8 1748 06c0 0948     ..H...H...H...H.
  406c28:	06c8 1948 06d0 0b48 06d8 1b48 06e0 0d48     ..H...H...H...H.
  406c38:	06e8 1d48 06f0 0f48 06f8 1f48 0700 10c0     ..H...H...H.....
  406c48:	0708 1188 0710 11c0 0718 1388 0720 10c8     ............ ...
  406c58:	0728 1588 0730 0788 0738 1788 0740 0988     (...0...8...@...
  406c68:	0748 1988 0750 0b88 0758 1b88 0760 0d88     H...P...X...`...
  406c78:	0768 1d88 0770 0f88 0778 1f88 0780 18c0     h...p...x.......
  406c88:	0788 11c8 0790 19c0 0798 13c8 07a0 18c8     ................
  406c98:	07a8 15c8 07b0 07c8 07b8 17c8 07c0 09c8     ................
  406ca8:	07c8 19c8 07d0 0bc8 07d8 1bc8 07e0 0dc8     ................
  406cb8:	07e8 1dc8 07f0 0fc8 07f8 1fc8 0808 1010     ................
  406cc8:	0810 0840 0818 1210 0820 1100 0828 1410     ..@..... ...(...
  406cd8:	0830 1180 0838 1610 0848 1810 0850 0a10     0...8...H...P...
  406ce8:	0858 1a10 0860 0c10 0868 1c10 0870 0e10     X...`...h...p...
  406cf8:	0878 1e10 0880 0a00 0888 1050 0890 0b00     x.........P.....
  406d08:	0898 1250 08a0 0a08 08a8 1450 08b0 0b08     ..P.......P.....
  406d18:	08b8 1650 08c0 0a10 08c8 1850 08d0 0a50     ..P.......P...P.
  406d28:	08d8 1a50 08e0 0c50 08e8 1c50 08f0 0e50     ..P...P...P...P.
  406d38:	08f8 1e50 0908 1090 0910 0980 0918 1290     ..P.............
  406d48:	0920 1900 0928 1490 0930 1980 0938 1690      ...(...0...8...
  406d58:	0940 0b00 0948 1890 0950 0a90 0958 1a90     @...H...P...X...
  406d68:	0960 0c90 0968 1c90 0970 0e90 0978 1e90     `...h...p...x...
  406d78:	0980 0a40 0988 10d0 0990 0b40 0998 12d0     ..@.......@.....
  406d88:	09a0 0a48 09a8 14d0 09b0 0b48 09b8 16d0     ..H.......H.....
  406d98:	09c0 0a50 09c8 18d0 09d0 0ad0 09d8 1ad0     ..P.............
  406da8:	09e0 0cd0 09e8 1cd0 09f0 0ed0 09f8 1ed0     ................
  406db8:	0a08 1110 0a18 1310 0a20 1140 0a28 1510     ........ .@.(...
  406dc8:	0a30 11c0 0a38 1710 0a48 1910 0a50 0b10     0...8...H...P...
  406dd8:	0a58 1b10 0a60 0d10 0a68 1d10 0a70 0f10     X...`...h...p...
  406de8:	0a78 1f10 0a88 1150 0a90 0b80 0a98 1350     x.....P.......P.
  406df8:	0aa0 1150 0aa8 1550 0ab0 0b88 0ab8 1750     ..P...P.......P.
  406e08:	0ac0 0b80 0ac8 1950 0ad0 0b50 0ad8 1b50     ......P...P...P.
  406e18:	0ae0 0d50 0ae8 1d50 0af0 0f50 0af8 1f50     ..P...P...P...P.
  406e28:	0b08 1190 0b18 1390 0b20 1940 0b28 1590     ........ .@.(...
  406e38:	0b30 19c0 0b38 1790 0b48 1990 0b50 0b90     0...8...H...P...
  406e48:	0b58 1b90 0b60 0d90 0b68 1d90 0b70 0f90     X...`...h...p...
  406e58:	0b78 1f90 0b88 11d0 0b90 0bc0 0b98 13d0     x...............
  406e68:	0ba0 1950 0ba8 15d0 0bb0 0bc8 0bb8 17d0     ..P.............
  406e78:	0bc8 19d0 0bd8 1bd0 0be0 0dd0 0be8 1dd0     ................
  406e88:	0bf0 0fd0 0bf8 1fd0 0c00 1200 0c08 1018     ................
  406e98:	0c10 1300 0c18 1218 0c20 1208 0c28 1418     ........ ...(...
  406ea8:	0c30 1308 0c38 1618 0c40 1210 0c48 1818     0...8...@...H...
  406eb8:	0c50 1310 0c58 1a18 0c60 1218 0c68 1c18     P...X...`...h...
  406ec8:	0c70 0e18 0c78 1e18 0c80 1a00 0c88 1058     p...x.........X.
  406ed8:	0c90 1b00 0c98 1258 0ca0 1a08 0ca8 1458     ......X.......X.
  406ee8:	0cb0 1b08 0cb8 1658 0cc0 1a10 0cc8 1858     ......X.......X.
  406ef8:	0cd0 1b10 0cd8 1a58 0ce0 1a18 0ce8 1c58     ......X.......X.
  406f08:	0cf0 0e58 0cf8 1e58 0d00 1240 0d08 1098     ..X...X...@.....
  406f18:	0d10 1340 0d18 1298 0d20 1248 0d28 1498     ..@..... .H.(...
  406f28:	0d30 1348 0d38 1698 0d40 1250 0d48 1898     0.H.8...@.P.H...
  406f38:	0d50 1350 0d58 1a98 0d60 1258 0d68 1c98     P.P.X...`.X.h...
  406f48:	0d70 0e98 0d78 1e98 0d80 1a40 0d88 10d8     p...x.....@.....
  406f58:	0d90 1b40 0d98 12d8 0da0 1a48 0da8 14d8     ..@.......H.....
  406f68:	0db0 1b48 0db8 16d8 0dc0 1a50 0dc8 18d8     ..H.......P.....
  406f78:	0dd0 1b50 0dd8 1ad8 0de0 1a58 0de8 1cd8     ..P.......X.....
  406f88:	0df0 0ed8 0df8 1ed8 0e00 1280 0e08 1118     ................
  406f98:	0e10 1380 0e18 1318 0e20 1288 0e28 1518     ........ ...(...
  406fa8:	0e30 1388 0e38 1718 0e40 1290 0e48 1918     0...8...@...H...
  406fb8:	0e50 1390 0e58 1b18 0e60 1298 0e68 1d18     P...X...`...h...
  406fc8:	0e70 0f18 0e78 1f18 0e80 1a80 0e88 1158     p...x.........X.
  406fd8:	0e90 1b80 0e98 1358 0ea0 1a88 0ea8 1558     ......X.......X.
  406fe8:	0eb0 1b88 0eb8 1758 0ec0 1a90 0ec8 1958     ......X.......X.
  406ff8:	0ed0 1b90 0ed8 1b58 0ee0 1a98 0ee8 1d58     ......X.......X.
  407008:	0ef0 0f58 0ef8 1f58 0f00 12c0 0f08 1198     ..X...X.........
  407018:	0f10 13c0 0f18 1398 0f20 12c8 0f28 1598     ........ ...(...
  407028:	0f30 13c8 0f38 1798 0f40 12d0 0f48 1998     0...8...@...H...
  407038:	0f50 13d0 0f58 1b98 0f60 12d8 0f68 1d98     P...X...`...h...
  407048:	0f70 0f98 0f78 1f98 0f80 1ac0 0f88 11d8     p...x...........
  407058:	0f90 1bc0 0f98 13d8 0fa0 1ac8 0fa8 15d8     ................
  407068:	0fb0 1bc8 0fb8 17d8 0fc0 1ad0 0fc8 19d8     ................
  407078:	0fd0 1bd0 0fd8 1bd8 0fe0 1ad8 0fe8 1dd8     ................
  407088:	0ff0 1bd8 0ff8 1fd8 1008 1020 1010 1040     .......... ...@.
  407098:	1018 1220 1028 1420 1030 1088 1038 1620     .. .(. .0...8. .
  4070a8:	1040 1100 1048 1820 1050 1140 1058 1a20     @...H. .P.@.X. .
  4070b8:	1060 1208 1068 1c20 1070 1288 1078 1e20     `...h. .p...x. .
  4070c8:	1080 1200 1088 1208 1090 1240 1098 1260     ..........@...`.
  4070d8:	10a0 1220 10a8 1460 10b0 1260 10b8 1660     .. ...`...`...`.
  4070e8:	10c0 1300 10c8 1860 10d0 1340 10d8 1a60     ......`...@...`.
  4070f8:	10e0 1218 10e8 1c60 10f0 1298 10f8 1e60     ......`.......`.
  407108:	1108 1220 1110 1140 1118 12a0 1120 1808     .. ...@..... ...
  407118:	1128 14a0 1130 1888 1138 16a0 1148 18a0     (...0...8...H...
  407128:	1158 1aa0 1160 1a08 1168 1ca0 1170 1a88     X...`...h...p...
  407138:	1178 1ea0 1180 1210 1188 1218 1190 1250     x.............P.
  407148:	1198 12e0 11a0 1818 11a8 14e0 11b0 1898     ................
  407158:	11b8 16e0 11c0 1310 11c8 18e0 11d0 1350     ..............P.
  407168:	11d8 1ae0 11e0 1a18 11e8 1ce0 11f0 1a98     ................
  407178:	11f8 1ee0 1200 1800 1208 1808 1210 1840     ..............@.
  407188:	1218 1320 1220 1820 1228 1520 1230 1860     .. . . .(. .0.`.
  407198:	1238 1720 1240 1900 1248 1920 1250 1940     8. .@...H. .P.@.
  4071a8:	1258 1b20 1260 1920 1268 1d20 1270 12c8     X. .`. .h. .p...
  4071b8:	1278 1f20 1280 1a00 1288 1a08 1290 1a40     x. ...........@.
  4071c8:	1298 1360 12a0 1a20 12a8 1560 12b0 1a60     ..`... ...`...`.
  4071d8:	12b8 1760 12c0 1b00 12c8 1960 12d0 1b40     ..`.......`...@.
  4071e8:	12d8 1b60 12e0 1b20 12e8 1d60 12f0 1b60     ..`... ...`...`.
  4071f8:	12f8 1f60 1300 1810 1308 1818 1310 1850     ..`...........P.
  407208:	1318 13a0 1320 1848 1328 15a0 1330 18c8     .... .H.(...0...
  407218:	1338 17a0 1340 1910 1348 19a0 1350 1950     8...@...H...P.P.
  407228:	1358 1ba0 1360 1a48 1368 1da0 1370 1ac8     X...`.H.h...p...
  407238:	1378 1fa0 1380 1a10 1388 1a18 1390 1a50     x.............P.
  407248:	1398 13e0 13a0 1858 13a8 15e0 13b0 18d8     ......X.........
  407258:	13b8 17e0 13c0 1b10 13c8 19e0 13d0 1b50     ..............P.
  407268:	13d8 1be0 13e0 1a58 13e8 1de0 13f0 1ad8     ......X.........
  407278:	13f8 1fe0 1408 1420 1410 1500 1418 1520     ...... ....... .
  407288:	1430 1508 1438 1628 1440 1500 1448 1828     0...8.(.@...H.(.
  407298:	1450 1510 1458 1a28 1460 1520 1468 1c28     P...X.(.`. .h.(.
  4072a8:	1470 1518 1478 1e28 1480 1c00 1488 1c20     p...x.(....... .
  4072b8:	1490 1d00 1498 1d20 14a0 1c08 14a8 1c28     ...... .......(.
  4072c8:	14b0 1d08 14b8 1668 14c0 1c10 14c8 1868     ......h.......h.
  4072d8:	14d0 1d10 14d8 1a68 14e0 1c18 14e8 1c68     ......h.......h.
  4072e8:	14f0 1d18 14f8 1e68 1508 1520 1510 1540     ......h... ...@.
  4072f8:	1518 1560 1520 1828 1528 1c28 1530 1548     ..`. .(.(.(.0.H.
  407308:	1538 16a8 1548 18a8 1558 1aa8 1560 1a28     8...H...X...`.(.
  407318:	1568 1ca8 1570 1aa8 1578 1ea8 1580 1c40     h...p...x.....@.
  407328:	1588 1c60 1590 1d40 1598 1d60 15a0 1c48     ..`...@...`...H.
  407338:	15a8 1c68 15b0 1d48 15b8 16e8 15c0 1c50     ..h...H.......P.
  407348:	15c8 18e8 15d0 1d50 15d8 1ae8 15e0 1c58     ......P.......X.
  407358:	15e8 1ce8 15f0 1d58 15f8 1ee8 1600 1c00     ......X.........
  407368:	1608 1c08 1610 1c40 1618 1c48 1620 1c20     ......@...H. . .
  407378:	1628 1c28 1630 1c60 1638 1728 1640 1d00     (.(.0.`.8.(.@...
  407388:	1648 1928 1650 1d40 1658 1b28 1660 1d20     H.(.P.@.X.(.`. .
  407398:	1668 1d28 1670 1d60 1678 1f28 1680 1c80     h.(.p.`.x.(.....
  4073a8:	1688 1ca0 1690 1d80 1698 1da0 16a0 1c88     ................
  4073b8:	16a8 1ca8 16b0 1d88 16b8 1768 16c0 1c90     ..........h.....
  4073c8:	16c8 1968 16d0 1d90 16d8 1b68 16e0 1c98     ..h.......h.....
  4073d8:	16e8 1d68 16f0 1d98 16f8 1f68 1700 1c10     ..h.......h.....
  4073e8:	1708 1c18 1710 1c50 1718 1c58 1720 1868     ......P...X. .h.
  4073f8:	1728 1c68 1730 18e8 1738 17a8 1740 1d10     (.h.0...8...@...
  407408:	1748 19a8 1750 1d50 1758 1ba8 1760 1a68     H...P.P.X...`.h.
  407418:	1768 1da8 1770 1ae8 1778 1fa8 1780 1cc0     h...p...x.......
  407428:	1788 1ce0 1790 1dc0 1798 1de0 17a0 1cc8     ................
  407438:	17a8 1ce8 17b0 1dc8 17b8 17e8 17c0 1cd0     ................
  407448:	17c8 19e8 17d0 1dd0 17d8 1be8 17e0 1cd8     ................
  407458:	17e8 1de8 17f0 1dd8 17f8 1fe8 1818 1860     ..............`.
  407468:	1830 1848 1838 1c60 1858 1a30 1868 1c30     0.H.8.`.X.0.h.0.
  407478:	1870 1a18 1878 1e30 1880 1a00 1888 1a08     p...x.0.........
  407488:	1890 1b00 1898 1960 18a0 1a20 18a8 1a28     ......`... ...(.
  407498:	18b0 1b20 18b8 1d60 18c0 1a10 18c8 1a18     .. ...`.........
  4074a8:	18d0 1b10 18d8 1a70 18e0 1a30 18e8 1c70     ......p...0...p.
  4074b8:	18f0 1a58 18f8 1e70 1908 1920 1918 1a60     ..X...p... ...`.
  4074c8:	1928 1d08 1930 1988 1938 1d88 1948 1b20     (...0...8...H. .
  4074d8:	1958 1ab0 1960 1b08 1968 1cb0 1970 1b88     X...`...h...p...
  4074e8:	1978 1eb0 1980 1a40 1988 1a48 1990 1b40     x.....@...H...@.
  4074f8:	1998 1b60 19a0 1a60 19a8 1d18 19b0 1b60     ..`...`.......`.
  407508:	19b8 1d98 19c0 1a50 19c8 1a58 19d0 1b50     ......P...X...P.
  407518:	19d8 1af0 19e0 1b18 19e8 1cf0 19f0 1b98     ................
  407528:	19f8 1ef0 1a38 1c70 1a58 1b30 1a68 1d30     ....8.p.X.0.h.0.
  407538:	1a70 1b18 1a78 1f30 1a90 1ac0 1a98 1ac8     p...x.0.........
  407548:	1ab0 1ae0 1ab8 1ae8 1ac0 1b80 1ac8 1b88     ................
  407558:	1ad0 1bc0 1ad8 1b70 1ae0 1ba0 1ae8 1d70     ......p.......p.
  407568:	1af0 1be0 1af8 1f70 1b28 1d48 1b38 1dc8     ......p.(.H.8...
  407578:	1b48 1b60 1b58 1bb0 1b68 1db0 1b70 1bc8     H.`.X...h...p...
  407588:	1b78 1fb0 1b90 1bc0 1b98 1bc8 1ba8 1d58     x.............X.
  407598:	1bb0 1be0 1bb8 1dd8 1bd8 1bf0 1be8 1df0     ................
  4075a8:	1bf8 1ff0 1c08 1c20 1c18 1c30 1c38 1c68     ...... ...0.8.h.
  4075b8:	1c48 1c60 1c58 1c70 1c78 1e38 1c80 1e00     H.`.X.p.x.8.....
  4075c8:	1c88 1e20 1c90 1f00 1c98 1f20 1ca0 1e08     .. ....... .....
  4075d8:	1ca8 1e28 1cb0 1f08 1cb8 1f28 1cc0 1e10     ..(.......(.....
  4075e8:	1cc8 1e30 1cd0 1f10 1cd8 1f30 1ce0 1e18     ..0.......0.....
  4075f8:	1ce8 1e38 1cf0 1f18 1cf8 1e78 1d08 1d20     ..8.......x... .
  407608:	1d18 1d30 1d38 1da8 1d48 1d60 1d58 1d70     ..0.8...H.`.X.p.
  407618:	1d68 1f28 1d78 1eb8 1d80 1e40 1d88 1e60     h.(.x.....@...`.
  407628:	1d90 1f40 1d98 1f60 1da0 1e48 1da8 1e68     ..@...`...H...h.
  407638:	1db0 1f48 1db8 1f68 1dc0 1e50 1dc8 1e70     ..H...h...P...p.
  407648:	1dd0 1f50 1dd8 1f70 1de0 1e58 1de8 1e78     ..P...p...X...x.
  407658:	1df0 1f58 1df8 1ef8 1e08 1e20 1e18 1e30     ..X....... ...0.
  407668:	1e48 1e60 1e58 1e70 1e78 1f38 1e88 1ea0     H.`.X.p.x.8.....
  407678:	1e90 1f80 1e98 1fa0 1eb0 1f88 1eb8 1fa8     ................
  407688:	1ec0 1f80 1ec8 1f88 1ed0 1f90 1ed8 1fb0     ................
  407698:	1ee0 1fa0 1ee8 1fa8 1ef0 1f98 1ef8 1f78     ..............x.
  4076a8:	1f08 1f20 1f18 1f30 1f48 1f60 1f58 1f70     .. ...0.H.`.X.p.
  4076b8:	1f78 1fb8 1f88 1fa0 1f90 1fc0 1f98 1fe0     x...............
  4076c8:	1fb0 1fc8 1fb8 1fe8 1fc8 1fe0 1fd8 1ff0     ................

004076d8 <armBitRevIndexTable2048>:
  4076d8:	0008 1000 0010 2000 0018 3000 0020 0200     ....... ...0 ...
  4076e8:	0028 1200 0030 2200 0038 3200 0040 0400     (...0.."8..2@...
  4076f8:	0048 1400 0050 2400 0058 3400 0060 0600     H...P..$X..4`...
  407708:	0068 1600 0070 2600 0078 3600 0080 0800     h...p..&x..6....
  407718:	0088 1800 0090 2800 0098 3800 00a0 0a00     .......(...8....
  407728:	00a8 1a00 00b0 2a00 00b8 3a00 00c0 0c00     .......*...:....
  407738:	00c8 1c00 00d0 2c00 00d8 3c00 00e0 0e00     .......,...<....
  407748:	00e8 1e00 00f0 2e00 00f8 3e00 0100 0400     ...........>....
  407758:	0108 1040 0110 2040 0118 3040 0120 0240     ..@...@ ..@0 .@.
  407768:	0128 1240 0130 2240 0138 3240 0140 0440     (.@.0.@"8.@2@.@.
  407778:	0148 1440 0150 2440 0158 3440 0160 0640     H.@.P.@$X.@4`.@.
  407788:	0168 1640 0170 2640 0178 3640 0180 0840     h.@.p.@&x.@6..@.
  407798:	0188 1840 0190 2840 0198 3840 01a0 0a40     ..@...@(..@8..@.
  4077a8:	01a8 1a40 01b0 2a40 01b8 3a40 01c0 0c40     ..@...@*..@:..@.
  4077b8:	01c8 1c40 01d0 2c40 01d8 3c40 01e0 0e40     ..@...@,..@<..@.
  4077c8:	01e8 1e40 01f0 2e40 01f8 3e40 0200 0800     ..@...@...@>....
  4077d8:	0208 1080 0210 2080 0218 3080 0220 0280     ....... ...0 ...
  4077e8:	0228 1280 0230 2280 0238 3280 0240 0480     (...0.."8..2@...
  4077f8:	0248 1480 0250 2480 0258 3480 0260 0680     H...P..$X..4`...
  407808:	0268 1680 0270 2680 0278 3680 0280 0880     h...p..&x..6....
  407818:	0288 1880 0290 2880 0298 3880 02a0 0a80     .......(...8....
  407828:	02a8 1a80 02b0 2a80 02b8 3a80 02c0 0c80     .......*...:....
  407838:	02c8 1c80 02d0 2c80 02d8 3c80 02e0 0e80     .......,...<....
  407848:	02e8 1e80 02f0 2e80 02f8 3e80 0300 0c00     ...........>....
  407858:	0308 10c0 0310 20c0 0318 30c0 0320 0c80     ....... ...0 ...
  407868:	0328 12c0 0330 22c0 0338 32c0 0340 04c0     (...0.."8..2@...
  407878:	0348 14c0 0350 24c0 0358 34c0 0360 06c0     H...P..$X..4`...
  407888:	0368 16c0 0370 26c0 0378 36c0 0380 08c0     h...p..&x..6....
  407898:	0388 18c0 0390 28c0 0398 38c0 03a0 0ac0     .......(...8....
  4078a8:	03a8 1ac0 03b0 2ac0 03b8 3ac0 03c0 0cc0     .......*...:....
  4078b8:	03c8 1cc0 03d0 2cc0 03d8 3cc0 03e0 0ec0     .......,...<....
  4078c8:	03e8 1ec0 03f0 2ec0 03f8 3ec0 0408 1100     ...........>....
  4078d8:	0410 2100 0418 3100 0420 0c00 0428 1300     ...!...1 ...(...
  4078e8:	0430 2300 0438 3300 0440 0500 0448 1500     0..#8..3@...H...
  4078f8:	0450 2500 0458 3500 0460 0700 0468 1700     P..%X..5`...h...
  407908:	0470 2700 0478 3700 0480 0900 0488 1900     p..'x..7........
  407918:	0490 2900 0498 3900 04a0 0b00 04a8 1b00     ...)...9........
  407928:	04b0 2b00 04b8 3b00 04c0 0d00 04c8 1d00     ...+...;........
  407938:	04d0 2d00 04d8 3d00 04e0 0f00 04e8 1f00     ...-...=........
  407948:	04f0 2f00 04f8 3f00 0508 1140 0510 2140     .../...?..@...@!
  407958:	0518 3140 0520 0d00 0528 1340 0530 2340     ..@1 ...(.@.0.@#
  407968:	0538 3340 0548 1540 0550 2540 0558 3540     8.@3H.@.P.@%X.@5
  407978:	0560 0740 0568 1740 0570 2740 0578 3740     `.@.h.@.p.@'x.@7
  407988:	0580 0940 0588 1940 0590 2940 0598 3940     ..@...@...@)..@9
  407998:	05a0 0b40 05a8 1b40 05b0 2b40 05b8 3b40     ..@...@...@+..@;
  4079a8:	05c0 0d40 05c8 1d40 05d0 2d40 05d8 3d40     ..@...@...@-..@=
  4079b8:	05e0 0f40 05e8 1f40 05f0 2f40 05f8 3f40     ..@...@...@/..@?
  4079c8:	0600 0840 0608 1180 0610 2180 0618 3180     ..@........!...1
  4079d8:	0620 08c0 0628 1380 0630 2380 0638 3380      ...(...0..#8..3
  4079e8:	0640 0940 0648 1580 0650 2580 0658 3580     @.@.H...P..%X..5
  4079f8:	0660 0780 0668 1780 0670 2780 0678 3780     `...h...p..'x..7
  407a08:	0680 0980 0688 1980 0690 2980 0698 3980     ...........)...9
  407a18:	06a0 0b80 06a8 1b80 06b0 2b80 06b8 3b80     ...........+...;
  407a28:	06c0 0d80 06c8 1d80 06d0 2d80 06d8 3d80     ...........-...=
  407a38:	06e0 0f80 06e8 1f80 06f0 2f80 06f8 3f80     .........../...?
  407a48:	0700 0c40 0708 11c0 0710 21c0 0718 31c0     ..@........!...1
  407a58:	0720 0cc0 0728 13c0 0730 23c0 0738 33c0      ...(...0..#8..3
  407a68:	0740 0d40 0748 15c0 0750 25c0 0758 35c0     @.@.H...P..%X..5
  407a78:	0760 07c0 0768 17c0 0770 27c0 0778 37c0     `...h...p..'x..7
  407a88:	0780 09c0 0788 19c0 0790 29c0 0798 39c0     ...........)...9
  407a98:	07a0 0bc0 07a8 1bc0 07b0 2bc0 07b8 3bc0     ...........+...;
  407aa8:	07c0 0dc0 07c8 1dc0 07d0 2dc0 07d8 3dc0     ...........-...=
  407ab8:	07e0 0fc0 07e8 1fc0 07f0 2fc0 07f8 3fc0     .........../...?
  407ac8:	0800 1000 0808 1008 0810 2008 0818 3008     ........... ...0
  407ad8:	0820 1080 0828 1208 0830 2208 0838 3208      ...(...0.."8..2
  407ae8:	0840 1100 0848 1408 0850 2408 0858 3408     @...H...P..$X..4
  407af8:	0860 1180 0868 1608 0870 2608 0878 3608     `...h...p..&x..6
  407b08:	0880 1008 0888 1808 0890 2808 0898 3808     ...........(...8
  407b18:	08a0 0a08 08a8 1a08 08b0 2a08 08b8 3a08     ...........*...:
  407b28:	08c0 0c08 08c8 1c08 08d0 2c08 08d8 3c08     ...........,...<
  407b38:	08e0 0e08 08e8 1e08 08f0 2e08 08f8 3e08     ...............>
  407b48:	0900 1400 0908 1048 0910 2048 0918 3048     ......H...H ..H0
  407b58:	0920 1480 0928 1248 0930 2248 0938 3248      ...(.H.0.H"8.H2
  407b68:	0940 1500 0948 1448 0950 2448 0958 3448     @...H.H.P.H$X.H4
  407b78:	0960 1580 0968 1648 0970 2648 0978 3648     `...h.H.p.H&x.H6
  407b88:	0980 1408 0988 1848 0990 2848 0998 3848     ......H...H(..H8
  407b98:	09a0 0a48 09a8 1a48 09b0 2a48 09b8 3a48     ..H...H...H*..H:
  407ba8:	09c0 0c48 09c8 1c48 09d0 2c48 09d8 3c48     ..H...H...H,..H<
  407bb8:	09e0 0e48 09e8 1e48 09f0 2e48 09f8 3e48     ..H...H...H...H>
  407bc8:	0a00 1800 0a08 1088 0a10 2088 0a18 3088     ........... ...0
  407bd8:	0a20 1880 0a28 1288 0a30 2288 0a38 3288      ...(...0.."8..2
  407be8:	0a40 1900 0a48 1488 0a50 2488 0a58 3488     @...H...P..$X..4
  407bf8:	0a60 1980 0a68 1688 0a70 2688 0a78 3688     `...h...p..&x..6
  407c08:	0a80 1808 0a88 1888 0a90 2888 0a98 3888     ...........(...8
  407c18:	0aa0 1888 0aa8 1a88 0ab0 2a88 0ab8 3a88     ...........*...:
  407c28:	0ac0 0c88 0ac8 1c88 0ad0 2c88 0ad8 3c88     ...........,...<
  407c38:	0ae0 0e88 0ae8 1e88 0af0 2e88 0af8 3e88     ...............>
  407c48:	0b00 1c00 0b08 10c8 0b10 20c8 0b18 30c8     ........... ...0
  407c58:	0b20 1c80 0b28 12c8 0b30 22c8 0b38 32c8      ...(...0.."8..2
  407c68:	0b40 1d00 0b48 14c8 0b50 24c8 0b58 34c8     @...H...P..$X..4
  407c78:	0b60 1d80 0b68 16c8 0b70 26c8 0b78 36c8     `...h...p..&x..6
  407c88:	0b80 1c08 0b88 18c8 0b90 28c8 0b98 38c8     ...........(...8
  407c98:	0ba0 1c88 0ba8 1ac8 0bb0 2ac8 0bb8 3ac8     ...........*...:
  407ca8:	0bc0 0cc8 0bc8 1cc8 0bd0 2cc8 0bd8 3cc8     ...........,...<
  407cb8:	0be0 0ec8 0be8 1ec8 0bf0 2ec8 0bf8 3ec8     ...............>
  407cc8:	0c00 1040 0c08 1108 0c10 2108 0c18 3108     ..@........!...1
  407cd8:	0c20 10c0 0c28 1308 0c30 2308 0c38 3308      ...(...0..#8..3
  407ce8:	0c40 1140 0c48 1508 0c50 2508 0c58 3508     @.@.H...P..%X..5
  407cf8:	0c60 11c0 0c68 1708 0c70 2708 0c78 3708     `...h...p..'x..7
  407d08:	0c80 1048 0c88 1908 0c90 2908 0c98 3908     ..H........)...9
  407d18:	0ca0 10c8 0ca8 1b08 0cb0 2b08 0cb8 3b08     ...........+...;
  407d28:	0cc0 0d08 0cc8 1d08 0cd0 2d08 0cd8 3d08     ...........-...=
  407d38:	0ce0 0f08 0ce8 1f08 0cf0 2f08 0cf8 3f08     .........../...?
  407d48:	0d00 1440 0d08 1148 0d10 2148 0d18 3148     ..@...H...H!..H1
  407d58:	0d20 14c0 0d28 1348 0d30 2348 0d38 3348      ...(.H.0.H#8.H3
  407d68:	0d40 1540 0d48 1548 0d50 2548 0d58 3548     @.@.H.H.P.H%X.H5
  407d78:	0d60 15c0 0d68 1748 0d70 2748 0d78 3748     `...h.H.p.H'x.H7
  407d88:	0d80 1448 0d88 1948 0d90 2948 0d98 3948     ..H...H...H)..H9
  407d98:	0da0 14c8 0da8 1b48 0db0 2b48 0db8 3b48     ......H...H+..H;
  407da8:	0dc0 1548 0dc8 1d48 0dd0 2d48 0dd8 3d48     ..H...H...H-..H=
  407db8:	0de0 0f48 0de8 1f48 0df0 2f48 0df8 3f48     ..H...H...H/..H?
  407dc8:	0e00 1840 0e08 1188 0e10 2188 0e18 3188     ..@........!...1
  407dd8:	0e20 18c0 0e28 1388 0e30 2388 0e38 3388      ...(...0..#8..3
  407de8:	0e40 1940 0e48 1588 0e50 2588 0e58 3588     @.@.H...P..%X..5
  407df8:	0e60 19c0 0e68 1788 0e70 2788 0e78 3788     `...h...p..'x..7
  407e08:	0e80 1848 0e88 1988 0e90 2988 0e98 3988     ..H........)...9
  407e18:	0ea0 18c8 0ea8 1b88 0eb0 2b88 0eb8 3b88     ...........+...;
  407e28:	0ec0 1948 0ec8 1d88 0ed0 2d88 0ed8 3d88     ..H........-...=
  407e38:	0ee0 0f88 0ee8 1f88 0ef0 2f88 0ef8 3f88     .........../...?
  407e48:	0f00 1c40 0f08 11c8 0f10 21c8 0f18 31c8     ..@........!...1
  407e58:	0f20 1cc0 0f28 13c8 0f30 23c8 0f38 33c8      ...(...0..#8..3
  407e68:	0f40 1d40 0f48 15c8 0f50 25c8 0f58 35c8     @.@.H...P..%X..5
  407e78:	0f60 1dc0 0f68 17c8 0f70 27c8 0f78 37c8     `...h...p..'x..7
  407e88:	0f80 1c48 0f88 19c8 0f90 29c8 0f98 39c8     ..H........)...9
  407e98:	0fa0 1cc8 0fa8 1bc8 0fb0 2bc8 0fb8 3bc8     ...........+...;
  407ea8:	0fc0 1d48 0fc8 1dc8 0fd0 2dc8 0fd8 3dc8     ..H........-...=
  407eb8:	0fe0 1dc8 0fe8 1fc8 0ff0 2fc8 0ff8 3fc8     .........../...?
  407ec8:	1000 2000 1008 1010 1010 2010 1018 3010     ... ....... ...0
  407ed8:	1020 2080 1028 1210 1030 2210 1038 3210      .. (...0.."8..2
  407ee8:	1040 2100 1048 1410 1050 2410 1058 3410     @..!H...P..$X..4
  407ef8:	1060 2180 1068 1610 1070 2610 1078 3610     `..!h...p..&x..6
  407f08:	1080 2008 1088 1810 1090 2810 1098 3810     ... .......(...8
  407f18:	10a0 2088 10a8 1a10 10b0 2a10 10b8 3a10     ... .......*...:
  407f28:	10c0 2108 10c8 1c10 10d0 2c10 10d8 3c10     ...!.......,...<
  407f38:	10e0 2188 10e8 1e10 10f0 2e10 10f8 3e10     ...!...........>
  407f48:	1100 2400 1108 2410 1110 2050 1118 3050     ...$...$..P ..P0
  407f58:	1120 2480 1128 1250 1130 2250 1138 3250      ..$(.P.0.P"8.P2
  407f68:	1140 2500 1148 1450 1150 2450 1158 3450     @..%H.P.P.P$X.P4
  407f78:	1160 2580 1168 1650 1170 2650 1178 3650     `..%h.P.p.P&x.P6
  407f88:	1180 2408 1188 1850 1190 2850 1198 3850     ...$..P...P(..P8
  407f98:	11a0 2488 11a8 1a50 11b0 2a50 11b8 3a50     ...$..P...P*..P:
  407fa8:	11c0 2508 11c8 1c50 11d0 2c50 11d8 3c50     ...%..P...P,..P<
  407fb8:	11e0 2588 11e8 1e50 11f0 2e50 11f8 3e50     ...%..P...P...P>
  407fc8:	1200 2800 1208 2810 1210 2090 1218 3090     ...(...(... ...0
  407fd8:	1220 2880 1228 1290 1230 2290 1238 3290      ..((...0.."8..2
  407fe8:	1240 2900 1248 1490 1250 2490 1258 3490     @..)H...P..$X..4
  407ff8:	1260 2980 1268 1690 1270 2690 1278 3690     `..)h...p..&x..6
  408008:	1280 2808 1288 1890 1290 2890 1298 3890     ...(.......(...8
  408018:	12a0 2888 12a8 1a90 12b0 2a90 12b8 3a90     ...(.......*...:
  408028:	12c0 2908 12c8 1c90 12d0 2c90 12d8 3c90     ...).......,...<
  408038:	12e0 2988 12e8 1e90 12f0 2e90 12f8 3e90     ...)...........>
  408048:	1300 2c00 1308 2c10 1310 20d0 1318 30d0     ...,...,... ...0
  408058:	1320 2c80 1328 2c90 1330 22d0 1338 32d0      ..,(..,0.."8..2
  408068:	1340 2d00 1348 14d0 1350 24d0 1358 34d0     @..-H...P..$X..4
  408078:	1360 2d80 1368 16d0 1370 26d0 1378 36d0     `..-h...p..&x..6
  408088:	1380 2c08 1388 18d0 1390 28d0 1398 38d0     ...,.......(...8
  408098:	13a0 2c88 13a8 1ad0 13b0 2ad0 13b8 3ad0     ...,.......*...:
  4080a8:	13c0 2d08 13c8 1cd0 13d0 2cd0 13d8 3cd0     ...-.......,...<
  4080b8:	13e0 2d88 13e8 1ed0 13f0 2ed0 13f8 3ed0     ...-...........>
  4080c8:	1400 2040 1408 2050 1410 2110 1418 3110     ..@ ..P ...!...1
  4080d8:	1420 20c0 1428 20d0 1430 2310 1438 3310      .. (.. 0..#8..3
  4080e8:	1440 2140 1448 1510 1450 2510 1458 3510     @.@!H...P..%X..5
  4080f8:	1460 21c0 1468 1710 1470 2710 1478 3710     `..!h...p..'x..7
  408108:	1480 2048 1488 1910 1490 2910 1498 3910     ..H .......)...9
  408118:	14a0 20c8 14a8 1b10 14b0 2b10 14b8 3b10     ... .......+...;
  408128:	14c0 2148 14c8 1d10 14d0 2d10 14d8 3d10     ..H!.......-...=
  408138:	14e0 21c8 14e8 1f10 14f0 2f10 14f8 3f10     ...!......./...?
  408148:	1500 2440 1508 2450 1510 2150 1518 3150     ..@$..P$..P!..P1
  408158:	1520 24c0 1528 24d0 1530 2350 1538 3350      ..$(..$0.P#8.P3
  408168:	1540 2540 1548 1550 1550 2550 1558 3550     @.@%H.P.P.P%X.P5
  408178:	1560 25c0 1568 1750 1570 2750 1578 3750     `..%h.P.p.P'x.P7
  408188:	1580 2448 1588 1950 1590 2950 1598 3950     ..H$..P...P)..P9
  408198:	15a0 24c8 15a8 1b50 15b0 2b50 15b8 3b50     ...$..P...P+..P;
  4081a8:	15c0 2548 15c8 1d50 15d0 2d50 15d8 3d50     ..H%..P...P-..P=
  4081b8:	15e0 25c8 15e8 1f50 15f0 2f50 15f8 3f50     ...%..P...P/..P?
  4081c8:	1600 2840 1608 2850 1610 2190 1618 3190     ..@(..P(...!...1
  4081d8:	1620 28c0 1628 28d0 1630 2390 1638 3390      ..((..(0..#8..3
  4081e8:	1640 2940 1648 2950 1650 2590 1658 3590     @.@)H.P)P..%X..5
  4081f8:	1660 29c0 1668 1790 1670 2790 1678 3790     `..)h...p..'x..7
  408208:	1680 2848 1688 1990 1690 2990 1698 3990     ..H(.......)...9
  408218:	16a0 28c8 16a8 1b90 16b0 2b90 16b8 3b90     ...(.......+...;
  408228:	16c0 2948 16c8 1d90 16d0 2d90 16d8 3d90     ..H).......-...=
  408238:	16e0 29c8 16e8 1f90 16f0 2f90 16f8 3f90     ...)......./...?
  408248:	1700 2c40 1708 2c50 1710 21d0 1718 31d0     ..@,..P,...!...1
  408258:	1720 2cc0 1728 2cd0 1730 23d0 1738 33d0      ..,(..,0..#8..3
  408268:	1740 2d40 1748 2d50 1750 25d0 1758 35d0     @.@-H.P-P..%X..5
  408278:	1760 2dc0 1768 17d0 1770 27d0 1778 37d0     `..-h...p..'x..7
  408288:	1780 2c48 1788 19d0 1790 29d0 1798 39d0     ..H,.......)...9
  408298:	17a0 2cc8 17a8 1bd0 17b0 2bd0 17b8 3bd0     ...,.......+...;
  4082a8:	17c0 2d48 17c8 1dd0 17d0 2dd0 17d8 3dd0     ..H-.......-...=
  4082b8:	17e0 2dc8 17e8 1fd0 17f0 2fd0 17f8 3fd0     ...-......./...?
  4082c8:	1800 3000 1808 3010 1810 2018 1818 3018     ...0...0... ...0
  4082d8:	1820 3080 1828 3090 1830 2218 1838 3218      ..0(..00.."8..2
  4082e8:	1840 3100 1848 3110 1850 2418 1858 3418     @..1H..1P..$X..4
  4082f8:	1860 3180 1868 3190 1870 2618 1878 3618     `..1h..1p..&x..6
  408308:	1880 3008 1888 3018 1890 2818 1898 3818     ...0...0...(...8
  408318:	18a0 3088 18a8 1a18 18b0 2a18 18b8 3a18     ...0.......*...:
  408328:	18c0 3108 18c8 1c18 18d0 2c18 18d8 3c18     ...1.......,...<
  408338:	18e0 3188 18e8 1e18 18f0 2e18 18f8 3e18     ...1...........>
  408348:	1900 3400 1908 3410 1910 2058 1918 3058     ...4...4..X ..X0
  408358:	1920 3480 1928 3490 1930 2258 1938 3258      ..4(..40.X"8.X2
  408368:	1940 3500 1948 3510 1950 2458 1958 3458     @..5H..5P.X$X.X4
  408378:	1960 3580 1968 3590 1970 2658 1978 3658     `..5h..5p.X&x.X6
  408388:	1980 3408 1988 3418 1990 2858 1998 3858     ...4...4..X(..X8
  408398:	19a0 3488 19a8 1a58 19b0 2a58 19b8 3a58     ...4..X...X*..X:
  4083a8:	19c0 3508 19c8 1c58 19d0 2c58 19d8 3c58     ...5..X...X,..X<
  4083b8:	19e0 3588 19e8 1e58 19f0 2e58 19f8 3e58     ...5..X...X...X>
  4083c8:	1a00 3800 1a08 3810 1a10 2098 1a18 3098     ...8...8... ...0
  4083d8:	1a20 3880 1a28 3890 1a30 2298 1a38 3298      ..8(..80.."8..2
  4083e8:	1a40 3900 1a48 3910 1a50 2498 1a58 3498     @..9H..9P..$X..4
  4083f8:	1a60 3980 1a68 3990 1a70 2698 1a78 3698     `..9h..9p..&x..6
  408408:	1a80 3808 1a88 3818 1a90 2898 1a98 3898     ...8...8...(...8
  408418:	1aa0 3888 1aa8 3898 1ab0 2a98 1ab8 3a98     ...8...8...*...:
  408428:	1ac0 3908 1ac8 1c98 1ad0 2c98 1ad8 3c98     ...9.......,...<
  408438:	1ae0 3988 1ae8 1e98 1af0 2e98 1af8 3e98     ...9...........>
  408448:	1b00 3c00 1b08 3c10 1b10 20d8 1b18 30d8     ...<...<... ...0
  408458:	1b20 3c80 1b28 3c90 1b30 22d8 1b38 32d8      ..<(..<0.."8..2
  408468:	1b40 3d00 1b48 3d10 1b50 24d8 1b58 34d8     @..=H..=P..$X..4
  408478:	1b60 3d80 1b68 3d90 1b70 26d8 1b78 36d8     `..=h..=p..&x..6
  408488:	1b80 3c08 1b88 3c18 1b90 28d8 1b98 38d8     ...<...<...(...8
  408498:	1ba0 3c88 1ba8 3c98 1bb0 2ad8 1bb8 3ad8     ...<...<...*...:
  4084a8:	1bc0 3d08 1bc8 1cd8 1bd0 2cd8 1bd8 3cd8     ...=.......,...<
  4084b8:	1be0 3d88 1be8 1ed8 1bf0 2ed8 1bf8 3ed8     ...=...........>
  4084c8:	1c00 3040 1c08 3050 1c10 2118 1c18 3118     ..@0..P0...!...1
  4084d8:	1c20 30c0 1c28 30d0 1c30 2318 1c38 3318      ..0(..00..#8..3
  4084e8:	1c40 3140 1c48 3150 1c50 2518 1c58 3518     @.@1H.P1P..%X..5
  4084f8:	1c60 31c0 1c68 31d0 1c70 2718 1c78 3718     `..1h..1p..'x..7
  408508:	1c80 3048 1c88 3058 1c90 2918 1c98 3918     ..H0..X0...)...9
  408518:	1ca0 30c8 1ca8 30d8 1cb0 2b18 1cb8 3b18     ...0...0...+...;
  408528:	1cc0 3148 1cc8 1d18 1cd0 2d18 1cd8 3d18     ..H1.......-...=
  408538:	1ce0 31c8 1ce8 1f18 1cf0 2f18 1cf8 3f18     ...1......./...?
  408548:	1d00 3440 1d08 3450 1d10 2158 1d18 3158     ..@4..P4..X!..X1
  408558:	1d20 34c0 1d28 34d0 1d30 2358 1d38 3358      ..4(..40.X#8.X3
  408568:	1d40 3540 1d48 3550 1d50 2558 1d58 3558     @.@5H.P5P.X%X.X5
  408578:	1d60 35c0 1d68 35d0 1d70 2758 1d78 3758     `..5h..5p.X'x.X7
  408588:	1d80 3448 1d88 3458 1d90 2958 1d98 3958     ..H4..X4..X)..X9
  408598:	1da0 34c8 1da8 34d8 1db0 2b58 1db8 3b58     ...4...4..X+..X;
  4085a8:	1dc0 3548 1dc8 3558 1dd0 2d58 1dd8 3d58     ..H5..X5..X-..X=
  4085b8:	1de0 35c8 1de8 1f58 1df0 2f58 1df8 3f58     ...5..X...X/..X?
  4085c8:	1e00 3840 1e08 3850 1e10 2198 1e18 3198     ..@8..P8...!...1
  4085d8:	1e20 38c0 1e28 38d0 1e30 2398 1e38 3398      ..8(..80..#8..3
  4085e8:	1e40 3940 1e48 3950 1e50 2598 1e58 3598     @.@9H.P9P..%X..5
  4085f8:	1e60 39c0 1e68 39d0 1e70 2798 1e78 3798     `..9h..9p..'x..7
  408608:	1e80 3848 1e88 3858 1e90 2998 1e98 3998     ..H8..X8...)...9
  408618:	1ea0 38c8 1ea8 38d8 1eb0 2b98 1eb8 3b98     ...8...8...+...;
  408628:	1ec0 3948 1ec8 3958 1ed0 2d98 1ed8 3d98     ..H9..X9...-...=
  408638:	1ee0 39c8 1ee8 1f98 1ef0 2f98 1ef8 3f98     ...9......./...?
  408648:	1f00 3c40 1f08 3c50 1f10 21d8 1f18 31d8     ..@<..P<...!...1
  408658:	1f20 3cc0 1f28 3cd0 1f30 23d8 1f38 33d8      ..<(..<0..#8..3
  408668:	1f40 3d40 1f48 3d50 1f50 25d8 1f58 35d8     @.@=H.P=P..%X..5
  408678:	1f60 3dc0 1f68 3dd0 1f70 27d8 1f78 37d8     `..=h..=p..'x..7
  408688:	1f80 3c48 1f88 3c58 1f90 29d8 1f98 39d8     ..H<..X<...)...9
  408698:	1fa0 3cc8 1fa8 3cd8 1fb0 2bd8 1fb8 3bd8     ...<...<...+...;
  4086a8:	1fc0 3d48 1fc8 3d58 1fd0 2dd8 1fd8 3dd8     ..H=..X=...-...=
  4086b8:	1fe0 3dc8 1fe8 3dd8 1ff0 2fd8 1ff8 3fd8     ...=...=.../...?
  4086c8:	2008 2080 2010 2020 2018 3020 2028 2880     . . .   .  0( .(
  4086d8:	2030 2220 2038 3220 2040 2100 2048 20c0     0  "8  2@ .!H . 
  4086e8:	2050 2420 2058 3420 2060 2410 2068 28c0     P  $X  4` .$h .(
  4086f8:	2070 2620 2078 3620 2088 3080 2090 2820     p  &x  6. .0.  (
  408708:	2098 3820 20a0 3008 20a8 3880 20b0 2a20     .  8. .0. .8.  *
  408718:	20b8 3a20 20c0 2108 20c8 30c0 20d0 2c20     .  :. .!. .0.  ,
  408728:	20d8 3c20 20e0 3108 20e8 38c0 20f0 2e20     .  <. .1. .8.  .
  408738:	20f8 3e20 2100 2400 2108 2180 2110 2410     .  >.!.$.!.!.!.$
  408748:	2118 3060 2120 2420 2128 2980 2130 2260     .!`0 ! $(!.)0!`"
  408758:	2138 3260 2140 2500 2148 21c0 2150 2460     8!`2@!.%H!.!P!`$
  408768:	2158 3460 2160 2450 2168 29c0 2170 2660     X!`4`!P$h!.)p!`&
  408778:	2178 3660 2180 2408 2188 3180 2190 2860     x!`6.!.$.!.1.!`(
  408788:	2198 3860 21a0 3408 21a8 3980 21b0 2a60     .!`8.!.4.!.9.!`*
  408798:	21b8 3a60 21c0 2508 21c8 31c0 21d0 2c60     .!`:.!.%.!.1.!`,
  4087a8:	21d8 3c60 21e0 3508 21e8 39c0 21f0 2e60     .!`<.!.5.!.9.!`.
  4087b8:	21f8 3e60 2200 3000 2208 3080 2210 3008     .!`>.".0.".0.".0
  4087c8:	2218 30a0 2220 3010 2228 2888 2230 22a0     .".0 ".0(".(0"."
  4087d8:	2238 32a0 2240 3040 2248 30c0 2250 24a0     8".2@"@0H".0P".$
  4087e8:	2258 34a0 2260 3050 2268 28c8 2270 26a0     X".4`"P0h".(p".&
  4087f8:	2278 36a0 2280 3020 2288 3088 2290 28a0     x".6." 0.".0.".(
  408808:	2298 38a0 22a0 3018 22a8 3888 22b0 2aa0     .".8.".0.".8.".*
  408818:	22b8 3aa0 22c0 3060 22c8 30c8 22d0 2ca0     .".:."`0.".0.".,
  408828:	22d8 3ca0 22e0 3118 22e8 38c8 22f0 2ea0     .".<.".1.".8."..
  408838:	22f8 3ea0 2300 3100 2308 3180 2310 3108     .".>.#.1.#.1.#.1
  408848:	2318 30e0 2320 3110 2328 2988 2330 3118     .#.0 #.1(#.)0#.1
  408858:	2338 32e0 2340 3140 2348 31c0 2350 24e0     8#.2@#@1H#.1P#.$
  408868:	2358 34e0 2360 3150 2368 29c8 2370 26e0     X#.4`#P1h#.)p#.&
  408878:	2378 36e0 2380 2418 2388 3188 2390 28e0     x#.6.#.$.#.1.#.(
  408888:	2398 38e0 23a0 3418 23a8 3988 23b0 2ae0     .#.8.#.4.#.9.#.*
  408898:	23b8 3ae0 23c0 2518 23c8 31c8 23d0 2ce0     .#.:.#.%.#.1.#.,
  4088a8:	23d8 3ce0 23e0 3518 23e8 39c8 23f0 2ee0     .#.<.#.5.#.9.#..
  4088b8:	23f8 3ee0 2408 2480 2410 2420 2418 3120     .#.>.$.$.$ $.$ 1
  4088c8:	2428 2c80 2430 3110 2438 3320 2440 2500     ($.,0$.18$ 3@$.%
  4088d8:	2448 24c0 2450 2520 2458 3520 2460 2510     H$.$P$ %X$ 5`$.%
  4088e8:	2468 2cc0 2470 2720 2478 3720 2488 3480     h$.,p$ 'x$ 7.$.4
  4088f8:	2490 2920 2498 3920 24a0 3048 24a8 3c80     .$ ).$ 9.$H0.$.<
  408908:	24b0 2b20 24b8 3b20 24c0 2508 24c8 34c0     .$ +.$ ;.$.%.$.4
  408918:	24d0 2d20 24d8 3d20 24e0 3148 24e8 3cc0     .$ -.$ =.$H1.$.<
  408928:	24f0 2f20 24f8 3f20 2508 2580 2510 2520     .$ /.$ ?.%.%.% %
  408938:	2518 3160 2528 2d80 2530 3150 2538 3360     .%`1(%.-0%P18%`3
  408948:	2548 25c0 2550 2560 2558 3560 2568 2dc0     H%.%P%`%X%`5h%.-
  408958:	2570 2760 2578 3760 2588 3580 2590 2960     p%`'x%`7.%.5.%`)
  408968:	2598 3960 25a0 3448 25a8 3d80 25b0 2b60     .%`9.%H4.%.=.%`+
  408978:	25b8 3b60 25c8 35c0 25d0 2d60 25d8 3d60     .%`;.%.5.%`-.%`=
  408988:	25e0 3548 25e8 3dc0 25f0 2f60 25f8 3f60     .%H5.%.=.%`/.%`?
  408998:	2600 3400 2608 3480 2610 3408 2618 31a0     .&.4.&.4.&.4.&.1
  4089a8:	2620 3410 2628 2c88 2630 3418 2638 33a0      &.4(&.,0&.48&.3
  4089b8:	2640 3440 2648 34c0 2650 3448 2658 35a0     @&@4H&.4P&H4X&.5
  4089c8:	2660 3450 2668 2cc8 2670 27a0 2678 37a0     `&P4h&.,p&.'x&.7
  4089d8:	2680 3420 2688 3488 2690 29a0 2698 39a0     .& 4.&.4.&.).&.9
  4089e8:	26a0 3058 26a8 3c88 26b0 2ba0 26b8 3ba0     .&X0.&.<.&.+.&.;
  4089f8:	26c0 3460 26c8 34c8 26d0 2da0 26d8 3da0     .&`4.&.4.&.-.&.=
  408a08:	26e0 3158 26e8 3cc8 26f0 2fa0 26f8 3fa0     .&X1.&.<.&./.&.?
  408a18:	2700 3500 2708 3580 2710 3508 2718 31e0     .'.5.'.5.'.5.'.1
  408a28:	2720 3510 2728 2d88 2730 3518 2738 33e0      '.5('.-0'.58'.3
  408a38:	2740 3540 2748 35c0 2750 3548 2758 35e0     @'@5H'.5P'H5X'.5
  408a48:	2760 3550 2768 2dc8 2770 27e0 2778 37e0     `'P5h'.-p'.'x'.7
  408a58:	2780 3520 2788 3588 2790 29e0 2798 39e0     .' 5.'.5.'.).'.9
  408a68:	27a0 3458 27a8 3d88 27b0 2be0 27b8 3be0     .'X4.'.=.'.+.'.;
  408a78:	27c0 3560 27c8 35c8 27d0 2de0 27d8 3de0     .'`5.'.5.'.-.'.=
  408a88:	27e0 3558 27e8 3dc8 27f0 2fe0 27f8 3fe0     .'X5.'.=.'./.'.?
  408a98:	2808 2820 2810 2880 2818 3028 2828 2890     .( (.(.(.((0((.(
  408aa8:	2830 2888 2838 3228 2840 2c00 2848 2c20     0(.(8((2@(.,H( ,
  408ab8:	2850 2c80 2858 3428 2860 2c08 2868 28d0     P(.,X((4`(.,h(.(
  408ac8:	2870 2c88 2878 3628 2888 3090 2898 3828     p(.,x((6.(.0.((8
  408ad8:	28a0 3028 28a8 3890 28b0 2a28 28b8 3a28     .((0.(.8.((*.((:
  408ae8:	28c0 2c10 28c8 30d0 28d0 2c28 28d8 3c28     .(.,.(.0.((,.((<
  408af8:	28e0 2c18 28e8 38d0 28f0 2e28 28f8 3e28     .(.,.(.8.((..((>
  408b08:	2900 2c00 2908 2c08 2910 2c10 2918 3068     .).,.).,.).,.)h0
  408b18:	2920 2c20 2928 2990 2930 30d0 2938 3268      ) ,().)0).08)h2
  408b28:	2940 2c40 2948 2c60 2950 2cc0 2958 3468     @)@,H)`,P).,X)h4
  408b38:	2960 2c48 2968 29d0 2970 2cc8 2978 3668     `)H,h).)p).,x)h6
  408b48:	2980 2c80 2988 3190 2990 2c28 2998 3868     .).,.).1.)(,.)h8
  408b58:	29a0 3428 29a8 3990 29b0 2a68 29b8 3a68     .)(4.).9.)h*.)h:
  408b68:	29c0 2c50 29c8 31d0 29d0 2c68 29d8 3c68     .)P,.).1.)h,.)h<
  408b78:	29e0 2c58 29e8 39d0 29f0 2e68 29f8 3e68     .)X,.).9.)h..)h>
  408b88:	2a00 3800 2a08 3820 2a10 3880 2a18 30a8     .*.8.* 8.*.8.*.0
  408b98:	2a20 3808 2a28 3828 2a30 3888 2a38 32a8      *.8(*(80*.88*.2
  408ba8:	2a40 3c00 2a48 3c20 2a50 3c80 2a58 34a8     @*.<H* <P*.<X*.4
  408bb8:	2a60 3c08 2a68 3c28 2a70 3c88 2a78 36a8     `*.<h*(<p*.<x*.6
  408bc8:	2a80 3810 2a88 3098 2a90 3890 2a98 38a8     .*.8.*.0.*.8.*.8
  408bd8:	2aa0 3818 2aa8 3898 2ab0 3898 2ab8 3aa8     .*.8.*.8.*.8.*.:
  408be8:	2ac0 3c10 2ac8 30d8 2ad0 2ca8 2ad8 3ca8     .*.<.*.0.*.,.*.<
  408bf8:	2ae0 3c18 2ae8 38d8 2af0 2ea8 2af8 3ea8     .*.<.*.8.*...*.>
  408c08:	2b00 3840 2b08 3860 2b10 38c0 2b18 30e8     .+@8.+`8.+.8.+.0
  408c18:	2b20 3848 2b28 3868 2b30 38c8 2b38 32e8      +H8(+h80+.88+.2
  408c28:	2b40 3c40 2b48 3c60 2b50 3cc0 2b58 34e8     @+@<H+`<P+.<X+.4
  408c38:	2b60 3c48 2b68 3c68 2b70 3cc8 2b78 36e8     `+H<h+h<p+.<x+.6
  408c48:	2b80 3850 2b88 3198 2b90 38d0 2b98 38e8     .+P8.+.1.+.8.+.8
  408c58:	2ba0 3858 2ba8 3998 2bb0 38d8 2bb8 3ae8     .+X8.+.9.+.8.+.:
  408c68:	2bc0 3c50 2bc8 31d8 2bd0 2ce8 2bd8 3ce8     .+P<.+.1.+.,.+.<
  408c78:	2be0 3c58 2be8 39d8 2bf0 2ee8 2bf8 3ee8     .+X<.+.9.+...+.>
  408c88:	2c08 2c20 2c10 2c80 2c18 3128 2c28 2c90     ., ,.,.,.,(1(,.,
  408c98:	2c30 3190 2c38 3328 2c40 2d00 2c48 2d20     0,.18,(3@,.-H, -
  408ca8:	2c50 2d80 2c58 3528 2c60 2d08 2c68 2cd0     P,.-X,(5`,.-h,.,
  408cb8:	2c70 2d88 2c78 3728 2c88 3490 2c98 3928     p,.-x,(7.,.4.,(9
  408cc8:	2ca0 3068 2ca8 3c90 2cb0 3868 2cb8 3b28     .,h0.,.<.,h8.,(;
  408cd8:	2cc0 2d10 2cc8 34d0 2cd0 2d28 2cd8 3d28     .,.-.,.4.,(-.,(=
  408ce8:	2ce0 2d18 2ce8 3cd0 2cf0 2f28 2cf8 3f28     .,.-.,.<.,(/.,(?
  408cf8:	2d08 2d20 2d10 2d80 2d18 3168 2d28 2d90     .- -.-.-.-h1(-.-
  408d08:	2d30 31d0 2d38 3368 2d48 2d60 2d50 2dc0     0-.18-h3H-`-P-.-
  408d18:	2d58 3568 2d68 2dd0 2d70 2dc8 2d78 3768     X-h5h-.-p-.-x-h7
  408d28:	2d88 3590 2d98 3968 2da0 3468 2da8 3d90     .-.5.-h9.-h4.-.=
  408d38:	2db0 3c68 2db8 3b68 2dc8 35d0 2dd8 3d68     .-h<.-h;.-.5.-h=
  408d48:	2de0 3568 2de8 3dd0 2df0 2f68 2df8 3f68     .-h5.-.=.-h/.-h?
  408d58:	2e00 3900 2e08 3920 2e10 3980 2e18 31a8     ...9.. 9...9...1
  408d68:	2e20 3908 2e28 3928 2e30 3988 2e38 33a8      ..9(.(90..98..3
  408d78:	2e40 3d00 2e48 3d20 2e50 3d80 2e58 35a8     @..=H. =P..=X..5
  408d88:	2e60 3d08 2e68 3d28 2e70 3d88 2e78 37a8     `..=h.(=p..=x..7
  408d98:	2e80 3910 2e88 3498 2e90 3990 2e98 39a8     ...9...4...9...9
  408da8:	2ea0 3918 2ea8 3c98 2eb0 3998 2eb8 3ba8     ...9...<...9...;
  408db8:	2ec0 3d10 2ec8 34d8 2ed0 3d90 2ed8 3da8     ...=...4...=...=
  408dc8:	2ee0 3d18 2ee8 3cd8 2ef0 2fa8 2ef8 3fa8     ...=...<.../...?
  408dd8:	2f00 3940 2f08 3960 2f10 39c0 2f18 31e8     ./@9./`9./.9./.1
  408de8:	2f20 3948 2f28 3968 2f30 39c8 2f38 33e8      /H9(/h90/.98/.3
  408df8:	2f40 3d40 2f48 3d60 2f50 3dc0 2f58 35e8     @/@=H/`=P/.=X/.5
  408e08:	2f60 3d48 2f68 3d68 2f70 3dc8 2f78 37e8     `/H=h/h=p/.=x/.7
  408e18:	2f80 3950 2f88 3598 2f90 39d0 2f98 39e8     ./P9./.5./.9./.9
  408e28:	2fa0 3958 2fa8 3d98 2fb0 39d8 2fb8 3be8     ./X9./.=./.9./.;
  408e38:	2fc0 3d50 2fc8 35d8 2fd0 3dd0 2fd8 3de8     ./P=./.5./.=./.=
  408e48:	2fe0 3d58 2fe8 3dd8 2ff0 3dd8 2ff8 3fe8     ./X=./.=./.=./.?
  408e58:	3018 3030 3038 3230 3040 3100 3048 3108     .0008002@0.1H0.1
  408e68:	3050 3110 3058 3430 3060 3120 3068 3128     P0.1X004`0 1h0(1
  408e78:	3070 3418 3078 3630 3088 30a0 3098 3830     p0.4x006.0.0.008
  408e88:	30a8 38a0 30b0 3888 30b8 3a30 30c0 3180     .0.8.0.8.00:.0.1
  408e98:	30c8 30e0 30d0 3190 30d8 3c30 30e0 3188     .0.0.0.1.00<.0.1
  408ea8:	30e8 38e0 30f0 3988 30f8 3e30 3100 3400     .0.8.0.9.00>.1.4
  408eb8:	3108 3408 3110 3410 3118 3418 3120 3420     .1.4.1.4.1.4 1 4
  408ec8:	3128 3428 3130 3430 3138 3270 3140 3500     (1(4010481p2@1.5
  408ed8:	3148 3508 3150 3510 3158 3470 3160 3520     H1.5P1.5X1p4`1 5
  408ee8:	3168 3528 3170 3458 3178 3670 3180 3480     h1(5p1X4x1p6.1.4
  408ef8:	3188 31a0 3190 3490 3198 3870 31a0 3488     .1.1.1.4.1p8.1.4
  408f08:	31a8 39a0 31b0 3c88 31b8 3a70 31c0 3580     .1.9.1.<.1p:.1.5
  408f18:	31c8 31e0 31d0 3590 31d8 3c70 31e0 3588     .1.1.1.5.1p<.1.5
  408f28:	31e8 39e0 31f0 3d88 31f8 3e70 3200 3800     .1.9.1.=.1p>.2.8
  408f38:	3208 3880 3210 3808 3218 3888 3220 3810     .2.8.2.8.2.8 2.8
  408f48:	3228 3890 3230 3818 3238 32b0 3240 3840     (2.802.882.2@2@8
  408f58:	3248 38c0 3250 3848 3258 34b0 3260 3850     H2.8P2H8X2.4`2P8
  408f68:	3268 38d0 3270 3858 3278 36b0 3280 3820     h2.8p2X8x2.6.2 8
  408f78:	3288 38a0 3290 3828 3298 38b0 32a0 3830     .2.8.2(8.2.8.208
  408f88:	32a8 38a8 32b0 3898 32b8 3ab0 32c0 3860     .2.8.2.8.2.:.2`8
  408f98:	32c8 38e0 32d0 3868 32d8 3cb0 32e0 3870     .2.8.2h8.2.<.2p8
  408fa8:	32e8 38e8 32f0 3998 32f8 3eb0 3300 3900     .2.8.2.9.2.>.3.9
  408fb8:	3308 3980 3310 3908 3318 3988 3320 3910     .3.9.3.9.3.9 3.9
  408fc8:	3328 3990 3330 3918 3338 3998 3340 3940     (3.903.983.9@3@9
  408fd8:	3348 39c0 3350 3948 3358 34f0 3360 3950     H3.9P3H9X3.4`3P9
  408fe8:	3368 39d0 3370 3958 3378 36f0 3380 3920     h3.9p3X9x3.6.3 9
  408ff8:	3388 39a0 3390 3928 3398 38f0 33a0 3498     .3.9.3(9.3.8.3.4
  409008:	33a8 39a8 33b0 3c98 33b8 3af0 33c0 3960     .3.9.3.<.3.:.3`9
  409018:	33c8 39e0 33d0 3968 33d8 3cf0 33e0 3598     .3.9.3h9.3.<.3.5
  409028:	33e8 39e8 33f0 3d98 33f8 3ef0 3418 3430     .3.9.3.=.3.>.404
  409038:	3438 3918 3440 3500 3448 3508 3450 3510     84.9@4.5H4.5P4.5
  409048:	3458 3530 3460 3520 3468 3528 3470 3518     X405`4 5h4(5p4.5
  409058:	3478 3730 3488 34a0 3498 3930 34a8 3ca0     x407.4.4.409.4.<
  409068:	34b0 38c8 34b8 3b30 34c0 3580 34c8 34e0     .4.8.40;.4.5.4.4
  409078:	34d0 3590 34d8 3d30 34e0 3588 34e8 3ce0     .4.5.40=.4.5.4.<
  409088:	34f0 39c8 34f8 3f30 3518 3530 3538 3958     .4.9.40?.50585X9
  409098:	3558 3570 3578 3770 3588 35a0 3598 3970     X5p5x5p7.5.5.5p9
  4090a8:	35a8 3da0 35b0 3cc8 35b8 3b70 35c8 35e0     .5.=.5.<.5p;.5.5
  4090b8:	35d8 3d70 35e8 3de0 35f0 3dc8 35f8 3f70     .5p=.5.=.5.=.5p?
  4090c8:	3600 3c00 3608 3c80 3610 3c08 3618 3c88     .6.<.6.<.6.<.6.<
  4090d8:	3620 3c10 3628 3c90 3630 3c18 3638 3c98      6.<(6.<06.<86.<
  4090e8:	3640 3c40 3648 3cc0 3650 3c48 3658 3cc8     @6@<H6.<P6H<X6.<
  4090f8:	3660 3c50 3668 3cd0 3670 3c58 3678 37b0     `6P<h6.<p6X<x6.7
  409108:	3680 3c20 3688 3ca0 3690 3c28 3698 39b0     .6 <.6.<.6(<.6.9
  409118:	36a0 3c30 36a8 3ca8 36b0 38d8 36b8 3bb0     .60<.6.<.6.8.6.;
  409128:	36c0 3c60 36c8 3ce0 36d0 3c68 36d8 3db0     .6`<.6.<.6h<.6.=
  409138:	36e0 3c70 36e8 3ce8 36f0 39d8 36f8 3fb0     .6p<.6.<.6.9.6.?
  409148:	3700 3d00 3708 3d80 3710 3d08 3718 3d88     .7.=.7.=.7.=.7.=
  409158:	3720 3d10 3728 3d90 3730 3d18 3738 3d98      7.=(7.=07.=87.=
  409168:	3740 3d40 3748 3dc0 3750 3d48 3758 3dc8     @7@=H7.=P7H=X7.=
  409178:	3760 3d50 3768 3dd0 3770 3d58 3778 37f0     `7P=h7.=p7X=x7.7
  409188:	3780 3d20 3788 3da0 3790 3d28 3798 39f0     .7 =.7.=.7(=.7.9
  409198:	37a0 3d30 37a8 3da8 37b0 3cd8 37b8 3bf0     .70=.7.=.7.<.7.;
  4091a8:	37c0 3d60 37c8 3de0 37d0 3d68 37d8 3df0     .7`=.7.=.7h=.7.=
  4091b8:	37e0 3d70 37e8 3de8 37f0 3dd8 37f8 3ff0     .7p=.7.=.7.=.7.?
  4091c8:	3838 3898 3840 3900 3848 3908 3850 3910     88.8@8.9H8.9P8.9
  4091d8:	3858 3918 3860 3920 3868 3928 3870 3930     X8.9`8 9h8(9p809
  4091e8:	3878 3c98 38a8 38b0 38b8 3a38 38c0 3980     x8.<.8.8.88:.8.9
  4091f8:	38c8 3988 38d0 3990 38d8 3c38 38e0 39a0     .8.9.8.9.88<.8.9
  409208:	38e8 38f0 38f8 3e38 38f0 39a8 3900 3c00     .8.8.88>.8.9.9.<
  409218:	3908 3c08 3910 3c10 3918 3c18 3920 3c20     .9.<.9.<.9.< 9 <
  409228:	3928 3c28 3930 3c30 3938 3c38 3940 3d00     (9(<090<898<@9.=
  409238:	3948 3d08 3950 3d10 3958 3d18 3960 3d20     H9.=P9.=X9.=`9 =
  409248:	3968 3d28 3970 3d30 3978 3cd8 3980 3c80     h9(=p90=x9.<.9.<
  409258:	3988 3c88 3990 3c90 3998 3c98 39a0 3ca0     .9.<.9.<.9.<.9.<
  409268:	39a8 39b0 39b8 3a78 39b0 3ca8 39c0 3d80     .9.9.9x:.9.<.9.=
  409278:	39c8 3d88 39d0 3d90 39d8 3c78 39e0 3da0     .9.=.9.=.9x<.9.=
  409288:	39e8 39f0 39f8 3e78 39f0 3da8 3a08 3a10     .9.9.9x>.9.=.:.:
  409298:	3a10 3a20 3a18 3a30 3a20 3a80 3a28 3a90     .: :.:0: :.:(:.:
  4092a8:	3a30 3aa0 3a38 3ab0 3a40 3b00 3a48 3b10     0:.:8:.:@:.;H:.;
  4092b8:	3a50 3b20 3a58 3b30 3a60 3b80 3a68 3b90     P: ;X:0;`:.;h:.;
  4092c8:	3a70 3ba0 3a78 3bb0 3a88 3aa0 3a98 3ab0     p:.;x:.;.:.:.:.:
  4092d8:	3aa8 3ab0 3ac0 3b08 3ac8 3b18 3ad0 3b28     .:.:.:.;.:.;.:(;
  4092e8:	3ad8 3cb8 3ae0 3b88 3ae8 3b98 3af0 3ba8     .:.<.:.;.:.;.:.;
  4092f8:	3af8 3eb8 3b00 3e00 3b08 3e10 3b10 3e20     .:.>.;.>.;.>.; >
  409308:	3b18 3e30 3b20 3e80 3b28 3e90 3b30 3ea0     .;0> ;.>(;.>0;.>
  409318:	3b38 3eb0 3b40 3f00 3b48 3f10 3b50 3f20     8;.>@;.?H;.?P; ?
  409328:	3b58 3f30 3b60 3f80 3b68 3f90 3b70 3fa0     X;0?`;.?h;.?p;.?
  409338:	3b78 3fb0 3b80 3e08 3b88 3e18 3b90 3e28     x;.?.;.>.;.>.;(>
  409348:	3b98 3e38 3ba0 3e88 3ba8 3e98 3bb0 3ea8     .;8>.;.>.;.>.;.>
  409358:	3bb8 3eb8 3bc0 3f08 3bc8 3f18 3bd0 3f28     .;.>.;.?.;.?.;(?
  409368:	3bd8 3cf8 3be0 3f88 3be8 3f98 3bf0 3fa8     .;.<.;.?.;.?.;.?
  409378:	3bf8 3ef8 3c38 3c98 3c40 3d00 3c48 3d08     .;.>8<.<@<.=H<.=
  409388:	3c50 3d10 3c58 3d18 3c60 3d20 3c68 3d28     P<.=X<.=`< =h<(=
  409398:	3c70 3d30 3c78 3d98 3ca8 3cb0 3cb8 3eb0     p<0=x<.=.<.<.<.>
  4093a8:	3cc0 3d80 3cc8 3d88 3cd0 3d90 3cd8 3d38     .<.=.<.=.<.=.<8=
  4093b8:	3ce0 3da0 3ce8 3cf0 3cf0 3da8 3cf8 3f38     .<.=.<.<.<.=.<8?
  4093c8:	3d38 3d98 3d78 3dd8 3da8 3db0 3db8 3fb0     8=.=x=.=.=.=.=.?
  4093d8:	3de8 3df0 3e08 3e80 3df8 3f78 3e10 3e80     .=.=.>.>.=x?.>.>
  4093e8:	3e18 3e88 3e20 3e80 3e28 3e90 3e30 3e88     .>.> >.>(>.>0>.>
  4093f8:	3e38 3e98 3e40 3f00 3e48 3f20 3e50 3f80     8>.>@>.?H> ?P>.?
  409408:	3e58 3fa0 3e60 3f08 3e68 3f28 3e70 3f88     X>.?`>.?h>(?p>.?
  409418:	3e78 3fa8 3e88 3ea0 3e98 3ea8 3ec0 3f10     x>.?.>.>.>.>.>.?
  409428:	3ea8 3eb0 3ec8 3f30 3ed0 3f90 3ed8 3fb0     .>.>.>0?.>.?.>.?
  409438:	3ee0 3f18 3ee8 3f38 3ef0 3f98 3f08 3f80     .>.?.>8?.>.?.?.?
  409448:	3ef8 3fb8 3f10 3f80 3f18 3f88 3f20 3f80     .>.?.?.?.?.? ?.?
  409458:	3f28 3f90 3f30 3f88 3f38 3f98 3f48 3f50     (?.?0?.?8?.?H?P?
  409468:	3f50 3f60 3f58 3f70 3f60 3fc0 3f68 3fd0     P?`?X?p?`?.?h?.?
  409478:	3f70 3fe0 3f78 3ff0 3f88 3fa0 3f98 3fa8     p?.?x?.?.?.?.?.?
  409488:	3fa8 3fb0 3fd8 3ff0 3fc8 3fe0 3fe8 3ff0     .?.?.?.?.?.?.?.?

00409498 <armBitRevIndexTable256>:
  409498:	0008 0200 0010 0400 0018 0600 0020 0040     ............ .@.
  4094a8:	0028 0240 0030 0440 0038 0640 0040 0080     (.@.0.@.8.@.@...
  4094b8:	0048 0280 0050 0480 0058 0680 0060 00c0     H...P...X...`...
  4094c8:	0068 02c0 0070 04c0 0078 06c0 0080 0100     h...p...x.......
  4094d8:	0088 0300 0090 0500 0098 0700 00a0 0140     ..............@.
  4094e8:	00a8 0340 00b0 0540 00b8 0740 00c0 0180     ..@...@...@.....
  4094f8:	00c8 0380 00d0 0580 00d8 0780 00e0 01c0     ................
  409508:	00e8 03c0 00f0 05c0 00f8 07c0 0100 0200     ................
  409518:	0108 0208 0110 0408 0118 0608 0120 0280     ............ ...
  409528:	0128 0248 0130 0448 0138 0648 0140 0300     (.H.0.H.8.H.@...
  409538:	0148 0288 0150 0488 0158 0688 0160 0380     H...P...X...`...
  409548:	0168 02c8 0170 04c8 0178 06c8 0180 0208     h...p...x.......
  409558:	0188 0308 0190 0508 0198 0708 01a0 0288     ................
  409568:	01a8 0348 01b0 0548 01b8 0748 01c0 0308     ..H...H...H.....
  409578:	01c8 0388 01d0 0588 01d8 0788 01e0 0388     ................
  409588:	01e8 03c8 01f0 05c8 01f8 07c8 0208 0210     ................
  409598:	0200 0400 0210 0410 0218 0610 0220 0480     ............ ...
  4095a8:	0228 0250 0230 0450 0238 0650 0240 0500     (.P.0.P.8.P.@...
  4095b8:	0248 0290 0250 0490 0258 0690 0260 0580     H...P...X...`...
  4095c8:	0268 02d0 0270 04d0 0278 06d0 0280 0408     h...p...x.......
  4095d8:	0288 0310 0290 0510 0298 0710 02a0 0488     ................
  4095e8:	02a8 0350 02b0 0550 02b8 0750 02c0 0508     ..P...P...P.....
  4095f8:	02c8 0390 02d0 0590 02d8 0790 02e0 0588     ................
  409608:	02e8 03d0 02f0 05d0 02f8 07d0 0300 0600     ................
  409618:	0308 0610 0310 0418 0318 0618 0320 0680     ............ ...
  409628:	0328 0690 0330 0458 0338 0658 0340 0700     (...0.X.8.X.@...
  409638:	0348 0710 0350 0498 0358 0698 0360 0780     H...P...X...`...
  409648:	0368 0790 0370 04d8 0378 06d8 0380 0608     h...p...x.......
  409658:	0388 0618 0390 0518 0398 0718 03a0 0688     ................
  409668:	03a8 0698 03b0 0558 03b8 0758 03c0 0708     ......X...X.....
  409678:	03c8 0718 03d0 0598 03d8 0798 03e0 0788     ................
  409688:	03e8 0798 03f0 05d8 03f8 07d8 0408 0480     ................
  409698:	0410 0420 0418 0620 0428 0580 0430 0460     .. ... .(...0.`.
  4096a8:	0438 0660 0440 0600 0448 0488 0450 04a0     8.`.@...H...P...
  4096b8:	0458 06a0 0460 0610 0468 0588 0470 04e0     X...`...h...p...
  4096c8:	0478 06e0 0488 0680 0490 0520 0498 0720     x......... ... .
  4096d8:	04a0 0608 04a8 0780 04b0 0560 04b8 0760     ..........`...`.
  4096e8:	04c0 0620 04c8 0688 04d0 05a0 04d8 07a0     .. .............
  4096f8:	04e0 0618 04e8 0788 04f0 05e0 04f8 07e0     ................
  409708:	0508 0520 0510 0580 0518 0628 0528 0590     .. .......(.(...
  409718:	0530 0588 0538 0668 0540 0700 0548 0720     0...8.h.@...H. .
  409728:	0550 0780 0558 06a8 0560 0708 0568 0598     P...X...`...h...
  409738:	0570 0788 0578 06e8 0588 0690 0598 0728     p...x.........(.
  409748:	05a0 0628 05a8 0790 05b0 0728 05b8 0768     ..(.......(...h.
  409758:	05c0 0710 05c8 0698 05d0 0790 05d8 07a8     ................
  409768:	05e0 0718 05e8 0798 05f0 0798 05f8 07e8     ................
  409778:	0618 0630 0638 0670 0640 0700 0648 0780     ..0.8.p.@...H...
  409788:	0650 0708 0658 06b0 0660 0710 0668 0790     P...X...`...h...
  409798:	0670 0718 0678 06f0 0688 06a0 0698 0730     p...x.........0.
  4097a8:	06a8 07a0 06b0 0788 06b8 0770 06c0 0720     ..........p... .
  4097b8:	06c8 07a0 06d0 0728 06d8 07b0 06e0 0730     ......(.......0.
  4097c8:	06e8 07a8 06f0 0798 06f8 07f0 0748 0750     ............H.P.
  4097d8:	0738 0798 0750 0760 0758 0770 0760 07c0     8...P.`.X.p.`...
  4097e8:	0768 07d0 0778 07f0 0770 07e0 07b8 07f0     h...x...p.......
  4097f8:	07a8 07b0 07d8 07f0 07c8 07e0 07e8 07f0     ................

00409808 <armBitRevIndexTable512>:
  409808:	0008 0200 0010 0400 0018 0600 0020 0800     ............ ...
  409818:	0028 0a00 0030 0c00 0038 0e00 0048 0240     (...0...8...H.@.
  409828:	0050 0440 0058 0640 0060 0840 0068 0a40     P.@.X.@.`.@.h.@.
  409838:	0070 0c40 0078 0e40 0088 0280 0090 0480     p.@.x.@.........
  409848:	0098 0680 00a0 0880 00a8 0a80 00b0 0c80     ................
  409858:	00b8 0e80 00c8 02c0 00d0 04c0 00d8 06c0     ................
  409868:	00e0 08c0 00e8 0ac0 00f0 0cc0 00f8 0ec0     ................
  409878:	0108 0300 0110 0500 0118 0700 0120 0900     ............ ...
  409888:	0128 0b00 0130 0d00 0138 0f00 0148 0340     (...0...8...H.@.
  409898:	0150 0540 0158 0740 0160 0940 0168 0b40     P.@.X.@.`.@.h.@.
  4098a8:	0170 0d40 0178 0f40 0188 0380 0190 0580     p.@.x.@.........
  4098b8:	0198 0780 01a0 0980 01a8 0b80 01b0 0d80     ................
  4098c8:	01b8 0f80 01c8 03c0 01d0 05c0 01d8 07c0     ................
  4098d8:	01e0 09c0 01e8 0bc0 01f0 0dc0 01f8 0fc0     ................
  4098e8:	0210 0408 0218 0608 0220 0808 0228 0a08     ........ ...(...
  4098f8:	0230 0c08 0238 0e08 0250 0448 0258 0648     0...8...P.H.X.H.
  409908:	0260 0848 0268 0a48 0270 0c48 0278 0e48     `.H.h.H.p.H.x.H.
  409918:	0290 0488 0298 0688 02a0 0888 02a8 0a88     ................
  409928:	02b0 0c88 02b8 0e88 02d0 04c8 02d8 06c8     ................
  409938:	02e0 08c8 02e8 0ac8 02f0 0cc8 02f8 0ec8     ................
  409948:	0310 0508 0318 0708 0320 0908 0328 0b08     ........ ...(...
  409958:	0330 0d08 0338 0f08 0350 0548 0358 0748     0...8...P.H.X.H.
  409968:	0360 0948 0368 0b48 0370 0d48 0378 0f48     `.H.h.H.p.H.x.H.
  409978:	0390 0588 0398 0788 03a0 0988 03a8 0b88     ................
  409988:	03b0 0d88 03b8 0f88 03d0 05c8 03d8 07c8     ................
  409998:	03e0 09c8 03e8 0bc8 03f0 0dc8 03f8 0fc8     ................
  4099a8:	0418 0610 0420 0810 0428 0a10 0430 0c10     .... ...(...0...
  4099b8:	0438 0e10 0458 0650 0460 0850 0468 0a50     8...X.P.`.P.h.P.
  4099c8:	0470 0c50 0478 0e50 0498 0690 04a0 0890     p.P.x.P.........
  4099d8:	04a8 0a90 04b0 0c90 04b8 0e90 04d8 06d0     ................
  4099e8:	04e0 08d0 04e8 0ad0 04f0 0cd0 04f8 0ed0     ................
  4099f8:	0518 0710 0520 0910 0528 0b10 0530 0d10     .... ...(...0...
  409a08:	0538 0f10 0558 0750 0560 0950 0568 0b50     8...X.P.`.P.h.P.
  409a18:	0570 0d50 0578 0f50 0598 0790 05a0 0990     p.P.x.P.........
  409a28:	05a8 0b90 05b0 0d90 05b8 0f90 05d8 07d0     ................
  409a38:	05e0 09d0 05e8 0bd0 05f0 0dd0 05f8 0fd0     ................
  409a48:	0620 0818 0628 0a18 0630 0c18 0638 0e18      ...(...0...8...
  409a58:	0660 0858 0668 0a58 0670 0c58 0678 0e58     `.X.h.X.p.X.x.X.
  409a68:	06a0 0898 06a8 0a98 06b0 0c98 06b8 0e98     ................
  409a78:	06e0 08d8 06e8 0ad8 06f0 0cd8 06f8 0ed8     ................
  409a88:	0720 0918 0728 0b18 0730 0d18 0738 0f18      ...(...0...8...
  409a98:	0760 0958 0768 0b58 0770 0d58 0778 0f58     `.X.h.X.p.X.x.X.
  409aa8:	07a0 0998 07a8 0b98 07b0 0d98 07b8 0f98     ................
  409ab8:	07e0 09d8 07e8 0bd8 07f0 0dd8 07f8 0fd8     ................
  409ac8:	0828 0a20 0830 0c20 0838 0e20 0868 0a60     (. .0. .8. .h.`.
  409ad8:	0870 0c60 0878 0e60 08a8 0aa0 08b0 0ca0     p.`.x.`.........
  409ae8:	08b8 0ea0 08e8 0ae0 08f0 0ce0 08f8 0ee0     ................
  409af8:	0928 0b20 0930 0d20 0938 0f20 0968 0b60     (. .0. .8. .h.`.
  409b08:	0970 0d60 0978 0f60 09a8 0ba0 09b0 0da0     p.`.x.`.........
  409b18:	09b8 0fa0 09e8 0be0 09f0 0de0 09f8 0fe0     ................
  409b28:	0a30 0c28 0a38 0e28 0a70 0c68 0a78 0e68     0.(.8.(.p.h.x.h.
  409b38:	0ab0 0ca8 0ab8 0ea8 0af0 0ce8 0af8 0ee8     ................
  409b48:	0b30 0d28 0b38 0f28 0b70 0d68 0b78 0f68     0.(.8.(.p.h.x.h.
  409b58:	0bb0 0da8 0bb8 0fa8 0bf0 0de8 0bf8 0fe8     ................
  409b68:	0c38 0e30 0c78 0e70 0cb8 0eb0 0cf8 0ef0     8.0.x.p.........
  409b78:	0d38 0f30 0d78 0f70 0db8 0fb0 0df8 0ff0     8.0.x.p.........

00409b88 <twiddleCoef_1024>:
  409b88:	0000 3f80 0000 0000 fec4 3f7f 0f89 3bc9     ...?.......?...;
  409b98:	fb11 3f7f 0e90 3c49 f4e6 3f7f c9b6 3c96     ...?..I<...?...<
  409ba8:	ec43 3f7f 0ab0 3cc9 e129 3f7f 49b9 3cfb     C..?...<)..?.I.<
  409bb8:	d398 3f7f c32c 3d16 c38f 3f7f e007 3d2f     ...?,..=...?../=
  409bc8:	b10f 3f7f fb2f 3d48 9c18 3f7f 1468 3d62     ...?/.H=...?h.b=
  409bd8:	84ab 3f7f 2b74 3d7b 6ac7 3f7f 200a 3d8a     ...?t+{=.j.?. .=
  409be8:	4e6d 3f7f a905 3d96 2f9d 3f7f 308c 3da3     mN.?...=./.?.0.=
  409bf8:	0e58 3f7f b680 3daf ea9d 3f7e 3ac3 3dbc     X..?...=..~?.:.=
  409c08:	c46d 3f7e bd36 3dc8 9bc9 3f7e 3db9 3dd5     m.~?6..=..~?.=.=
  409c18:	70b0 3f7e bc2e 3de1 4323 3f7e 3876 3dee     .p~?...=#C~?v8.=
  409c28:	1324 3f7e b273 3dfa e0b1 3f7d 9502 3e03     $.~?s..=..}?...>
  409c38:	abcc 3f7d cf86 3e09 7474 3f7d 08b7 3e10     ..}?...>tt}?...>
  409c48:	3aac 3f7d 4083 3e16 fe73 3f7c 76de 3e1c     .:}?.@.>s.|?.v.>
  409c58:	bfc9 3f7c abb6 3e22 7eb0 3f7c defc 3e28     ..|?..">.~|?..(>
  409c68:	3b28 3f7c 10a2 3e2f f531 3f7b 4098 3e35     (;|?../>1.{?.@5>
  409c78:	accd 3f7b 6ecf 3e3b 61fc 3f7b 9b37 3e41     ..{?.n;>.a{?7.A>
  409c88:	14be 3f7b c5c2 3e47 c516 3f7a ee60 3e4d     ..{?..G>..z?`.M>
  409c98:	7302 3f7a 1501 3e54 1e84 3f7a 3997 3e5a     .sz?..T>..z?.9Z>
  409ca8:	c79d 3f79 5c13 3e60 6e4e 3f79 7c66 3e66     ..y?.\`>Nny?f|f>
  409cb8:	1298 3f79 9a7f 3e6c b47b 3f78 b651 3e72     ..y?..l>{.x?Q.r>
  409cc8:	53f8 3f78 cfcc 3e78 f110 3f77 e6e1 3e7e     .Sx?..x>..w?..~>
  409cd8:	8bc5 3f77 7dc0 3e82 2417 3f77 86ce 3e85     ..w?.}.>.$w?...>
  409ce8:	ba07 3f76 8e93 3e88 4d97 3f76 9507 3e8b     ..v?...>.Mv?...>
  409cf8:	dec6 3f75 9a22 3e8e 6d97 3f75 9ddd 3e91     ..u?"..>.mu?...>
  409d08:	fa0b 3f74 a031 3e94 8422 3f74 a117 3e97     ..t?1..>".t?...>
  409d18:	0bdd 3f74 a086 3e9a 913f 3f73 9e78 3e9d     ..t?...>?.s?x..>
  409d28:	1447 3f73 9ae5 3ea0 94f8 3f72 95c5 3ea3     G.s?...>..r?...>
  409d38:	1352 3f72 8f12 3ea6 8f57 3f71 86c4 3ea9     R.r?...>W.q?...>
  409d48:	0908 3f71 7cd4 3eac 8066 3f70 713a 3eaf     ..q?.|.>f.p?:q.>
  409d58:	f573 3f6f 63ef 3eb2 6830 3f6f 54ec 3eb5     s.o?.c.>0ho?.T.>
  409d68:	d89e 3f6e 442a 3eb8 46be 3f6e 31a0 3ebb     ..n?*D.>.Fn?.1.>
  409d78:	b293 3f6d 1d4a 3ebe 1c1d 3f6d 071e 3ec1     ..m?J..>..m?...>
  409d88:	835e 3f6c ef15 3ec3 e858 3f6b d529 3ec6     ^.l?...>X.k?)..>
  409d98:	4b0c 3f6b b953 3ec9 ab7b 3f6a 9b8b 3ecc     .Kk?S..>{.j?...>
  409da8:	09a7 3f6a 7bca 3ecf 6591 3f69 5a09 3ed2     ..j?.{.>.ei?.Z.>
  409db8:	bf3c 3f68 3641 3ed5 16a8 3f68 106b 3ed8     <.h?A6.>..h?k..>
  409dc8:	6bd8 3f67 e880 3eda becc 3f66 be79 3edd     .kg?...>..f?y..>
  409dd8:	0f88 3f66 924f 3ee0 5e0b 3f65 63fa 3ee3     ..f?O..>.^e?.c.>
  409de8:	aa59 3f64 3375 3ee6 f473 3f63 00b7 3ee9     Y.d?u3.>s.c?...>
  409df8:	3c5a 3f63 cbbb 3eeb 8210 3f62 9479 3eee     Z<c?...>..b?y..>
  409e08:	c598 3f61 5aea 3ef1 06f2 3f61 1f07 3ef4     ..a?.Z.>..a?...>
  409e18:	4621 3f60 e0cb 3ef6 8327 3f5f a02d 3ef9     !F`?...>'._?-..>
  409e28:	be05 3f5e 5d27 3efc f6be 3f5d 17b2 3eff     ..^?'].>..]?...>
  409e38:	2d53 3f5d e7e4 3f00 61c7 3f5c 42b1 3f02     S-]?...?.a\?.B.?
  409e48:	941a 3f5b 9c3d 3f03 c450 3f5a f484 3f04     ..[?=..?P.Z?...?
  409e58:	f26a 3f59 4b82 3f06 1e6a 3f59 a136 3f07     j.Y?.K.?j.Y?6..?
  409e68:	4853 3f58 f59b 3f08 7026 3f57 48ad 3f0a     SHX?...?&pW?.H.?
  409e78:	95e5 3f56 9a6b 3f0b b993 3f55 ead0 3f0c     ..V?k..?..U?...?
  409e88:	db31 3f54 39da 3f0e fac3 3f53 8784 3f0f     1.T?.9.?..S?...?
  409e98:	1849 3f53 d3cd 3f10 33c6 3f52 1eb0 3f12     I.S?...?.3R?...?
  409ea8:	4d3d 3f51 682a 3f13 64af 3f50 b039 3f14     =MQ?*h.?.dP?9..?
  409eb8:	7a1f 3f4f f6d9 3f15 8d90 3f4e 3c07 3f17     .zO?...?..N?.<.?
  409ec8:	9f02 3f4d 7fc0 3f18 ae79 3f4c c200 3f19     ..M?...?y.L?...?
  409ed8:	bbf8 3f4b 02c6 3f1b c77f 3f4a 420c 3f1c     ..K?...?..J?.B.?
  409ee8:	d112 3f49 7fd1 3f1d d8b3 3f48 bc12 3f1e     ..I?...?..H?...?
  409ef8:	de65 3f47 f6cb 3f1f e22a 3f46 2ff9 3f21     e.G?...?*.F?./!?
  409f08:	e403 3f45 6799 3f22 e3f5 3f44 9da9 3f23     ..E?.g"?..D?..#?
  409f18:	e200 3f43 d225 3f24 de29 3f42 050a 3f26     ..C?%.$?).B?..&?
  409f28:	d870 3f41 3656 3f27 d0da 3f40 6605 3f28     p.A?V6'?..@?.f(?
  409f38:	c767 3f3f 9415 3f29 bc1b 3f3e c082 3f2a     g.??..)?..>?..*?
  409f48:	aef9 3f3d eb4a 3f2b a003 3f3c 1469 3f2d     ..=?J.+?..<?i.-?
  409f58:	8f3b 3f3b 3bde 3f2e 7ca4 3f3a 61a5 3f2f     ;.;?.;.?.|:?.a/?
  409f68:	6842 3f39 85bb 3f30 5216 3f38 a81d 3f31     Bh9?..0?.R8?..1?
  409f78:	3a23 3f37 c8c9 3f32 206c 3f36 e7bc 3f33     #:7?..2?l 6?..3?
  409f88:	04f3 3f35 04f3 3f35 e7bc 3f33 206c 3f36     ..5?..5?..3?l 6?
  409f98:	c8c9 3f32 3a23 3f37 a81d 3f31 5216 3f38     ..2?#:7?..1?.R8?
  409fa8:	85bb 3f30 6842 3f39 61a5 3f2f 7ca4 3f3a     ..0?Bh9?.a/?.|:?
  409fb8:	3bde 3f2e 8f3b 3f3b 1469 3f2d a003 3f3c     .;.?;.;?i.-?..<?
  409fc8:	eb4a 3f2b aef9 3f3d c082 3f2a bc1b 3f3e     J.+?..=?..*?..>?
  409fd8:	9415 3f29 c767 3f3f 6605 3f28 d0da 3f40     ..)?g.??.f(?..@?
  409fe8:	3656 3f27 d870 3f41 050a 3f26 de29 3f42     V6'?p.A?..&?).B?
  409ff8:	d225 3f24 e200 3f43 9da9 3f23 e3f5 3f44     %.$?..C?..#?..D?
  40a008:	6799 3f22 e403 3f45 2ff9 3f21 e22a 3f46     .g"?..E?./!?*.F?
  40a018:	f6cb 3f1f de65 3f47 bc12 3f1e d8b3 3f48     ...?e.G?...?..H?
  40a028:	7fd1 3f1d d112 3f49 420c 3f1c c77f 3f4a     ...?..I?.B.?..J?
  40a038:	02c6 3f1b bbf8 3f4b c200 3f19 ae79 3f4c     ...?..K?...?y.L?
  40a048:	7fc0 3f18 9f02 3f4d 3c07 3f17 8d90 3f4e     ...?..M?.<.?..N?
  40a058:	f6d9 3f15 7a1f 3f4f b039 3f14 64af 3f50     ...?.zO?9..?.dP?
  40a068:	682a 3f13 4d3d 3f51 1eb0 3f12 33c6 3f52     *h.?=MQ?...?.3R?
  40a078:	d3cd 3f10 1849 3f53 8784 3f0f fac3 3f53     ...?I.S?...?..S?
  40a088:	39da 3f0e db31 3f54 ead0 3f0c b993 3f55     .9.?1.T?...?..U?
  40a098:	9a6b 3f0b 95e5 3f56 48ad 3f0a 7026 3f57     k..?..V?.H.?&pW?
  40a0a8:	f59b 3f08 4853 3f58 a136 3f07 1e6a 3f59     ...?SHX?6..?j.Y?
  40a0b8:	4b82 3f06 f26a 3f59 f484 3f04 c450 3f5a     .K.?j.Y?...?P.Z?
  40a0c8:	9c3d 3f03 941a 3f5b 42b1 3f02 61c7 3f5c     =..?..[?.B.?.a\?
  40a0d8:	e7e4 3f00 2d53 3f5d 17b2 3eff f6be 3f5d     ...?S-]?...>..]?
  40a0e8:	5d27 3efc be05 3f5e a02d 3ef9 8327 3f5f     '].>..^?-..>'._?
  40a0f8:	e0cb 3ef6 4621 3f60 1f07 3ef4 06f2 3f61     ...>!F`?...>..a?
  40a108:	5aea 3ef1 c598 3f61 9479 3eee 8210 3f62     .Z.>..a?y..>..b?
  40a118:	cbbb 3eeb 3c5a 3f63 00b7 3ee9 f473 3f63     ...>Z<c?...>s.c?
  40a128:	3375 3ee6 aa59 3f64 63fa 3ee3 5e0b 3f65     u3.>Y.d?.c.>.^e?
  40a138:	924f 3ee0 0f88 3f66 be79 3edd becc 3f66     O..>..f?y..>..f?
  40a148:	e880 3eda 6bd8 3f67 106b 3ed8 16a8 3f68     ...>.kg?k..>..h?
  40a158:	3641 3ed5 bf3c 3f68 5a09 3ed2 6591 3f69     A6.><.h?.Z.>.ei?
  40a168:	7bca 3ecf 09a7 3f6a 9b8b 3ecc ab7b 3f6a     .{.>..j?...>{.j?
  40a178:	b953 3ec9 4b0c 3f6b d529 3ec6 e858 3f6b     S..>.Kk?)..>X.k?
  40a188:	ef15 3ec3 835e 3f6c 071e 3ec1 1c1d 3f6d     ...>^.l?...>..m?
  40a198:	1d4a 3ebe b293 3f6d 31a0 3ebb 46be 3f6e     J..>..m?.1.>.Fn?
  40a1a8:	442a 3eb8 d89e 3f6e 54ec 3eb5 6830 3f6f     *D.>..n?.T.>0ho?
  40a1b8:	63ef 3eb2 f573 3f6f 713a 3eaf 8066 3f70     .c.>s.o?:q.>f.p?
  40a1c8:	7cd4 3eac 0908 3f71 86c4 3ea9 8f57 3f71     .|.>..q?...>W.q?
  40a1d8:	8f12 3ea6 1352 3f72 95c5 3ea3 94f8 3f72     ...>R.r?...>..r?
  40a1e8:	9ae5 3ea0 1447 3f73 9e78 3e9d 913f 3f73     ...>G.s?x..>?.s?
  40a1f8:	a086 3e9a 0bdd 3f74 a117 3e97 8422 3f74     ...>..t?...>".t?
  40a208:	a031 3e94 fa0b 3f74 9ddd 3e91 6d97 3f75     1..>..t?...>.mu?
  40a218:	9a22 3e8e dec6 3f75 9507 3e8b 4d97 3f76     "..>..u?...>.Mv?
  40a228:	8e93 3e88 ba07 3f76 86ce 3e85 2417 3f77     ...>..v?...>.$w?
  40a238:	7dc0 3e82 8bc5 3f77 e6e1 3e7e f110 3f77     .}.>..w?..~>..w?
  40a248:	cfcc 3e78 53f8 3f78 b651 3e72 b47b 3f78     ..x>.Sx?Q.r>{.x?
  40a258:	9a7f 3e6c 1298 3f79 7c66 3e66 6e4e 3f79     ..l>..y?f|f>Nny?
  40a268:	5c13 3e60 c79d 3f79 3997 3e5a 1e84 3f7a     .\`>..y?.9Z>..z?
  40a278:	1501 3e54 7302 3f7a ee60 3e4d c516 3f7a     ..T>.sz?`.M>..z?
  40a288:	c5c2 3e47 14be 3f7b 9b37 3e41 61fc 3f7b     ..G>..{?7.A>.a{?
  40a298:	6ecf 3e3b accd 3f7b 4098 3e35 f531 3f7b     .n;>..{?.@5>1.{?
  40a2a8:	10a2 3e2f 3b28 3f7c defc 3e28 7eb0 3f7c     ../>(;|?..(>.~|?
  40a2b8:	abb6 3e22 bfc9 3f7c 76de 3e1c fe73 3f7c     ..">..|?.v.>s.|?
  40a2c8:	4083 3e16 3aac 3f7d 08b7 3e10 7474 3f7d     .@.>.:}?...>tt}?
  40a2d8:	cf86 3e09 abcc 3f7d 9502 3e03 e0b1 3f7d     ...>..}?...>..}?
  40a2e8:	b273 3dfa 1324 3f7e 3876 3dee 4323 3f7e     s..=$.~?v8.=#C~?
  40a2f8:	bc2e 3de1 70b0 3f7e 3db9 3dd5 9bc9 3f7e     ...=.p~?.=.=..~?
  40a308:	bd36 3dc8 c46d 3f7e 3ac3 3dbc ea9d 3f7e     6..=m.~?.:.=..~?
  40a318:	b680 3daf 0e58 3f7f 308c 3da3 2f9d 3f7f     ...=X..?.0.=./.?
  40a328:	a905 3d96 4e6d 3f7f 200a 3d8a 6ac7 3f7f     ...=mN.?. .=.j.?
  40a338:	2b74 3d7b 84ab 3f7f 1468 3d62 9c18 3f7f     t+{=...?h.b=...?
  40a348:	fb2f 3d48 b10f 3f7f e007 3d2f c38f 3f7f     /.H=...?../=...?
  40a358:	c32c 3d16 d398 3f7f 49b9 3cfb e129 3f7f     ,..=...?.I.<)..?
  40a368:	0ab0 3cc9 ec43 3f7f c9b6 3c96 f4e6 3f7f     ...<C..?...<...?
  40a378:	0e90 3c49 fb11 3f7f 0f89 3bc9 fec4 3f7f     ..I<...?...;...?
  40a388:	0000 0000 0000 3f80 0f89 bbc9 fec4 3f7f     .......?.......?
  40a398:	0e90 bc49 fb11 3f7f c9b6 bc96 f4e6 3f7f     ..I....?.......?
  40a3a8:	0ab0 bcc9 ec43 3f7f 49b9 bcfb e129 3f7f     ....C..?.I..)..?
  40a3b8:	c32c bd16 d398 3f7f e007 bd2f c38f 3f7f     ,......?../....?
  40a3c8:	fb2f bd48 b10f 3f7f 1468 bd62 9c18 3f7f     /.H....?h.b....?
  40a3d8:	2b74 bd7b 84ab 3f7f 200a bd8a 6ac7 3f7f     t+{....?. ...j.?
  40a3e8:	a905 bd96 4e6d 3f7f 308c bda3 2f9d 3f7f     ....mN.?.0.../.?
  40a3f8:	b680 bdaf 0e58 3f7f 3ac3 bdbc ea9d 3f7e     ....X..?.:....~?
  40a408:	bd36 bdc8 c46d 3f7e 3db9 bdd5 9bc9 3f7e     6...m.~?.=....~?
  40a418:	bc2e bde1 70b0 3f7e 3876 bdee 4323 3f7e     .....p~?v8..#C~?
  40a428:	b273 bdfa 1324 3f7e 9502 be03 e0b1 3f7d     s...$.~?......}?
  40a438:	cf86 be09 abcc 3f7d 08b7 be10 7474 3f7d     ......}?....tt}?
  40a448:	4083 be16 3aac 3f7d 76de be1c fe73 3f7c     .@...:}?.v..s.|?
  40a458:	abb6 be22 bfc9 3f7c defc be28 7eb0 3f7c     .."...|?..(..~|?
  40a468:	10a2 be2f 3b28 3f7c 4098 be35 f531 3f7b     ../.(;|?.@5.1.{?
  40a478:	6ecf be3b accd 3f7b 9b37 be41 61fc 3f7b     .n;...{?7.A..a{?
  40a488:	c5c2 be47 14be 3f7b ee60 be4d c516 3f7a     ..G...{?`.M...z?
  40a498:	1501 be54 7302 3f7a 3997 be5a 1e84 3f7a     ..T..sz?.9Z...z?
  40a4a8:	5c13 be60 c79d 3f79 7c66 be66 6e4e 3f79     .\`...y?f|f.Nny?
  40a4b8:	9a7f be6c 1298 3f79 b651 be72 b47b 3f78     ..l...y?Q.r.{.x?
  40a4c8:	cfcc be78 53f8 3f78 e6e1 be7e f110 3f77     ..x..Sx?..~...w?
  40a4d8:	7dc0 be82 8bc5 3f77 86ce be85 2417 3f77     .}....w?.....$w?
  40a4e8:	8e93 be88 ba07 3f76 9507 be8b 4d97 3f76     ......v?.....Mv?
  40a4f8:	9a22 be8e dec6 3f75 9ddd be91 6d97 3f75     ".....u?.....mu?
  40a508:	a031 be94 fa0b 3f74 a117 be97 8422 3f74     1.....t?....".t?
  40a518:	a086 be9a 0bdd 3f74 9e78 be9d 913f 3f73     ......t?x...?.s?
  40a528:	9ae5 bea0 1447 3f73 95c5 bea3 94f8 3f72     ....G.s?......r?
  40a538:	8f12 bea6 1352 3f72 86c4 bea9 8f57 3f71     ....R.r?....W.q?
  40a548:	7cd4 beac 0908 3f71 713a beaf 8066 3f70     .|....q?:q..f.p?
  40a558:	63ef beb2 f573 3f6f 54ec beb5 6830 3f6f     .c..s.o?.T..0ho?
  40a568:	442a beb8 d89e 3f6e 31a0 bebb 46be 3f6e     *D....n?.1...Fn?
  40a578:	1d4a bebe b293 3f6d 071e bec1 1c1d 3f6d     J.....m?......m?
  40a588:	ef15 bec3 835e 3f6c d529 bec6 e858 3f6b     ....^.l?)...X.k?
  40a598:	b953 bec9 4b0c 3f6b 9b8b becc ab7b 3f6a     S....Kk?....{.j?
  40a5a8:	7bca becf 09a7 3f6a 5a09 bed2 6591 3f69     .{....j?.Z...ei?
  40a5b8:	3641 bed5 bf3c 3f68 106b bed8 16a8 3f68     A6..<.h?k.....h?
  40a5c8:	e880 beda 6bd8 3f67 be79 bedd becc 3f66     .....kg?y.....f?
  40a5d8:	924f bee0 0f88 3f66 63fa bee3 5e0b 3f65     O.....f?.c...^e?
  40a5e8:	3375 bee6 aa59 3f64 00b7 bee9 f473 3f63     u3..Y.d?....s.c?
  40a5f8:	cbbb beeb 3c5a 3f63 9479 beee 8210 3f62     ....Z<c?y.....b?
  40a608:	5aea bef1 c598 3f61 1f07 bef4 06f2 3f61     .Z....a?......a?
  40a618:	e0cb bef6 4621 3f60 a02d bef9 8327 3f5f     ....!F`?-...'._?
  40a628:	5d27 befc be05 3f5e 17b2 beff f6be 3f5d     ']....^?......]?
  40a638:	e7e4 bf00 2d53 3f5d 42b1 bf02 61c7 3f5c     ....S-]?.B...a\?
  40a648:	9c3d bf03 941a 3f5b f484 bf04 c450 3f5a     =.....[?....P.Z?
  40a658:	4b82 bf06 f26a 3f59 a136 bf07 1e6a 3f59     .K..j.Y?6...j.Y?
  40a668:	f59b bf08 4853 3f58 48ad bf0a 7026 3f57     ....SHX?.H..&pW?
  40a678:	9a6b bf0b 95e5 3f56 ead0 bf0c b993 3f55     k.....V?......U?
  40a688:	39da bf0e db31 3f54 8784 bf0f fac3 3f53     .9..1.T?......S?
  40a698:	d3cd bf10 1849 3f53 1eb0 bf12 33c6 3f52     ....I.S?.....3R?
  40a6a8:	682a bf13 4d3d 3f51 b039 bf14 64af 3f50     *h..=MQ?9....dP?
  40a6b8:	f6d9 bf15 7a1f 3f4f 3c07 bf17 8d90 3f4e     .....zO?.<....N?
  40a6c8:	7fc0 bf18 9f02 3f4d c200 bf19 ae79 3f4c     ......M?....y.L?
  40a6d8:	02c6 bf1b bbf8 3f4b 420c bf1c c77f 3f4a     ......K?.B....J?
  40a6e8:	7fd1 bf1d d112 3f49 bc12 bf1e d8b3 3f48     ......I?......H?
  40a6f8:	f6cb bf1f de65 3f47 2ff9 bf21 e22a 3f46     ....e.G?./!.*.F?
  40a708:	6799 bf22 e403 3f45 9da9 bf23 e3f5 3f44     .g"...E?..#...D?
  40a718:	d225 bf24 e200 3f43 050a bf26 de29 3f42     %.$...C?..&.).B?
  40a728:	3656 bf27 d870 3f41 6605 bf28 d0da 3f40     V6'.p.A?.f(...@?
  40a738:	9415 bf29 c767 3f3f c082 bf2a bc1b 3f3e     ..).g.??..*...>?
  40a748:	eb4a bf2b aef9 3f3d 1469 bf2d a003 3f3c     J.+...=?i.-...<?
  40a758:	3bde bf2e 8f3b 3f3b 61a5 bf2f 7ca4 3f3a     .;..;.;?.a/..|:?
  40a768:	85bb bf30 6842 3f39 a81d bf31 5216 3f38     ..0.Bh9?..1..R8?
  40a778:	c8c9 bf32 3a23 3f37 e7bc bf33 206c 3f36     ..2.#:7?..3.l 6?
  40a788:	04f3 bf35 04f3 3f35 206c bf36 e7bc 3f33     ..5...5?l 6...3?
  40a798:	3a23 bf37 c8c9 3f32 5216 bf38 a81d 3f31     #:7...2?.R8...1?
  40a7a8:	6842 bf39 85bb 3f30 7ca4 bf3a 61a5 3f2f     Bh9...0?.|:..a/?
  40a7b8:	8f3b bf3b 3bde 3f2e a003 bf3c 1469 3f2d     ;.;..;.?..<.i.-?
  40a7c8:	aef9 bf3d eb4a 3f2b bc1b bf3e c082 3f2a     ..=.J.+?..>...*?
  40a7d8:	c767 bf3f 9415 3f29 d0da bf40 6605 3f28     g.?...)?..@..f(?
  40a7e8:	d870 bf41 3656 3f27 de29 bf42 050a 3f26     p.A.V6'?).B...&?
  40a7f8:	e200 bf43 d225 3f24 e3f5 bf44 9da9 3f23     ..C.%.$?..D...#?
  40a808:	e403 bf45 6799 3f22 e22a bf46 2ff9 3f21     ..E..g"?*.F../!?
  40a818:	de65 bf47 f6cb 3f1f d8b3 bf48 bc12 3f1e     e.G....?..H....?
  40a828:	d112 bf49 7fd1 3f1d c77f bf4a 420c 3f1c     ..I....?..J..B.?
  40a838:	bbf8 bf4b 02c6 3f1b ae79 bf4c c200 3f19     ..K....?y.L....?
  40a848:	9f02 bf4d 7fc0 3f18 8d90 bf4e 3c07 3f17     ..M....?..N..<.?
  40a858:	7a1f bf4f f6d9 3f15 64af bf50 b039 3f14     .zO....?.dP.9..?
  40a868:	4d3d bf51 682a 3f13 33c6 bf52 1eb0 3f12     =MQ.*h.?.3R....?
  40a878:	1849 bf53 d3cd 3f10 fac3 bf53 8784 3f0f     I.S....?..S....?
  40a888:	db31 bf54 39da 3f0e b993 bf55 ead0 3f0c     1.T..9.?..U....?
  40a898:	95e5 bf56 9a6b 3f0b 7026 bf57 48ad 3f0a     ..V.k..?&pW..H.?
  40a8a8:	4853 bf58 f59b 3f08 1e6a bf59 a136 3f07     SHX....?j.Y.6..?
  40a8b8:	f26a bf59 4b82 3f06 c450 bf5a f484 3f04     j.Y..K.?P.Z....?
  40a8c8:	941a bf5b 9c3d 3f03 61c7 bf5c 42b1 3f02     ..[.=..?.a\..B.?
  40a8d8:	2d53 bf5d e7e4 3f00 f6be bf5d 17b2 3eff     S-]....?..]....>
  40a8e8:	be05 bf5e 5d27 3efc 8327 bf5f a02d 3ef9     ..^.'].>'._.-..>
  40a8f8:	4621 bf60 e0cb 3ef6 06f2 bf61 1f07 3ef4     !F`....>..a....>
  40a908:	c598 bf61 5aea 3ef1 8210 bf62 9479 3eee     ..a..Z.>..b.y..>
  40a918:	3c5a bf63 cbbb 3eeb f473 bf63 00b7 3ee9     Z<c....>s.c....>
  40a928:	aa59 bf64 3375 3ee6 5e0b bf65 63fa 3ee3     Y.d.u3.>.^e..c.>
  40a938:	0f88 bf66 924f 3ee0 becc bf66 be79 3edd     ..f.O..>..f.y..>
  40a948:	6bd8 bf67 e880 3eda 16a8 bf68 106b 3ed8     .kg....>..h.k..>
  40a958:	bf3c bf68 3641 3ed5 6591 bf69 5a09 3ed2     <.h.A6.>.ei..Z.>
  40a968:	09a7 bf6a 7bca 3ecf ab7b bf6a 9b8b 3ecc     ..j..{.>{.j....>
  40a978:	4b0c bf6b b953 3ec9 e858 bf6b d529 3ec6     .Kk.S..>X.k.)..>
  40a988:	835e bf6c ef15 3ec3 1c1d bf6d 071e 3ec1     ^.l....>..m....>
  40a998:	b293 bf6d 1d4a 3ebe 46be bf6e 31a0 3ebb     ..m.J..>.Fn..1.>
  40a9a8:	d89e bf6e 442a 3eb8 6830 bf6f 54ec 3eb5     ..n.*D.>0ho..T.>
  40a9b8:	f573 bf6f 63ef 3eb2 8066 bf70 713a 3eaf     s.o..c.>f.p.:q.>
  40a9c8:	0908 bf71 7cd4 3eac 8f57 bf71 86c4 3ea9     ..q..|.>W.q....>
  40a9d8:	1352 bf72 8f12 3ea6 94f8 bf72 95c5 3ea3     R.r....>..r....>
  40a9e8:	1447 bf73 9ae5 3ea0 913f bf73 9e78 3e9d     G.s....>?.s.x..>
  40a9f8:	0bdd bf74 a086 3e9a 8422 bf74 a117 3e97     ..t....>".t....>
  40aa08:	fa0b bf74 a031 3e94 6d97 bf75 9ddd 3e91     ..t.1..>.mu....>
  40aa18:	dec6 bf75 9a22 3e8e 4d97 bf76 9507 3e8b     ..u."..>.Mv....>
  40aa28:	ba07 bf76 8e93 3e88 2417 bf77 86ce 3e85     ..v....>.$w....>
  40aa38:	8bc5 bf77 7dc0 3e82 f110 bf77 e6e1 3e7e     ..w..}.>..w...~>
  40aa48:	53f8 bf78 cfcc 3e78 b47b bf78 b651 3e72     .Sx...x>{.x.Q.r>
  40aa58:	1298 bf79 9a7f 3e6c 6e4e bf79 7c66 3e66     ..y...l>Nny.f|f>
  40aa68:	c79d bf79 5c13 3e60 1e84 bf7a 3997 3e5a     ..y..\`>..z..9Z>
  40aa78:	7302 bf7a 1501 3e54 c516 bf7a ee60 3e4d     .sz...T>..z.`.M>
  40aa88:	14be bf7b c5c2 3e47 61fc bf7b 9b37 3e41     ..{...G>.a{.7.A>
  40aa98:	accd bf7b 6ecf 3e3b f531 bf7b 4098 3e35     ..{..n;>1.{..@5>
  40aaa8:	3b28 bf7c 10a2 3e2f 7eb0 bf7c defc 3e28     (;|.../>.~|...(>
  40aab8:	bfc9 bf7c abb6 3e22 fe73 bf7c 76de 3e1c     ..|...">s.|..v.>
  40aac8:	3aac bf7d 4083 3e16 7474 bf7d 08b7 3e10     .:}..@.>tt}....>
  40aad8:	abcc bf7d cf86 3e09 e0b1 bf7d 9502 3e03     ..}....>..}....>
  40aae8:	1324 bf7e b273 3dfa 4323 bf7e 3876 3dee     $.~.s..=#C~.v8.=
  40aaf8:	70b0 bf7e bc2e 3de1 9bc9 bf7e 3db9 3dd5     .p~....=..~..=.=
  40ab08:	c46d bf7e bd36 3dc8 ea9d bf7e 3ac3 3dbc     m.~.6..=..~..:.=
  40ab18:	0e58 bf7f b680 3daf 2f9d bf7f 308c 3da3     X......=./...0.=
  40ab28:	4e6d bf7f a905 3d96 6ac7 bf7f 200a 3d8a     mN.....=.j... .=
  40ab38:	84ab bf7f 2b74 3d7b 9c18 bf7f 1468 3d62     ....t+{=....h.b=
  40ab48:	b10f bf7f fb2f 3d48 c38f bf7f e007 3d2f     ..../.H=....../=
  40ab58:	d398 bf7f c32c 3d16 e129 bf7f 49b9 3cfb     ....,..=)....I.<
  40ab68:	ec43 bf7f 0ab0 3cc9 f4e6 bf7f c9b6 3c96     C......<.......<
  40ab78:	fb11 bf7f 0e90 3c49 fec4 bf7f 0f89 3bc9     ......I<.......;
  40ab88:	0000 bf80 0000 0000 fec4 bf7f 0f89 bbc9     ................
  40ab98:	fb11 bf7f 0e90 bc49 f4e6 bf7f c9b6 bc96     ......I.........
  40aba8:	ec43 bf7f 0ab0 bcc9 e129 bf7f 49b9 bcfb     C.......)....I..
  40abb8:	d398 bf7f c32c bd16 c38f bf7f e007 bd2f     ....,........./.
  40abc8:	b10f bf7f fb2f bd48 9c18 bf7f 1468 bd62     ..../.H.....h.b.
  40abd8:	84ab bf7f 2b74 bd7b 6ac7 bf7f 200a bd8a     ....t+{..j... ..
  40abe8:	4e6d bf7f a905 bd96 2f9d bf7f 308c bda3     mN......./...0..
  40abf8:	0e58 bf7f b680 bdaf ea9d bf7e 3ac3 bdbc     X.........~..:..
  40ac08:	c46d bf7e bd36 bdc8 9bc9 bf7e 3db9 bdd5     m.~.6.....~..=..
  40ac18:	70b0 bf7e bc2e bde1 4323 bf7e 3876 bdee     .p~.....#C~.v8..
  40ac28:	1324 bf7e b273 bdfa e0b1 bf7d 9502 be03     $.~.s.....}.....
  40ac38:	abcc bf7d cf86 be09 7474 bf7d 08b7 be10     ..}.....tt}.....
  40ac48:	3aac bf7d 4083 be16 fe73 bf7c 76de be1c     .:}..@..s.|..v..
  40ac58:	bfc9 bf7c abb6 be22 7eb0 bf7c defc be28     ..|..."..~|...(.
  40ac68:	3b28 bf7c 10a2 be2f f531 bf7b 4098 be35     (;|.../.1.{..@5.
  40ac78:	accd bf7b 6ecf be3b 61fc bf7b 9b37 be41     ..{..n;..a{.7.A.
  40ac88:	14be bf7b c5c2 be47 c516 bf7a ee60 be4d     ..{...G...z.`.M.
  40ac98:	7302 bf7a 1501 be54 1e84 bf7a 3997 be5a     .sz...T...z..9Z.
  40aca8:	c79d bf79 5c13 be60 6e4e bf79 7c66 be66     ..y..\`.Nny.f|f.
  40acb8:	1298 bf79 9a7f be6c b47b bf78 b651 be72     ..y...l.{.x.Q.r.
  40acc8:	53f8 bf78 cfcc be78 f110 bf77 e6e1 be7e     .Sx...x...w...~.
  40acd8:	8bc5 bf77 7dc0 be82 2417 bf77 86ce be85     ..w..}...$w.....
  40ace8:	ba07 bf76 8e93 be88 4d97 bf76 9507 be8b     ..v......Mv.....
  40acf8:	dec6 bf75 9a22 be8e 6d97 bf75 9ddd be91     ..u."....mu.....
  40ad08:	fa0b bf74 a031 be94 8422 bf74 a117 be97     ..t.1...".t.....
  40ad18:	0bdd bf74 a086 be9a 913f bf73 9e78 be9d     ..t.....?.s.x...
  40ad28:	1447 bf73 9ae5 bea0 94f8 bf72 95c5 bea3     G.s.......r.....
  40ad38:	1352 bf72 8f12 bea6 8f57 bf71 86c4 bea9     R.r.....W.q.....
  40ad48:	0908 bf71 7cd4 beac 8066 bf70 713a beaf     ..q..|..f.p.:q..
  40ad58:	f573 bf6f 63ef beb2 6830 bf6f 54ec beb5     s.o..c..0ho..T..
  40ad68:	d89e bf6e 442a beb8 46be bf6e 31a0 bebb     ..n.*D...Fn..1..
  40ad78:	b293 bf6d 1d4a bebe 1c1d bf6d 071e bec1     ..m.J.....m.....
  40ad88:	835e bf6c ef15 bec3 e858 bf6b d529 bec6     ^.l.....X.k.)...
  40ad98:	4b0c bf6b b953 bec9 ab7b bf6a 9b8b becc     .Kk.S...{.j.....
  40ada8:	09a7 bf6a 7bca becf 6591 bf69 5a09 bed2     ..j..{...ei..Z..
  40adb8:	bf3c bf68 3641 bed5 16a8 bf68 106b bed8     <.h.A6....h.k...
  40adc8:	6bd8 bf67 e880 beda becc bf66 be79 bedd     .kg.......f.y...
  40add8:	0f88 bf66 924f bee0 5e0b bf65 63fa bee3     ..f.O....^e..c..
  40ade8:	aa59 bf64 3375 bee6 f473 bf63 00b7 bee9     Y.d.u3..s.c.....
  40adf8:	3c5a bf63 cbbb beeb 8210 bf62 9479 beee     Z<c.......b.y...
  40ae08:	c598 bf61 5aea bef1 06f2 bf61 1f07 bef4     ..a..Z....a.....
  40ae18:	4621 bf60 e0cb bef6 8327 bf5f a02d bef9     !F`.....'._.-...
  40ae28:	be05 bf5e 5d27 befc f6be bf5d 17b2 beff     ..^.']....].....
  40ae38:	2d53 bf5d e7e4 bf00 61c7 bf5c 42b1 bf02     S-]......a\..B..
  40ae48:	941a bf5b 9c3d bf03 c450 bf5a f484 bf04     ..[.=...P.Z.....
  40ae58:	f26a bf59 4b82 bf06 1e6a bf59 a136 bf07     j.Y..K..j.Y.6...
  40ae68:	4853 bf58 f59b bf08 7026 bf57 48ad bf0a     SHX.....&pW..H..
  40ae78:	95e5 bf56 9a6b bf0b b993 bf55 ead0 bf0c     ..V.k.....U.....
  40ae88:	db31 bf54 39da bf0e fac3 bf53 8784 bf0f     1.T..9....S.....
  40ae98:	1849 bf53 d3cd bf10 33c6 bf52 1eb0 bf12     I.S......3R.....
  40aea8:	4d3d bf51 682a bf13 64af bf50 b039 bf14     =MQ.*h...dP.9...
  40aeb8:	7a1f bf4f f6d9 bf15 8d90 bf4e 3c07 bf17     .zO.......N..<..
  40aec8:	9f02 bf4d 7fc0 bf18 ae79 bf4c c200 bf19     ..M.....y.L.....
  40aed8:	bbf8 bf4b 02c6 bf1b c77f bf4a 420c bf1c     ..K.......J..B..
  40aee8:	d112 bf49 7fd1 bf1d d8b3 bf48 bc12 bf1e     ..I.......H.....
  40aef8:	de65 bf47 f6cb bf1f e22a bf46 2ff9 bf21     e.G.....*.F../!.
  40af08:	e403 bf45 6799 bf22 e3f5 bf44 9da9 bf23     ..E..g"...D...#.
  40af18:	e200 bf43 d225 bf24 de29 bf42 050a bf26     ..C.%.$.).B...&.
  40af28:	d870 bf41 3656 bf27 d0da bf40 6605 bf28     p.A.V6'...@..f(.
  40af38:	c767 bf3f 9415 bf29 bc1b bf3e c082 bf2a     g.?...)...>...*.
  40af48:	aef9 bf3d eb4a bf2b a003 bf3c 1469 bf2d     ..=.J.+...<.i.-.
  40af58:	8f3b bf3b 3bde bf2e 7ca4 bf3a 61a5 bf2f     ;.;..;...|:..a/.
  40af68:	6842 bf39 85bb bf30 5216 bf38 a81d bf31     Bh9...0..R8...1.
  40af78:	3a23 bf37 c8c9 bf32 206c bf36 e7bc bf33     #:7...2.l 6...3.
  40af88:	04f3 bf35 04f3 bf35 e7bc bf33 206c bf36     ..5...5...3.l 6.
  40af98:	c8c9 bf32 3a23 bf37 a81d bf31 5216 bf38     ..2.#:7...1..R8.
  40afa8:	85bb bf30 6842 bf39 61a5 bf2f 7ca4 bf3a     ..0.Bh9..a/..|:.
  40afb8:	3bde bf2e 8f3b bf3b 1469 bf2d a003 bf3c     .;..;.;.i.-...<.
  40afc8:	eb4a bf2b aef9 bf3d c082 bf2a bc1b bf3e     J.+...=...*...>.
  40afd8:	9415 bf29 c767 bf3f 6605 bf28 d0da bf40     ..).g.?..f(...@.
  40afe8:	3656 bf27 d870 bf41 050a bf26 de29 bf42     V6'.p.A...&.).B.
  40aff8:	d225 bf24 e200 bf43 9da9 bf23 e3f5 bf44     %.$...C...#...D.
  40b008:	6799 bf22 e403 bf45 2ff9 bf21 e22a bf46     .g"...E../!.*.F.
  40b018:	f6cb bf1f de65 bf47 bc12 bf1e d8b3 bf48     ....e.G.......H.
  40b028:	7fd1 bf1d d112 bf49 420c bf1c c77f bf4a     ......I..B....J.
  40b038:	02c6 bf1b bbf8 bf4b c200 bf19 ae79 bf4c     ......K.....y.L.
  40b048:	7fc0 bf18 9f02 bf4d 3c07 bf17 8d90 bf4e     ......M..<....N.
  40b058:	f6d9 bf15 7a1f bf4f b039 bf14 64af bf50     .....zO.9....dP.
  40b068:	682a bf13 4d3d bf51 1eb0 bf12 33c6 bf52     *h..=MQ......3R.
  40b078:	d3cd bf10 1849 bf53 8784 bf0f fac3 bf53     ....I.S.......S.
  40b088:	39da bf0e db31 bf54 ead0 bf0c b993 bf55     .9..1.T.......U.
  40b098:	9a6b bf0b 95e5 bf56 48ad bf0a 7026 bf57     k.....V..H..&pW.
  40b0a8:	f59b bf08 4853 bf58 a136 bf07 1e6a bf59     ....SHX.6...j.Y.
  40b0b8:	4b82 bf06 f26a bf59 f484 bf04 c450 bf5a     .K..j.Y.....P.Z.
  40b0c8:	9c3d bf03 941a bf5b 42b1 bf02 61c7 bf5c     =.....[..B...a\.
  40b0d8:	e7e4 bf00 2d53 bf5d 17b2 beff f6be bf5d     ....S-].......].
  40b0e8:	5d27 befc be05 bf5e a02d bef9 8327 bf5f     ']....^.-...'._.
  40b0f8:	e0cb bef6 4621 bf60 1f07 bef4 06f2 bf61     ....!F`.......a.
  40b108:	5aea bef1 c598 bf61 9479 beee 8210 bf62     .Z....a.y.....b.
  40b118:	cbbb beeb 3c5a bf63 00b7 bee9 f473 bf63     ....Z<c.....s.c.
  40b128:	3375 bee6 aa59 bf64 63fa bee3 5e0b bf65     u3..Y.d..c...^e.
  40b138:	924f bee0 0f88 bf66 be79 bedd becc bf66     O.....f.y.....f.
  40b148:	e880 beda 6bd8 bf67 106b bed8 16a8 bf68     .....kg.k.....h.
  40b158:	3641 bed5 bf3c bf68 5a09 bed2 6591 bf69     A6..<.h..Z...ei.
  40b168:	7bca becf 09a7 bf6a 9b8b becc ab7b bf6a     .{....j.....{.j.
  40b178:	b953 bec9 4b0c bf6b d529 bec6 e858 bf6b     S....Kk.)...X.k.
  40b188:	ef15 bec3 835e bf6c 071e bec1 1c1d bf6d     ....^.l.......m.
  40b198:	1d4a bebe b293 bf6d 31a0 bebb 46be bf6e     J.....m..1...Fn.
  40b1a8:	442a beb8 d89e bf6e 54ec beb5 6830 bf6f     *D....n..T..0ho.
  40b1b8:	63ef beb2 f573 bf6f 713a beaf 8066 bf70     .c..s.o.:q..f.p.
  40b1c8:	7cd4 beac 0908 bf71 86c4 bea9 8f57 bf71     .|....q.....W.q.
  40b1d8:	8f12 bea6 1352 bf72 95c5 bea3 94f8 bf72     ....R.r.......r.
  40b1e8:	9ae5 bea0 1447 bf73 9e78 be9d 913f bf73     ....G.s.x...?.s.
  40b1f8:	a086 be9a 0bdd bf74 a117 be97 8422 bf74     ......t.....".t.
  40b208:	a031 be94 fa0b bf74 9ddd be91 6d97 bf75     1.....t......mu.
  40b218:	9a22 be8e dec6 bf75 9507 be8b 4d97 bf76     ".....u......Mv.
  40b228:	8e93 be88 ba07 bf76 86ce be85 2417 bf77     ......v......$w.
  40b238:	7dc0 be82 8bc5 bf77 e6e1 be7e f110 bf77     .}....w...~...w.
  40b248:	cfcc be78 53f8 bf78 b651 be72 b47b bf78     ..x..Sx.Q.r.{.x.
  40b258:	9a7f be6c 1298 bf79 7c66 be66 6e4e bf79     ..l...y.f|f.Nny.
  40b268:	5c13 be60 c79d bf79 3997 be5a 1e84 bf7a     .\`...y..9Z...z.
  40b278:	1501 be54 7302 bf7a ee60 be4d c516 bf7a     ..T..sz.`.M...z.
  40b288:	c5c2 be47 14be bf7b 9b37 be41 61fc bf7b     ..G...{.7.A..a{.
  40b298:	6ecf be3b accd bf7b 4098 be35 f531 bf7b     .n;...{..@5.1.{.
  40b2a8:	10a2 be2f 3b28 bf7c defc be28 7eb0 bf7c     ../.(;|...(..~|.
  40b2b8:	abb6 be22 bfc9 bf7c 76de be1c fe73 bf7c     .."...|..v..s.|.
  40b2c8:	4083 be16 3aac bf7d 08b7 be10 7474 bf7d     .@...:}.....tt}.
  40b2d8:	cf86 be09 abcc bf7d 9502 be03 e0b1 bf7d     ......}.......}.
  40b2e8:	b273 bdfa 1324 bf7e 3876 bdee 4323 bf7e     s...$.~.v8..#C~.
  40b2f8:	bc2e bde1 70b0 bf7e 3db9 bdd5 9bc9 bf7e     .....p~..=....~.
  40b308:	bd36 bdc8 c46d bf7e 3ac3 bdbc ea9d bf7e     6...m.~..:....~.
  40b318:	b680 bdaf 0e58 bf7f 308c bda3 2f9d bf7f     ....X....0.../..
  40b328:	a905 bd96 4e6d bf7f 200a bd8a 6ac7 bf7f     ....mN... ...j..
  40b338:	2b74 bd7b 84ab bf7f 1468 bd62 9c18 bf7f     t+{.....h.b.....
  40b348:	fb2f bd48 b10f bf7f e007 bd2f c38f bf7f     /.H......./.....
  40b358:	c32c bd16 d398 bf7f 49b9 bcfb e129 bf7f     ,........I..)...
  40b368:	0ab0 bcc9 ec43 bf7f c9b6 bc96 f4e6 bf7f     ....C...........
  40b378:	0e90 bc49 fb11 bf7f 0f89 bbc9 fec4 bf7f     ..I.............
  40b388:	0000 8000 0000 bf80 0f89 3bc9 fec4 bf7f     ...........;....
  40b398:	0e90 3c49 fb11 bf7f c9b6 3c96 f4e6 bf7f     ..I<.......<....
  40b3a8:	0ab0 3cc9 ec43 bf7f 49b9 3cfb e129 bf7f     ...<C....I.<)...
  40b3b8:	c32c 3d16 d398 bf7f e007 3d2f c38f bf7f     ,..=....../=....
  40b3c8:	fb2f 3d48 b10f bf7f 1468 3d62 9c18 bf7f     /.H=....h.b=....
  40b3d8:	2b74 3d7b 84ab bf7f 200a 3d8a 6ac7 bf7f     t+{=..... .=.j..
  40b3e8:	a905 3d96 4e6d bf7f 308c 3da3 2f9d bf7f     ...=mN...0.=./..
  40b3f8:	b680 3daf 0e58 bf7f 3ac3 3dbc ea9d bf7e     ...=X....:.=..~.
  40b408:	bd36 3dc8 c46d bf7e 3db9 3dd5 9bc9 bf7e     6..=m.~..=.=..~.
  40b418:	bc2e 3de1 70b0 bf7e 3876 3dee 4323 bf7e     ...=.p~.v8.=#C~.
  40b428:	b273 3dfa 1324 bf7e 9502 3e03 e0b1 bf7d     s..=$.~....>..}.
  40b438:	cf86 3e09 abcc bf7d 08b7 3e10 7474 bf7d     ...>..}....>tt}.
  40b448:	4083 3e16 3aac bf7d 76de 3e1c fe73 bf7c     .@.>.:}..v.>s.|.
  40b458:	abb6 3e22 bfc9 bf7c defc 3e28 7eb0 bf7c     ..">..|...(>.~|.
  40b468:	10a2 3e2f 3b28 bf7c 4098 3e35 f531 bf7b     ../>(;|..@5>1.{.
  40b478:	6ecf 3e3b accd bf7b 9b37 3e41 61fc bf7b     .n;>..{.7.A>.a{.
  40b488:	c5c2 3e47 14be bf7b ee60 3e4d c516 bf7a     ..G>..{.`.M>..z.
  40b498:	1501 3e54 7302 bf7a 3997 3e5a 1e84 bf7a     ..T>.sz..9Z>..z.
  40b4a8:	5c13 3e60 c79d bf79 7c66 3e66 6e4e bf79     .\`>..y.f|f>Nny.
  40b4b8:	9a7f 3e6c 1298 bf79 b651 3e72 b47b bf78     ..l>..y.Q.r>{.x.
  40b4c8:	cfcc 3e78 53f8 bf78 e6e1 3e7e f110 bf77     ..x>.Sx...~>..w.
  40b4d8:	7dc0 3e82 8bc5 bf77 86ce 3e85 2417 bf77     .}.>..w....>.$w.
  40b4e8:	8e93 3e88 ba07 bf76 9507 3e8b 4d97 bf76     ...>..v....>.Mv.
  40b4f8:	9a22 3e8e dec6 bf75 9ddd 3e91 6d97 bf75     "..>..u....>.mu.
  40b508:	a031 3e94 fa0b bf74 a117 3e97 8422 bf74     1..>..t....>".t.
  40b518:	a086 3e9a 0bdd bf74 9e78 3e9d 913f bf73     ...>..t.x..>?.s.
  40b528:	9ae5 3ea0 1447 bf73 95c5 3ea3 94f8 bf72     ...>G.s....>..r.
  40b538:	8f12 3ea6 1352 bf72 86c4 3ea9 8f57 bf71     ...>R.r....>W.q.
  40b548:	7cd4 3eac 0908 bf71 713a 3eaf 8066 bf70     .|.>..q.:q.>f.p.
  40b558:	63ef 3eb2 f573 bf6f 54ec 3eb5 6830 bf6f     .c.>s.o..T.>0ho.
  40b568:	442a 3eb8 d89e bf6e 31a0 3ebb 46be bf6e     *D.>..n..1.>.Fn.
  40b578:	1d4a 3ebe b293 bf6d 071e 3ec1 1c1d bf6d     J..>..m....>..m.
  40b588:	ef15 3ec3 835e bf6c d529 3ec6 e858 bf6b     ...>^.l.)..>X.k.
  40b598:	b953 3ec9 4b0c bf6b 9b8b 3ecc ab7b bf6a     S..>.Kk....>{.j.
  40b5a8:	7bca 3ecf 09a7 bf6a 5a09 3ed2 6591 bf69     .{.>..j..Z.>.ei.
  40b5b8:	3641 3ed5 bf3c bf68 106b 3ed8 16a8 bf68     A6.><.h.k..>..h.
  40b5c8:	e880 3eda 6bd8 bf67 be79 3edd becc bf66     ...>.kg.y..>..f.
  40b5d8:	924f 3ee0 0f88 bf66 63fa 3ee3 5e0b bf65     O..>..f..c.>.^e.
  40b5e8:	3375 3ee6 aa59 bf64 00b7 3ee9 f473 bf63     u3.>Y.d....>s.c.
  40b5f8:	cbbb 3eeb 3c5a bf63 9479 3eee 8210 bf62     ...>Z<c.y..>..b.
  40b608:	5aea 3ef1 c598 bf61 1f07 3ef4 06f2 bf61     .Z.>..a....>..a.
  40b618:	e0cb 3ef6 4621 bf60 a02d 3ef9 8327 bf5f     ...>!F`.-..>'._.
  40b628:	5d27 3efc be05 bf5e 17b2 3eff f6be bf5d     '].>..^....>..].
  40b638:	e7e4 3f00 2d53 bf5d 42b1 3f02 61c7 bf5c     ...?S-]..B.?.a\.
  40b648:	9c3d 3f03 941a bf5b f484 3f04 c450 bf5a     =..?..[....?P.Z.
  40b658:	4b82 3f06 f26a bf59 a136 3f07 1e6a bf59     .K.?j.Y.6..?j.Y.
  40b668:	f59b 3f08 4853 bf58 48ad 3f0a 7026 bf57     ...?SHX..H.?&pW.
  40b678:	9a6b 3f0b 95e5 bf56 ead0 3f0c b993 bf55     k..?..V....?..U.
  40b688:	39da 3f0e db31 bf54 8784 3f0f fac3 bf53     .9.?1.T....?..S.
  40b698:	d3cd 3f10 1849 bf53 1eb0 3f12 33c6 bf52     ...?I.S....?.3R.
  40b6a8:	682a 3f13 4d3d bf51 b039 3f14 64af bf50     *h.?=MQ.9..?.dP.
  40b6b8:	f6d9 3f15 7a1f bf4f 3c07 3f17 8d90 bf4e     ...?.zO..<.?..N.
  40b6c8:	7fc0 3f18 9f02 bf4d c200 3f19 ae79 bf4c     ...?..M....?y.L.
  40b6d8:	02c6 3f1b bbf8 bf4b 420c 3f1c c77f bf4a     ...?..K..B.?..J.
  40b6e8:	7fd1 3f1d d112 bf49 bc12 3f1e d8b3 bf48     ...?..I....?..H.
  40b6f8:	f6cb 3f1f de65 bf47 2ff9 3f21 e22a bf46     ...?e.G../!?*.F.
  40b708:	6799 3f22 e403 bf45 9da9 3f23 e3f5 bf44     .g"?..E...#?..D.
  40b718:	d225 3f24 e200 bf43 050a 3f26 de29 bf42     %.$?..C...&?).B.
  40b728:	3656 3f27 d870 bf41 6605 3f28 d0da bf40     V6'?p.A..f(?..@.
  40b738:	9415 3f29 c767 bf3f c082 3f2a bc1b bf3e     ..)?g.?...*?..>.
  40b748:	eb4a 3f2b aef9 bf3d 1469 3f2d a003 bf3c     J.+?..=.i.-?..<.
  40b758:	3bde 3f2e 8f3b bf3b 61a5 3f2f 7ca4 bf3a     .;.?;.;..a/?.|:.
  40b768:	85bb 3f30 6842 bf39 a81d 3f31 5216 bf38     ..0?Bh9...1?.R8.
  40b778:	c8c9 3f32 3a23 bf37 e7bc 3f33 206c bf36     ..2?#:7...3?l 6.
  40b788:	04f3 3f35 04f3 bf35 206c 3f36 e7bc bf33     ..5?..5.l 6?..3.
  40b798:	3a23 3f37 c8c9 bf32 5216 3f38 a81d bf31     #:7?..2..R8?..1.
  40b7a8:	6842 3f39 85bb bf30 7ca4 3f3a 61a5 bf2f     Bh9?..0..|:?.a/.
  40b7b8:	8f3b 3f3b 3bde bf2e a003 3f3c 1469 bf2d     ;.;?.;....<?i.-.
  40b7c8:	aef9 3f3d eb4a bf2b bc1b 3f3e c082 bf2a     ..=?J.+...>?..*.
  40b7d8:	c767 3f3f 9415 bf29 d0da 3f40 6605 bf28     g.??..)...@?.f(.
  40b7e8:	d870 3f41 3656 bf27 de29 3f42 050a bf26     p.A?V6'.).B?..&.
  40b7f8:	e200 3f43 d225 bf24 e3f5 3f44 9da9 bf23     ..C?%.$...D?..#.
  40b808:	e403 3f45 6799 bf22 e22a 3f46 2ff9 bf21     ..E?.g".*.F?./!.
  40b818:	de65 3f47 f6cb bf1f d8b3 3f48 bc12 bf1e     e.G?......H?....
  40b828:	d112 3f49 7fd1 bf1d c77f 3f4a 420c bf1c     ..I?......J?.B..
  40b838:	bbf8 3f4b 02c6 bf1b ae79 3f4c c200 bf19     ..K?....y.L?....
  40b848:	9f02 3f4d 7fc0 bf18 8d90 3f4e 3c07 bf17     ..M?......N?.<..
  40b858:	7a1f 3f4f f6d9 bf15 64af 3f50 b039 bf14     .zO?.....dP?9...
  40b868:	4d3d 3f51 682a bf13 33c6 3f52 1eb0 bf12     =MQ?*h...3R?....
  40b878:	1849 3f53 d3cd bf10 fac3 3f53 8784 bf0f     I.S?......S?....
  40b888:	db31 3f54 39da bf0e b993 3f55 ead0 bf0c     1.T?.9....U?....
  40b898:	95e5 3f56 9a6b bf0b 7026 3f57 48ad bf0a     ..V?k...&pW?.H..
  40b8a8:	4853 3f58 f59b bf08 1e6a 3f59 a136 bf07     SHX?....j.Y?6...
  40b8b8:	f26a 3f59 4b82 bf06 c450 3f5a f484 bf04     j.Y?.K..P.Z?....
  40b8c8:	941a 3f5b 9c3d bf03 61c7 3f5c 42b1 bf02     ..[?=....a\?.B..
  40b8d8:	2d53 3f5d e7e4 bf00 f6be 3f5d 17b2 beff     S-]?......]?....
  40b8e8:	be05 3f5e 5d27 befc 8327 3f5f a02d bef9     ..^?']..'._?-...
  40b8f8:	4621 3f60 e0cb bef6 06f2 3f61 1f07 bef4     !F`?......a?....
  40b908:	c598 3f61 5aea bef1 8210 3f62 9479 beee     ..a?.Z....b?y...
  40b918:	3c5a 3f63 cbbb beeb f473 3f63 00b7 bee9     Z<c?....s.c?....
  40b928:	aa59 3f64 3375 bee6 5e0b 3f65 63fa bee3     Y.d?u3...^e?.c..
  40b938:	0f88 3f66 924f bee0 becc 3f66 be79 bedd     ..f?O.....f?y...
  40b948:	6bd8 3f67 e880 beda 16a8 3f68 106b bed8     .kg?......h?k...
  40b958:	bf3c 3f68 3641 bed5 6591 3f69 5a09 bed2     <.h?A6...ei?.Z..
  40b968:	09a7 3f6a 7bca becf ab7b 3f6a 9b8b becc     ..j?.{..{.j?....
  40b978:	4b0c 3f6b b953 bec9 e858 3f6b d529 bec6     .Kk?S...X.k?)...
  40b988:	835e 3f6c ef15 bec3 1c1d 3f6d 071e bec1     ^.l?......m?....
  40b998:	b293 3f6d 1d4a bebe 46be 3f6e 31a0 bebb     ..m?J....Fn?.1..
  40b9a8:	d89e 3f6e 442a beb8 6830 3f6f 54ec beb5     ..n?*D..0ho?.T..
  40b9b8:	f573 3f6f 63ef beb2 8066 3f70 713a beaf     s.o?.c..f.p?:q..
  40b9c8:	0908 3f71 7cd4 beac 8f57 3f71 86c4 bea9     ..q?.|..W.q?....
  40b9d8:	1352 3f72 8f12 bea6 94f8 3f72 95c5 bea3     R.r?......r?....
  40b9e8:	1447 3f73 9ae5 bea0 913f 3f73 9e78 be9d     G.s?....?.s?x...
  40b9f8:	0bdd 3f74 a086 be9a 8422 3f74 a117 be97     ..t?....".t?....
  40ba08:	fa0b 3f74 a031 be94 6d97 3f75 9ddd be91     ..t?1....mu?....
  40ba18:	dec6 3f75 9a22 be8e 4d97 3f76 9507 be8b     ..u?"....Mv?....
  40ba28:	ba07 3f76 8e93 be88 2417 3f77 86ce be85     ..v?.....$w?....
  40ba38:	8bc5 3f77 7dc0 be82 f110 3f77 e6e1 be7e     ..w?.}....w?..~.
  40ba48:	53f8 3f78 cfcc be78 b47b 3f78 b651 be72     .Sx?..x.{.x?Q.r.
  40ba58:	1298 3f79 9a7f be6c 6e4e 3f79 7c66 be66     ..y?..l.Nny?f|f.
  40ba68:	c79d 3f79 5c13 be60 1e84 3f7a 3997 be5a     ..y?.\`...z?.9Z.
  40ba78:	7302 3f7a 1501 be54 c516 3f7a ee60 be4d     .sz?..T...z?`.M.
  40ba88:	14be 3f7b c5c2 be47 61fc 3f7b 9b37 be41     ..{?..G..a{?7.A.
  40ba98:	accd 3f7b 6ecf be3b f531 3f7b 4098 be35     ..{?.n;.1.{?.@5.
  40baa8:	3b28 3f7c 10a2 be2f 7eb0 3f7c defc be28     (;|?../..~|?..(.
  40bab8:	bfc9 3f7c abb6 be22 fe73 3f7c 76de be1c     ..|?..".s.|?.v..
  40bac8:	3aac 3f7d 4083 be16 7474 3f7d 08b7 be10     .:}?.@..tt}?....
  40bad8:	abcc 3f7d cf86 be09 e0b1 3f7d 9502 be03     ..}?......}?....
  40bae8:	1324 3f7e b273 bdfa 4323 3f7e 3876 bdee     $.~?s...#C~?v8..
  40baf8:	70b0 3f7e bc2e bde1 9bc9 3f7e 3db9 bdd5     .p~?......~?.=..
  40bb08:	c46d 3f7e bd36 bdc8 ea9d 3f7e 3ac3 bdbc     m.~?6.....~?.:..
  40bb18:	0e58 3f7f b680 bdaf 2f9d 3f7f 308c bda3     X..?...../.?.0..
  40bb28:	4e6d 3f7f a905 bd96 6ac7 3f7f 200a bd8a     mN.?.....j.?. ..
  40bb38:	84ab 3f7f 2b74 bd7b 9c18 3f7f 1468 bd62     ...?t+{....?h.b.
  40bb48:	b10f 3f7f fb2f bd48 c38f 3f7f e007 bd2f     ...?/.H....?../.
  40bb58:	d398 3f7f c32c bd16 e129 3f7f 49b9 bcfb     ...?,...)..?.I..
  40bb68:	ec43 3f7f 0ab0 bcc9 f4e6 3f7f c9b6 bc96     C..?.......?....
  40bb78:	fb11 3f7f 0e90 bc49 fec4 3f7f 0f89 bbc9     ...?..I....?....

0040bb88 <twiddleCoef_2048>:
  40bb88:	0000 3f80 0000 0000 ffb1 3f7f 0fc7 3b49     ...?.......?..I;
  40bb98:	fec4 3f7f 0f89 3bc9 fd39 3f7f cb59 3c16     ...?...;9..?Y..<
  40bba8:	fb11 3f7f 0e90 3c49 f84a 3f7f 514b 3c7b     ...?..I<J..?KQ{<
  40bbb8:	f4e6 3f7f c9b6 3c96 f0e3 3f7f ea69 3caf     ...?...<...?i..<
  40bbc8:	ec43 3f7f 0ab0 3cc9 e705 3f7f 2a7b 3ce2     C..?...<...?{*.<
  40bbd8:	e129 3f7f 49b9 3cfb daaf 3f7f 342f 3d0a     )..?.I.<...?/4.=
  40bbe8:	d398 3f7f c32c 3d16 cbe2 3f7f 51cc 3d23     ...?,..=...?.Q#=
  40bbf8:	c38f 3f7f e007 3d2f ba9e 3f7f 6dd5 3d3c     ...?../=...?.m<=
  40bc08:	b10f 3f7f fb2f 3d48 a6e3 3f7f 880e 3d55     ...?/.H=...?..U=
  40bc18:	9c18 3f7f 1468 3d62 90b1 3f7f a038 3d6e     ...?h.b=...?8.n=
  40bc28:	84ab 3f7f 2b74 3d7b 7808 3f7f db0a 3d83     ...?t+{=.x.?...=
  40bc38:	6ac7 3f7f 200a 3d8a 5ce9 3f7f 64b4 3d90     .j.?. .=.\.?.d.=
  40bc48:	4e6d 3f7f a905 3d96 3f54 3f7f ecf9 3d9c     mN.?...=T?.?...=
  40bc58:	2f9d 3f7f 308c 3da3 1f49 3f7f 73ba 3da9     ./.?.0.=I..?.s.=
  40bc68:	0e58 3f7f b680 3daf fcc9 3f7e f8da 3db5     X..?...=..~?...=
  40bc78:	ea9d 3f7e 3ac3 3dbc d7d4 3f7e 7c39 3dc2     ..~?.:.=..~?9|.=
  40bc88:	c46d 3f7e bd36 3dc8 b069 3f7e fdb7 3dce     m.~?6..=i.~?...=
  40bc98:	9bc9 3f7e 3db9 3dd5 868b 3f7e 7d37 3ddb     ..~?.=.=..~?7}.=
  40bca8:	70b0 3f7e bc2e 3de1 5a38 3f7e fa9a 3de7     .p~?...=8Z~?...=
  40bcb8:	4323 3f7e 3876 3dee 2b72 3f7e 75c0 3df4     #C~?v8.=r+~?.u.=
  40bcc8:	1324 3f7e b273 3dfa fa38 3f7d 7745 3e00     $.~?s..=8.}?Ew.>
  40bcd8:	e0b1 3f7d 9502 3e03 c68c 3f7d b26e 3e06     ..}?...>..}?n..>
  40bce8:	abcc 3f7d cf86 3e09 906e 3f7d ec4a 3e0c     ..}?...>n.}?J..>
  40bcf8:	7474 3f7d 08b7 3e10 57de 3f7d 24ca 3e13     tt}?...>.W}?.$.>
  40bd08:	3aac 3f7d 4083 3e16 1cdd 3f7d 5be0 3e19     .:}?.@.>..}?.[.>
  40bd18:	fe73 3f7c 76de 3e1c df6c 3f7c 917b 3e1f     s.|?.v.>l.|?{..>
  40bd28:	bfc9 3f7c abb6 3e22 9f8a 3f7c c58c 3e25     ..|?..">..|?..%>
  40bd38:	7eb0 3f7c defc 3e28 5d3a 3f7c f804 3e2b     .~|?..(>:]|?..+>
  40bd48:	3b28 3f7c 10a2 3e2f 187a 3f7c 28d4 3e32     (;|?../>z.|?.(2>
  40bd58:	f531 3f7b 4098 3e35 d14d 3f7b 57ec 3e38     1.{?.@5>M.{?.W8>
  40bd68:	accd 3f7b 6ecf 3e3b 87b2 3f7b 853e 3e3e     ..{?.n;>..{?>.>>
  40bd78:	61fc 3f7b 9b37 3e41 3bab 3f7b b0b9 3e44     .a{?7.A>.;{?..D>
  40bd88:	14be 3f7b c5c2 3e47 ed37 3f7a da4f 3e4a     ..{?..G>7.z?O.J>
  40bd98:	c516 3f7a ee60 3e4d 9c59 3f7a 01f1 3e51     ..z?`.M>Y.z?..Q>
  40bda8:	7302 3f7a 1501 3e54 4910 3f7a 278f 3e57     .sz?..T>.Iz?.'W>
  40bdb8:	1e84 3f7a 3997 3e5a f35e 3f79 4b1a 3e5d     ..z?.9Z>^.y?.K]>
  40bdc8:	c79d 3f79 5c13 3e60 9b43 3f79 6c83 3e63     ..y?.\`>C.y?.lc>
  40bdd8:	6e4e 3f79 7c66 3e66 40c0 3f79 8bba 3e69     Nny?f|f>.@y?..i>
  40bde8:	1298 3f79 9a7f 3e6c e3d6 3f78 a8b2 3e6f     ..y?..l>..x?..o>
  40bdf8:	b47b 3f78 b651 3e72 8486 3f78 c35a 3e75     {.x?Q.r>..x?Z.u>
  40be08:	53f8 3f78 cfcc 3e78 22d1 3f78 dba4 3e7b     .Sx?..x>."x?..{>
  40be18:	f110 3f77 e6e1 3e7e beb7 3f77 f8c0 3e80     ..w?..~>..w?...>
  40be28:	8bc5 3f77 7dc0 3e82 583a 3f77 0270 3e84     ..w?.}.>:Xw?p..>
  40be38:	2417 3f77 86ce 3e85 ef5b 3f76 0ada 3e87     .$w?...>[.v?...>
  40be48:	ba07 3f76 8e93 3e88 841b 3f76 11f8 3e8a     ..v?...>..v?...>
  40be58:	4d97 3f76 9507 3e8b 167a 3f76 17c0 3e8d     .Mv?...>z.v?...>
  40be68:	dec6 3f75 9a22 3e8e a67b 3f75 1c2c 3e90     ..u?"..>{.u?,..>
  40be78:	6d97 3f75 9ddd 3e91 341d 3f75 1f35 3e93     .mu?...>.4u?5..>
  40be88:	fa0b 3f74 a031 3e94 bf62 3f74 20d2 3e96     ..t?1..>b.t?. .>
  40be98:	8422 3f74 a117 3e97 484b 3f74 20fe 3e99     ".t?...>KHt?. .>
  40bea8:	0bdd 3f74 a086 3e9a ced9 3f73 1faf 3e9c     ..t?...>..s?...>
  40beb8:	913f 3f73 9e78 3e9d 530e 3f73 1cdf 3e9f     ?.s?x..>.Ss?...>
  40bec8:	1447 3f73 9ae5 3ea0 d4eb 3f72 1887 3ea2     G.s?...>..r?...>
  40bed8:	94f8 3f72 95c5 3ea3 5470 3f72 129f 3ea5     ..r?...>pTr?...>
  40bee8:	1352 3f72 8f12 3ea6 d19f 3f71 0b1f 3ea8     R.r?...>..q?...>
  40bef8:	8f57 3f71 86c4 3ea9 4c7a 3f71 0201 3eab     W.q?...>zLq?...>
  40bf08:	0908 3f71 7cd4 3eac c502 3f70 f73c 3ead     ..q?.|.>..p?<..>
  40bf18:	8066 3f70 713a 3eaf 3b37 3f70 eacb 3eb0     f.p?:q.>7;p?...>
  40bf28:	f573 3f6f 63ef 3eb2 af1b 3f6f dca5 3eb3     s.o?.c.>..o?...>
  40bf38:	6830 3f6f 54ec 3eb5 20b0 3f6f ccc3 3eb6     0ho?.T.>. o?...>
  40bf48:	d89e 3f6e 442a 3eb8 8ff8 3f6e bb1e 3eb9     ..n?*D.>..n?...>
  40bf58:	46be 3f6e 31a0 3ebb fcf2 3f6d a7af 3ebc     .Fn?.1.>..m?...>
  40bf68:	b293 3f6d 1d4a 3ebe 67a1 3f6d 926f 3ebf     ..m?J..>.gm?o..>
  40bf78:	1c1d 3f6d 071e 3ec1 d007 3f6c 7b55 3ec2     ..m?...>..l?U{.>
  40bf88:	835e 3f6c ef15 3ec3 3624 3f6c 625c 3ec5     ^.l?...>$6l?\b.>
  40bf98:	e858 3f6b d529 3ec6 99fb 3f6b 477c 3ec8     X.k?)..>..k?|G.>
  40bfa8:	4b0c 3f6b b953 3ec9 fb8c 3f6a 2aae 3ecb     .Kk?S..>..j?.*.>
  40bfb8:	ab7b 3f6a 9b8b 3ecc 5ad9 3f6a 0bea 3ece     {.j?...>.Zj?...>
  40bfc8:	09a7 3f6a 7bca 3ecf b7e4 3f69 eb2a 3ed0     ..j?.{.>..i?*..>
  40bfd8:	6591 3f69 5a09 3ed2 12ae 3f69 c867 3ed3     .ei?.Z.>..i?g..>
  40bfe8:	bf3c 3f68 3641 3ed5 6b39 3f68 a399 3ed6     <.h?A6.>9kh?...>
  40bff8:	16a8 3f68 106b 3ed8 c187 3f67 7cb9 3ed9     ..h?k..>..g?.|.>
  40c008:	6bd8 3f67 e880 3eda 1599 3f67 53c1 3edc     .kg?...>..g?.S.>
  40c018:	becc 3f66 be79 3edd 6771 3f66 28a9 3edf     ..f?y..>qgf?.(.>
  40c028:	0f88 3f66 924f 3ee0 b710 3f65 fb6a 3ee1     ..f?O..>..e?j..>
  40c038:	5e0b 3f65 63fa 3ee3 0479 3f65 cbfe 3ee4     .^e?.c.>y.e?...>
  40c048:	aa59 3f64 3375 3ee6 4fac 3f64 9a5d 3ee7     Y.d?u3.>.Od?]..>
  40c058:	f473 3f63 00b7 3ee9 98ac 3f63 6681 3eea     s.c?...>..c?.f.>
  40c068:	3c5a 3f63 cbbb 3eeb df7b 3f62 3063 3eed     Z<c?...>{.b?c0.>
  40c078:	8210 3f62 9479 3eee 241a 3f62 f7fb 3eef     ..b?y..>.$b?...>
  40c088:	c598 3f61 5aea 3ef1 668a 3f61 bd43 3ef2     ..a?.Z.>.fa?C..>
  40c098:	06f2 3f61 1f07 3ef4 a6cf 3f60 8035 3ef5     ..a?...>..`?5..>
  40c0a8:	4621 3f60 e0cb 3ef6 e4e9 3f5f 40c8 3ef8     !F`?...>.._?.@.>
  40c0b8:	8327 3f5f a02d 3ef9 20db 3f5f fef7 3efa     '._?-..>. _?...>
  40c0c8:	be05 3f5e 5d27 3efc 5aa6 3f5e babb 3efd     ..^?'].>.Z^?...>
  40c0d8:	f6be 3f5d 17b2 3eff 924d 3f5d 3a06 3f00     ..]?...>M.]?.:.?
  40c0e8:	2d53 3f5d e7e4 3f00 c7d1 3f5c 9573 3f01     S-]?...?..\?s..?
  40c0f8:	61c7 3f5c 42b1 3f02 fb34 3f5b ef9f 3f02     .a\?.B.?4.[?...?
  40c108:	941a 3f5b 9c3d 3f03 2c79 3f5b 4889 3f04     ..[?=..?y,[?.H.?
  40c118:	c450 3f5a f484 3f04 5ba0 3f5a a02c 3f05     P.Z?...?.[Z?,..?
  40c128:	f26a 3f59 4b82 3f06 88ad 3f59 f686 3f06     j.Y?.K.?..Y?...?
  40c138:	1e6a 3f59 a136 3f07 b3a1 3f58 4b92 3f08     j.Y?6..?..X?.K.?
  40c148:	4853 3f58 f59b 3f08 dc7f 3f57 9f4e 3f09     SHX?...?..W?N..?
  40c158:	7026 3f57 48ad 3f0a 0348 3f57 f1b7 3f0a     &pW?.H.?H.W?...?
  40c168:	95e5 3f56 9a6b 3f0b 27fe 3f56 42c9 3f0c     ..V?k..?.'V?.B.?
  40c178:	b993 3f55 ead0 3f0c 4aa4 3f55 9281 3f0d     ..U?...?.JU?...?
  40c188:	db31 3f54 39da 3f0e 6b3b 3f54 e0db 3f0e     1.T?.9.?;kT?...?
  40c198:	fac3 3f53 8784 3f0f 89c7 3f53 2dd5 3f10     ..S?...?..S?.-.?
  40c1a8:	1849 3f53 d3cd 3f10 a649 3f52 796b 3f11     I.S?...?I.R?ky.?
  40c1b8:	33c6 3f52 1eb0 3f12 c0c2 3f51 c39a 3f12     .3R?...?..Q?...?
  40c1c8:	4d3d 3f51 682a 3f13 d937 3f50 0c5f 3f14     =MQ?*h.?7.P?_..?
  40c1d8:	64af 3f50 b039 3f14 efa8 3f4f 53b7 3f15     .dP?9..?..O?.S.?
  40c1e8:	7a1f 3f4f f6d9 3f15 0417 3f4f 999f 3f16     .zO?...?..O?...?
  40c1f8:	8d90 3f4e 3c07 3f17 1689 3f4e de12 3f17     ..N?.<.?..N?...?
  40c208:	9f02 3f4d 7fc0 3f18 26fd 3f4d 210f 3f19     ..M?...?.&M?.!.?
  40c218:	ae79 3f4c c200 3f19 3578 3f4c 6293 3f1a     y.L?...?x5L?.b.?
  40c228:	bbf8 3f4b 02c6 3f1b 41fa 3f4b a299 3f1b     ..K?...?.AK?...?
  40c238:	c77f 3f4a 420c 3f1c 4c87 3f4a e11f 3f1c     ..J?.B.?.LJ?...?
  40c248:	d112 3f49 7fd1 3f1d 5521 3f49 1e22 3f1e     ..I?...?!UI?"..?
  40c258:	d8b3 3f48 bc12 3f1e 5bca 3f48 599f 3f1f     ..H?...?.[H?.Y.?
  40c268:	de65 3f47 f6cb 3f1f 6085 3f47 9393 3f20     e.G?...?.`G?.. ?
  40c278:	e22a 3f46 2ff9 3f21 6354 3f46 cbfb 3f21     *.F?./!?TcF?..!?
  40c288:	e403 3f45 6799 3f22 6439 3f45 02d3 3f23     ..E?.g"?9dE?..#?
  40c298:	e3f5 3f44 9da9 3f23 6337 3f44 381a 3f24     ..D?..#?7cD?.8$?
  40c2a8:	e200 3f43 d225 3f24 6051 3f43 6bcb 3f25     ..C?%.$?Q`C?.k%?
  40c2b8:	de29 3f42 050a 3f26 5b89 3f42 9de3 3f26     ).B?..&?.[B?..&?
  40c2c8:	d870 3f41 3656 3f27 54e1 3f41 ce61 3f27     p.A?V6'?.TA?a.'?
  40c2d8:	d0da 3f40 6605 3f28 4c5c 3f40 fd41 3f28     ..@?.f(?\L@?A.(?
  40c2e8:	c767 3f3f 9415 3f29 41fc 3f3f 2a80 3f2a     g.??..)?.A??.**?
  40c2f8:	bc1b 3f3e c082 3f2a 35c5 3f3e 561b 3f2b     ..>?..*?.5>?.V+?
  40c308:	aef9 3f3d eb4a 3f2b 27b8 3f3d 800f 3f2c     ..=?J.+?.'=?..,?
  40c318:	a003 3f3c 1469 3f2d 17d9 3f3c a859 3f2d     ..<?i.-?..<?Y.-?
  40c328:	8f3b 3f3b 3bde 3f2e 0629 3f3b cef7 3f2e     ;.;?.;.?).;?...?
  40c338:	7ca4 3f3a 61a5 3f2f f2ac 3f39 f3e6 3f2f     .|:?.a/?..9?../?
  40c348:	6842 3f39 85bb 3f30 dd65 3f38 1722 3f31     Bh9?..0?e.8?".1?
  40c358:	5216 3f38 a81d 3f31 c655 3f37 38aa 3f32     .R8?..1?U.7?.82?
  40c368:	3a23 3f37 c8c9 3f32 ad7f 3f36 587a 3f33     #:7?..2?..6?zX3?
  40c378:	206c 3f36 e7bc 3f33 92e7 3f35 768f 3f34     l 6?..3?..5?.v4?
  40c388:	04f3 3f35 04f3 3f35 768f 3f34 92e7 3f35     ..5?..5?.v4?..5?
  40c398:	e7bc 3f33 206c 3f36 587a 3f33 ad7f 3f36     ..3?l 6?zX3?..6?
  40c3a8:	c8c9 3f32 3a23 3f37 38aa 3f32 c655 3f37     ..2?#:7?.82?U.7?
  40c3b8:	a81d 3f31 5216 3f38 1722 3f31 dd65 3f38     ..1?.R8?".1?e.8?
  40c3c8:	85bb 3f30 6842 3f39 f3e6 3f2f f2ac 3f39     ..0?Bh9?../?..9?
  40c3d8:	61a5 3f2f 7ca4 3f3a cef7 3f2e 0629 3f3b     .a/?.|:?...?).;?
  40c3e8:	3bde 3f2e 8f3b 3f3b a859 3f2d 17d9 3f3c     .;.?;.;?Y.-?..<?
  40c3f8:	1469 3f2d a003 3f3c 800f 3f2c 27b8 3f3d     i.-?..<?..,?.'=?
  40c408:	eb4a 3f2b aef9 3f3d 561b 3f2b 35c5 3f3e     J.+?..=?.V+?.5>?
  40c418:	c082 3f2a bc1b 3f3e 2a80 3f2a 41fc 3f3f     ..*?..>?.**?.A??
  40c428:	9415 3f29 c767 3f3f fd41 3f28 4c5c 3f40     ..)?g.??A.(?\L@?
  40c438:	6605 3f28 d0da 3f40 ce61 3f27 54e1 3f41     .f(?..@?a.'?.TA?
  40c448:	3656 3f27 d870 3f41 9de3 3f26 5b89 3f42     V6'?p.A?..&?.[B?
  40c458:	050a 3f26 de29 3f42 6bcb 3f25 6051 3f43     ..&?).B?.k%?Q`C?
  40c468:	d225 3f24 e200 3f43 381a 3f24 6337 3f44     %.$?..C?.8$?7cD?
  40c478:	9da9 3f23 e3f5 3f44 02d3 3f23 6439 3f45     ..#?..D?..#?9dE?
  40c488:	6799 3f22 e403 3f45 cbfb 3f21 6354 3f46     .g"?..E?..!?TcF?
  40c498:	2ff9 3f21 e22a 3f46 9393 3f20 6085 3f47     ./!?*.F?.. ?.`G?
  40c4a8:	f6cb 3f1f de65 3f47 599f 3f1f 5bca 3f48     ...?e.G?.Y.?.[H?
  40c4b8:	bc12 3f1e d8b3 3f48 1e22 3f1e 5521 3f49     ...?..H?"..?!UI?
  40c4c8:	7fd1 3f1d d112 3f49 e11f 3f1c 4c87 3f4a     ...?..I?...?.LJ?
  40c4d8:	420c 3f1c c77f 3f4a a299 3f1b 41fa 3f4b     .B.?..J?...?.AK?
  40c4e8:	02c6 3f1b bbf8 3f4b 6293 3f1a 3578 3f4c     ...?..K?.b.?x5L?
  40c4f8:	c200 3f19 ae79 3f4c 210f 3f19 26fd 3f4d     ...?y.L?.!.?.&M?
  40c508:	7fc0 3f18 9f02 3f4d de12 3f17 1689 3f4e     ...?..M?...?..N?
  40c518:	3c07 3f17 8d90 3f4e 999f 3f16 0417 3f4f     .<.?..N?...?..O?
  40c528:	f6d9 3f15 7a1f 3f4f 53b7 3f15 efa8 3f4f     ...?.zO?.S.?..O?
  40c538:	b039 3f14 64af 3f50 0c5f 3f14 d937 3f50     9..?.dP?_..?7.P?
  40c548:	682a 3f13 4d3d 3f51 c39a 3f12 c0c2 3f51     *h.?=MQ?...?..Q?
  40c558:	1eb0 3f12 33c6 3f52 796b 3f11 a649 3f52     ...?.3R?ky.?I.R?
  40c568:	d3cd 3f10 1849 3f53 2dd5 3f10 89c7 3f53     ...?I.S?.-.?..S?
  40c578:	8784 3f0f fac3 3f53 e0db 3f0e 6b3b 3f54     ...?..S?...?;kT?
  40c588:	39da 3f0e db31 3f54 9281 3f0d 4aa4 3f55     .9.?1.T?...?.JU?
  40c598:	ead0 3f0c b993 3f55 42c9 3f0c 27fe 3f56     ...?..U?.B.?.'V?
  40c5a8:	9a6b 3f0b 95e5 3f56 f1b7 3f0a 0348 3f57     k..?..V?...?H.W?
  40c5b8:	48ad 3f0a 7026 3f57 9f4e 3f09 dc7f 3f57     .H.?&pW?N..?..W?
  40c5c8:	f59b 3f08 4853 3f58 4b92 3f08 b3a1 3f58     ...?SHX?.K.?..X?
  40c5d8:	a136 3f07 1e6a 3f59 f686 3f06 88ad 3f59     6..?j.Y?...?..Y?
  40c5e8:	4b82 3f06 f26a 3f59 a02c 3f05 5ba0 3f5a     .K.?j.Y?,..?.[Z?
  40c5f8:	f484 3f04 c450 3f5a 4889 3f04 2c79 3f5b     ...?P.Z?.H.?y,[?
  40c608:	9c3d 3f03 941a 3f5b ef9f 3f02 fb34 3f5b     =..?..[?...?4.[?
  40c618:	42b1 3f02 61c7 3f5c 9573 3f01 c7d1 3f5c     .B.?.a\?s..?..\?
  40c628:	e7e4 3f00 2d53 3f5d 3a06 3f00 924d 3f5d     ...?S-]?.:.?M.]?
  40c638:	17b2 3eff f6be 3f5d babb 3efd 5aa6 3f5e     ...>..]?...>.Z^?
  40c648:	5d27 3efc be05 3f5e fef7 3efa 20db 3f5f     '].>..^?...>. _?
  40c658:	a02d 3ef9 8327 3f5f 40c8 3ef8 e4e9 3f5f     -..>'._?.@.>.._?
  40c668:	e0cb 3ef6 4621 3f60 8035 3ef5 a6cf 3f60     ...>!F`?5..>..`?
  40c678:	1f07 3ef4 06f2 3f61 bd43 3ef2 668a 3f61     ...>..a?C..>.fa?
  40c688:	5aea 3ef1 c598 3f61 f7fb 3eef 241a 3f62     .Z.>..a?...>.$b?
  40c698:	9479 3eee 8210 3f62 3063 3eed df7b 3f62     y..>..b?c0.>{.b?
  40c6a8:	cbbb 3eeb 3c5a 3f63 6681 3eea 98ac 3f63     ...>Z<c?.f.>..c?
  40c6b8:	00b7 3ee9 f473 3f63 9a5d 3ee7 4fac 3f64     ...>s.c?]..>.Od?
  40c6c8:	3375 3ee6 aa59 3f64 cbfe 3ee4 0479 3f65     u3.>Y.d?...>y.e?
  40c6d8:	63fa 3ee3 5e0b 3f65 fb6a 3ee1 b710 3f65     .c.>.^e?j..>..e?
  40c6e8:	924f 3ee0 0f88 3f66 28a9 3edf 6771 3f66     O..>..f?.(.>qgf?
  40c6f8:	be79 3edd becc 3f66 53c1 3edc 1599 3f67     y..>..f?.S.>..g?
  40c708:	e880 3eda 6bd8 3f67 7cb9 3ed9 c187 3f67     ...>.kg?.|.>..g?
  40c718:	106b 3ed8 16a8 3f68 a399 3ed6 6b39 3f68     k..>..h?...>9kh?
  40c728:	3641 3ed5 bf3c 3f68 c867 3ed3 12ae 3f69     A6.><.h?g..>..i?
  40c738:	5a09 3ed2 6591 3f69 eb2a 3ed0 b7e4 3f69     .Z.>.ei?*..>..i?
  40c748:	7bca 3ecf 09a7 3f6a 0bea 3ece 5ad9 3f6a     .{.>..j?...>.Zj?
  40c758:	9b8b 3ecc ab7b 3f6a 2aae 3ecb fb8c 3f6a     ...>{.j?.*.>..j?
  40c768:	b953 3ec9 4b0c 3f6b 477c 3ec8 99fb 3f6b     S..>.Kk?|G.>..k?
  40c778:	d529 3ec6 e858 3f6b 625c 3ec5 3624 3f6c     )..>X.k?\b.>$6l?
  40c788:	ef15 3ec3 835e 3f6c 7b55 3ec2 d007 3f6c     ...>^.l?U{.>..l?
  40c798:	071e 3ec1 1c1d 3f6d 926f 3ebf 67a1 3f6d     ...>..m?o..>.gm?
  40c7a8:	1d4a 3ebe b293 3f6d a7af 3ebc fcf2 3f6d     J..>..m?...>..m?
  40c7b8:	31a0 3ebb 46be 3f6e bb1e 3eb9 8ff8 3f6e     .1.>.Fn?...>..n?
  40c7c8:	442a 3eb8 d89e 3f6e ccc3 3eb6 20b0 3f6f     *D.>..n?...>. o?
  40c7d8:	54ec 3eb5 6830 3f6f dca5 3eb3 af1b 3f6f     .T.>0ho?...>..o?
  40c7e8:	63ef 3eb2 f573 3f6f eacb 3eb0 3b37 3f70     .c.>s.o?...>7;p?
  40c7f8:	713a 3eaf 8066 3f70 f73c 3ead c502 3f70     :q.>f.p?<..>..p?
  40c808:	7cd4 3eac 0908 3f71 0201 3eab 4c7a 3f71     .|.>..q?...>zLq?
  40c818:	86c4 3ea9 8f57 3f71 0b1f 3ea8 d19f 3f71     ...>W.q?...>..q?
  40c828:	8f12 3ea6 1352 3f72 129f 3ea5 5470 3f72     ...>R.r?...>pTr?
  40c838:	95c5 3ea3 94f8 3f72 1887 3ea2 d4eb 3f72     ...>..r?...>..r?
  40c848:	9ae5 3ea0 1447 3f73 1cdf 3e9f 530e 3f73     ...>G.s?...>.Ss?
  40c858:	9e78 3e9d 913f 3f73 1faf 3e9c ced9 3f73     x..>?.s?...>..s?
  40c868:	a086 3e9a 0bdd 3f74 20fe 3e99 484b 3f74     ...>..t?. .>KHt?
  40c878:	a117 3e97 8422 3f74 20d2 3e96 bf62 3f74     ...>".t?. .>b.t?
  40c888:	a031 3e94 fa0b 3f74 1f35 3e93 341d 3f75     1..>..t?5..>.4u?
  40c898:	9ddd 3e91 6d97 3f75 1c2c 3e90 a67b 3f75     ...>.mu?,..>{.u?
  40c8a8:	9a22 3e8e dec6 3f75 17c0 3e8d 167a 3f76     "..>..u?...>z.v?
  40c8b8:	9507 3e8b 4d97 3f76 11f8 3e8a 841b 3f76     ...>.Mv?...>..v?
  40c8c8:	8e93 3e88 ba07 3f76 0ada 3e87 ef5b 3f76     ...>..v?...>[.v?
  40c8d8:	86ce 3e85 2417 3f77 0270 3e84 583a 3f77     ...>.$w?p..>:Xw?
  40c8e8:	7dc0 3e82 8bc5 3f77 f8c0 3e80 beb7 3f77     .}.>..w?...>..w?
  40c8f8:	e6e1 3e7e f110 3f77 dba4 3e7b 22d1 3f78     ..~>..w?..{>."x?
  40c908:	cfcc 3e78 53f8 3f78 c35a 3e75 8486 3f78     ..x>.Sx?Z.u>..x?
  40c918:	b651 3e72 b47b 3f78 a8b2 3e6f e3d6 3f78     Q.r>{.x?..o>..x?
  40c928:	9a7f 3e6c 1298 3f79 8bba 3e69 40c0 3f79     ..l>..y?..i>.@y?
  40c938:	7c66 3e66 6e4e 3f79 6c83 3e63 9b43 3f79     f|f>Nny?.lc>C.y?
  40c948:	5c13 3e60 c79d 3f79 4b1a 3e5d f35e 3f79     .\`>..y?.K]>^.y?
  40c958:	3997 3e5a 1e84 3f7a 278f 3e57 4910 3f7a     .9Z>..z?.'W>.Iz?
  40c968:	1501 3e54 7302 3f7a 01f1 3e51 9c59 3f7a     ..T>.sz?..Q>Y.z?
  40c978:	ee60 3e4d c516 3f7a da4f 3e4a ed37 3f7a     `.M>..z?O.J>7.z?
  40c988:	c5c2 3e47 14be 3f7b b0b9 3e44 3bab 3f7b     ..G>..{?..D>.;{?
  40c998:	9b37 3e41 61fc 3f7b 853e 3e3e 87b2 3f7b     7.A>.a{?>.>>..{?
  40c9a8:	6ecf 3e3b accd 3f7b 57ec 3e38 d14d 3f7b     .n;>..{?.W8>M.{?
  40c9b8:	4098 3e35 f531 3f7b 28d4 3e32 187a 3f7c     .@5>1.{?.(2>z.|?
  40c9c8:	10a2 3e2f 3b28 3f7c f804 3e2b 5d3a 3f7c     ../>(;|?..+>:]|?
  40c9d8:	defc 3e28 7eb0 3f7c c58c 3e25 9f8a 3f7c     ..(>.~|?..%>..|?
  40c9e8:	abb6 3e22 bfc9 3f7c 917b 3e1f df6c 3f7c     ..">..|?{..>l.|?
  40c9f8:	76de 3e1c fe73 3f7c 5be0 3e19 1cdd 3f7d     .v.>s.|?.[.>..}?
  40ca08:	4083 3e16 3aac 3f7d 24ca 3e13 57de 3f7d     .@.>.:}?.$.>.W}?
  40ca18:	08b7 3e10 7474 3f7d ec4a 3e0c 906e 3f7d     ...>tt}?J..>n.}?
  40ca28:	cf86 3e09 abcc 3f7d b26e 3e06 c68c 3f7d     ...>..}?n..>..}?
  40ca38:	9502 3e03 e0b1 3f7d 7745 3e00 fa38 3f7d     ...>..}?Ew.>8.}?
  40ca48:	b273 3dfa 1324 3f7e 75c0 3df4 2b72 3f7e     s..=$.~?.u.=r+~?
  40ca58:	3876 3dee 4323 3f7e fa9a 3de7 5a38 3f7e     v8.=#C~?...=8Z~?
  40ca68:	bc2e 3de1 70b0 3f7e 7d37 3ddb 868b 3f7e     ...=.p~?7}.=..~?
  40ca78:	3db9 3dd5 9bc9 3f7e fdb7 3dce b069 3f7e     .=.=..~?...=i.~?
  40ca88:	bd36 3dc8 c46d 3f7e 7c39 3dc2 d7d4 3f7e     6..=m.~?9|.=..~?
  40ca98:	3ac3 3dbc ea9d 3f7e f8da 3db5 fcc9 3f7e     .:.=..~?...=..~?
  40caa8:	b680 3daf 0e58 3f7f 73ba 3da9 1f49 3f7f     ...=X..?.s.=I..?
  40cab8:	308c 3da3 2f9d 3f7f ecf9 3d9c 3f54 3f7f     .0.=./.?...=T?.?
  40cac8:	a905 3d96 4e6d 3f7f 64b4 3d90 5ce9 3f7f     ...=mN.?.d.=.\.?
  40cad8:	200a 3d8a 6ac7 3f7f db0a 3d83 7808 3f7f     . .=.j.?...=.x.?
  40cae8:	2b74 3d7b 84ab 3f7f a038 3d6e 90b1 3f7f     t+{=...?8.n=...?
  40caf8:	1468 3d62 9c18 3f7f 880e 3d55 a6e3 3f7f     h.b=...?..U=...?
  40cb08:	fb2f 3d48 b10f 3f7f 6dd5 3d3c ba9e 3f7f     /.H=...?.m<=...?
  40cb18:	e007 3d2f c38f 3f7f 51cc 3d23 cbe2 3f7f     ../=...?.Q#=...?
  40cb28:	c32c 3d16 d398 3f7f 342f 3d0a daaf 3f7f     ,..=...?/4.=...?
  40cb38:	49b9 3cfb e129 3f7f 2a7b 3ce2 e705 3f7f     .I.<)..?{*.<...?
  40cb48:	0ab0 3cc9 ec43 3f7f ea69 3caf f0e3 3f7f     ...<C..?i..<...?
  40cb58:	c9b6 3c96 f4e6 3f7f 514b 3c7b f84a 3f7f     ...<...?KQ{<J..?
  40cb68:	0e90 3c49 fb11 3f7f cb59 3c16 fd39 3f7f     ..I<...?Y..<9..?
  40cb78:	0f89 3bc9 fec4 3f7f 0fc7 3b49 ffb1 3f7f     ...;...?..I;...?
  40cb88:	0000 0000 0000 3f80 0fc7 bb49 ffb1 3f7f     .......?..I....?
  40cb98:	0f89 bbc9 fec4 3f7f cb59 bc16 fd39 3f7f     .......?Y...9..?
  40cba8:	0e90 bc49 fb11 3f7f 514b bc7b f84a 3f7f     ..I....?KQ{.J..?
  40cbb8:	c9b6 bc96 f4e6 3f7f ea69 bcaf f0e3 3f7f     .......?i......?
  40cbc8:	0ab0 bcc9 ec43 3f7f 2a7b bce2 e705 3f7f     ....C..?{*.....?
  40cbd8:	49b9 bcfb e129 3f7f 342f bd0a daaf 3f7f     .I..)..?/4.....?
  40cbe8:	c32c bd16 d398 3f7f 51cc bd23 cbe2 3f7f     ,......?.Q#....?
  40cbf8:	e007 bd2f c38f 3f7f 6dd5 bd3c ba9e 3f7f     ../....?.m<....?
  40cc08:	fb2f bd48 b10f 3f7f 880e bd55 a6e3 3f7f     /.H....?..U....?
  40cc18:	1468 bd62 9c18 3f7f a038 bd6e 90b1 3f7f     h.b....?8.n....?
  40cc28:	2b74 bd7b 84ab 3f7f db0a bd83 7808 3f7f     t+{....?.....x.?
  40cc38:	200a bd8a 6ac7 3f7f 64b4 bd90 5ce9 3f7f     . ...j.?.d...\.?
  40cc48:	a905 bd96 4e6d 3f7f ecf9 bd9c 3f54 3f7f     ....mN.?....T?.?
  40cc58:	308c bda3 2f9d 3f7f 73ba bda9 1f49 3f7f     .0.../.?.s..I..?
  40cc68:	b680 bdaf 0e58 3f7f f8da bdb5 fcc9 3f7e     ....X..?......~?
  40cc78:	3ac3 bdbc ea9d 3f7e 7c39 bdc2 d7d4 3f7e     .:....~?9|....~?
  40cc88:	bd36 bdc8 c46d 3f7e fdb7 bdce b069 3f7e     6...m.~?....i.~?
  40cc98:	3db9 bdd5 9bc9 3f7e 7d37 bddb 868b 3f7e     .=....~?7}....~?
  40cca8:	bc2e bde1 70b0 3f7e fa9a bde7 5a38 3f7e     .....p~?....8Z~?
  40ccb8:	3876 bdee 4323 3f7e 75c0 bdf4 2b72 3f7e     v8..#C~?.u..r+~?
  40ccc8:	b273 bdfa 1324 3f7e 7745 be00 fa38 3f7d     s...$.~?Ew..8.}?
  40ccd8:	9502 be03 e0b1 3f7d b26e be06 c68c 3f7d     ......}?n.....}?
  40cce8:	cf86 be09 abcc 3f7d ec4a be0c 906e 3f7d     ......}?J...n.}?
  40ccf8:	08b7 be10 7474 3f7d 24ca be13 57de 3f7d     ....tt}?.$...W}?
  40cd08:	4083 be16 3aac 3f7d 5be0 be19 1cdd 3f7d     .@...:}?.[....}?
  40cd18:	76de be1c fe73 3f7c 917b be1f df6c 3f7c     .v..s.|?{...l.|?
  40cd28:	abb6 be22 bfc9 3f7c c58c be25 9f8a 3f7c     .."...|?..%...|?
  40cd38:	defc be28 7eb0 3f7c f804 be2b 5d3a 3f7c     ..(..~|?..+.:]|?
  40cd48:	10a2 be2f 3b28 3f7c 28d4 be32 187a 3f7c     ../.(;|?.(2.z.|?
  40cd58:	4098 be35 f531 3f7b 57ec be38 d14d 3f7b     .@5.1.{?.W8.M.{?
  40cd68:	6ecf be3b accd 3f7b 853e be3e 87b2 3f7b     .n;...{?>.>...{?
  40cd78:	9b37 be41 61fc 3f7b b0b9 be44 3bab 3f7b     7.A..a{?..D..;{?
  40cd88:	c5c2 be47 14be 3f7b da4f be4a ed37 3f7a     ..G...{?O.J.7.z?
  40cd98:	ee60 be4d c516 3f7a 01f1 be51 9c59 3f7a     `.M...z?..Q.Y.z?
  40cda8:	1501 be54 7302 3f7a 278f be57 4910 3f7a     ..T..sz?.'W..Iz?
  40cdb8:	3997 be5a 1e84 3f7a 4b1a be5d f35e 3f79     .9Z...z?.K].^.y?
  40cdc8:	5c13 be60 c79d 3f79 6c83 be63 9b43 3f79     .\`...y?.lc.C.y?
  40cdd8:	7c66 be66 6e4e 3f79 8bba be69 40c0 3f79     f|f.Nny?..i..@y?
  40cde8:	9a7f be6c 1298 3f79 a8b2 be6f e3d6 3f78     ..l...y?..o...x?
  40cdf8:	b651 be72 b47b 3f78 c35a be75 8486 3f78     Q.r.{.x?Z.u...x?
  40ce08:	cfcc be78 53f8 3f78 dba4 be7b 22d1 3f78     ..x..Sx?..{.."x?
  40ce18:	e6e1 be7e f110 3f77 f8c0 be80 beb7 3f77     ..~...w?......w?
  40ce28:	7dc0 be82 8bc5 3f77 0270 be84 583a 3f77     .}....w?p...:Xw?
  40ce38:	86ce be85 2417 3f77 0ada be87 ef5b 3f76     .....$w?....[.v?
  40ce48:	8e93 be88 ba07 3f76 11f8 be8a 841b 3f76     ......v?......v?
  40ce58:	9507 be8b 4d97 3f76 17c0 be8d 167a 3f76     .....Mv?....z.v?
  40ce68:	9a22 be8e dec6 3f75 1c2c be90 a67b 3f75     ".....u?,...{.u?
  40ce78:	9ddd be91 6d97 3f75 1f35 be93 341d 3f75     .....mu?5....4u?
  40ce88:	a031 be94 fa0b 3f74 20d2 be96 bf62 3f74     1.....t?. ..b.t?
  40ce98:	a117 be97 8422 3f74 20fe be99 484b 3f74     ....".t?. ..KHt?
  40cea8:	a086 be9a 0bdd 3f74 1faf be9c ced9 3f73     ......t?......s?
  40ceb8:	9e78 be9d 913f 3f73 1cdf be9f 530e 3f73     x...?.s?.....Ss?
  40cec8:	9ae5 bea0 1447 3f73 1887 bea2 d4eb 3f72     ....G.s?......r?
  40ced8:	95c5 bea3 94f8 3f72 129f bea5 5470 3f72     ......r?....pTr?
  40cee8:	8f12 bea6 1352 3f72 0b1f bea8 d19f 3f71     ....R.r?......q?
  40cef8:	86c4 bea9 8f57 3f71 0201 beab 4c7a 3f71     ....W.q?....zLq?
  40cf08:	7cd4 beac 0908 3f71 f73c bead c502 3f70     .|....q?<.....p?
  40cf18:	713a beaf 8066 3f70 eacb beb0 3b37 3f70     :q..f.p?....7;p?
  40cf28:	63ef beb2 f573 3f6f dca5 beb3 af1b 3f6f     .c..s.o?......o?
  40cf38:	54ec beb5 6830 3f6f ccc3 beb6 20b0 3f6f     .T..0ho?..... o?
  40cf48:	442a beb8 d89e 3f6e bb1e beb9 8ff8 3f6e     *D....n?......n?
  40cf58:	31a0 bebb 46be 3f6e a7af bebc fcf2 3f6d     .1...Fn?......m?
  40cf68:	1d4a bebe b293 3f6d 926f bebf 67a1 3f6d     J.....m?o....gm?
  40cf78:	071e bec1 1c1d 3f6d 7b55 bec2 d007 3f6c     ......m?U{....l?
  40cf88:	ef15 bec3 835e 3f6c 625c bec5 3624 3f6c     ....^.l?\b..$6l?
  40cf98:	d529 bec6 e858 3f6b 477c bec8 99fb 3f6b     )...X.k?|G....k?
  40cfa8:	b953 bec9 4b0c 3f6b 2aae becb fb8c 3f6a     S....Kk?.*....j?
  40cfb8:	9b8b becc ab7b 3f6a 0bea bece 5ad9 3f6a     ....{.j?.....Zj?
  40cfc8:	7bca becf 09a7 3f6a eb2a bed0 b7e4 3f69     .{....j?*.....i?
  40cfd8:	5a09 bed2 6591 3f69 c867 bed3 12ae 3f69     .Z...ei?g.....i?
  40cfe8:	3641 bed5 bf3c 3f68 a399 bed6 6b39 3f68     A6..<.h?....9kh?
  40cff8:	106b bed8 16a8 3f68 7cb9 bed9 c187 3f67     k.....h?.|....g?
  40d008:	e880 beda 6bd8 3f67 53c1 bedc 1599 3f67     .....kg?.S....g?
  40d018:	be79 bedd becc 3f66 28a9 bedf 6771 3f66     y.....f?.(..qgf?
  40d028:	924f bee0 0f88 3f66 fb6a bee1 b710 3f65     O.....f?j.....e?
  40d038:	63fa bee3 5e0b 3f65 cbfe bee4 0479 3f65     .c...^e?....y.e?
  40d048:	3375 bee6 aa59 3f64 9a5d bee7 4fac 3f64     u3..Y.d?]....Od?
  40d058:	00b7 bee9 f473 3f63 6681 beea 98ac 3f63     ....s.c?.f....c?
  40d068:	cbbb beeb 3c5a 3f63 3063 beed df7b 3f62     ....Z<c?c0..{.b?
  40d078:	9479 beee 8210 3f62 f7fb beef 241a 3f62     y.....b?.....$b?
  40d088:	5aea bef1 c598 3f61 bd43 bef2 668a 3f61     .Z....a?C....fa?
  40d098:	1f07 bef4 06f2 3f61 8035 bef5 a6cf 3f60     ......a?5.....`?
  40d0a8:	e0cb bef6 4621 3f60 40c8 bef8 e4e9 3f5f     ....!F`?.@...._?
  40d0b8:	a02d bef9 8327 3f5f fef7 befa 20db 3f5f     -...'._?..... _?
  40d0c8:	5d27 befc be05 3f5e babb befd 5aa6 3f5e     ']....^?.....Z^?
  40d0d8:	17b2 beff f6be 3f5d 3a06 bf00 924d 3f5d     ......]?.:..M.]?
  40d0e8:	e7e4 bf00 2d53 3f5d 9573 bf01 c7d1 3f5c     ....S-]?s.....\?
  40d0f8:	42b1 bf02 61c7 3f5c ef9f bf02 fb34 3f5b     .B...a\?....4.[?
  40d108:	9c3d bf03 941a 3f5b 4889 bf04 2c79 3f5b     =.....[?.H..y,[?
  40d118:	f484 bf04 c450 3f5a a02c bf05 5ba0 3f5a     ....P.Z?,....[Z?
  40d128:	4b82 bf06 f26a 3f59 f686 bf06 88ad 3f59     .K..j.Y?......Y?
  40d138:	a136 bf07 1e6a 3f59 4b92 bf08 b3a1 3f58     6...j.Y?.K....X?
  40d148:	f59b bf08 4853 3f58 9f4e bf09 dc7f 3f57     ....SHX?N.....W?
  40d158:	48ad bf0a 7026 3f57 f1b7 bf0a 0348 3f57     .H..&pW?....H.W?
  40d168:	9a6b bf0b 95e5 3f56 42c9 bf0c 27fe 3f56     k.....V?.B...'V?
  40d178:	ead0 bf0c b993 3f55 9281 bf0d 4aa4 3f55     ......U?.....JU?
  40d188:	39da bf0e db31 3f54 e0db bf0e 6b3b 3f54     .9..1.T?....;kT?
  40d198:	8784 bf0f fac3 3f53 2dd5 bf10 89c7 3f53     ......S?.-....S?
  40d1a8:	d3cd bf10 1849 3f53 796b bf11 a649 3f52     ....I.S?ky..I.R?
  40d1b8:	1eb0 bf12 33c6 3f52 c39a bf12 c0c2 3f51     .....3R?......Q?
  40d1c8:	682a bf13 4d3d 3f51 0c5f bf14 d937 3f50     *h..=MQ?_...7.P?
  40d1d8:	b039 bf14 64af 3f50 53b7 bf15 efa8 3f4f     9....dP?.S....O?
  40d1e8:	f6d9 bf15 7a1f 3f4f 999f bf16 0417 3f4f     .....zO?......O?
  40d1f8:	3c07 bf17 8d90 3f4e de12 bf17 1689 3f4e     .<....N?......N?
  40d208:	7fc0 bf18 9f02 3f4d 210f bf19 26fd 3f4d     ......M?.!...&M?
  40d218:	c200 bf19 ae79 3f4c 6293 bf1a 3578 3f4c     ....y.L?.b..x5L?
  40d228:	02c6 bf1b bbf8 3f4b a299 bf1b 41fa 3f4b     ......K?.....AK?
  40d238:	420c bf1c c77f 3f4a e11f bf1c 4c87 3f4a     .B....J?.....LJ?
  40d248:	7fd1 bf1d d112 3f49 1e22 bf1e 5521 3f49     ......I?"...!UI?
  40d258:	bc12 bf1e d8b3 3f48 599f bf1f 5bca 3f48     ......H?.Y...[H?
  40d268:	f6cb bf1f de65 3f47 9393 bf20 6085 3f47     ....e.G?.. ..`G?
  40d278:	2ff9 bf21 e22a 3f46 cbfb bf21 6354 3f46     ./!.*.F?..!.TcF?
  40d288:	6799 bf22 e403 3f45 02d3 bf23 6439 3f45     .g"...E?..#.9dE?
  40d298:	9da9 bf23 e3f5 3f44 381a bf24 6337 3f44     ..#...D?.8$.7cD?
  40d2a8:	d225 bf24 e200 3f43 6bcb bf25 6051 3f43     %.$...C?.k%.Q`C?
  40d2b8:	050a bf26 de29 3f42 9de3 bf26 5b89 3f42     ..&.).B?..&..[B?
  40d2c8:	3656 bf27 d870 3f41 ce61 bf27 54e1 3f41     V6'.p.A?a.'..TA?
  40d2d8:	6605 bf28 d0da 3f40 fd41 bf28 4c5c 3f40     .f(...@?A.(.\L@?
  40d2e8:	9415 bf29 c767 3f3f 2a80 bf2a 41fc 3f3f     ..).g.??.**..A??
  40d2f8:	c082 bf2a bc1b 3f3e 561b bf2b 35c5 3f3e     ..*...>?.V+..5>?
  40d308:	eb4a bf2b aef9 3f3d 800f bf2c 27b8 3f3d     J.+...=?..,..'=?
  40d318:	1469 bf2d a003 3f3c a859 bf2d 17d9 3f3c     i.-...<?Y.-...<?
  40d328:	3bde bf2e 8f3b 3f3b cef7 bf2e 0629 3f3b     .;..;.;?....).;?
  40d338:	61a5 bf2f 7ca4 3f3a f3e6 bf2f f2ac 3f39     .a/..|:?../...9?
  40d348:	85bb bf30 6842 3f39 1722 bf31 dd65 3f38     ..0.Bh9?".1.e.8?
  40d358:	a81d bf31 5216 3f38 38aa bf32 c655 3f37     ..1..R8?.82.U.7?
  40d368:	c8c9 bf32 3a23 3f37 587a bf33 ad7f 3f36     ..2.#:7?zX3...6?
  40d378:	e7bc bf33 206c 3f36 768f bf34 92e7 3f35     ..3.l 6?.v4...5?
  40d388:	04f3 bf35 04f3 3f35 92e7 bf35 768f 3f34     ..5...5?..5..v4?
  40d398:	206c bf36 e7bc 3f33 ad7f bf36 587a 3f33     l 6...3?..6.zX3?
  40d3a8:	3a23 bf37 c8c9 3f32 c655 bf37 38aa 3f32     #:7...2?U.7..82?
  40d3b8:	5216 bf38 a81d 3f31 dd65 bf38 1722 3f31     .R8...1?e.8.".1?
  40d3c8:	6842 bf39 85bb 3f30 f2ac bf39 f3e6 3f2f     Bh9...0?..9.../?
  40d3d8:	7ca4 bf3a 61a5 3f2f 0629 bf3b cef7 3f2e     .|:..a/?).;....?
  40d3e8:	8f3b bf3b 3bde 3f2e 17d9 bf3c a859 3f2d     ;.;..;.?..<.Y.-?
  40d3f8:	a003 bf3c 1469 3f2d 27b8 bf3d 800f 3f2c     ..<.i.-?.'=...,?
  40d408:	aef9 bf3d eb4a 3f2b 35c5 bf3e 561b 3f2b     ..=.J.+?.5>..V+?
  40d418:	bc1b bf3e c082 3f2a 41fc bf3f 2a80 3f2a     ..>...*?.A?..**?
  40d428:	c767 bf3f 9415 3f29 4c5c bf40 fd41 3f28     g.?...)?\L@.A.(?
  40d438:	d0da bf40 6605 3f28 54e1 bf41 ce61 3f27     ..@..f(?.TA.a.'?
  40d448:	d870 bf41 3656 3f27 5b89 bf42 9de3 3f26     p.A.V6'?.[B...&?
  40d458:	de29 bf42 050a 3f26 6051 bf43 6bcb 3f25     ).B...&?Q`C..k%?
  40d468:	e200 bf43 d225 3f24 6337 bf44 381a 3f24     ..C.%.$?7cD..8$?
  40d478:	e3f5 bf44 9da9 3f23 6439 bf45 02d3 3f23     ..D...#?9dE...#?
  40d488:	e403 bf45 6799 3f22 6354 bf46 cbfb 3f21     ..E..g"?TcF...!?
  40d498:	e22a bf46 2ff9 3f21 6085 bf47 9393 3f20     *.F../!?.`G... ?
  40d4a8:	de65 bf47 f6cb 3f1f 5bca bf48 599f 3f1f     e.G....?.[H..Y.?
  40d4b8:	d8b3 bf48 bc12 3f1e 5521 bf49 1e22 3f1e     ..H....?!UI."..?
  40d4c8:	d112 bf49 7fd1 3f1d 4c87 bf4a e11f 3f1c     ..I....?.LJ....?
  40d4d8:	c77f bf4a 420c 3f1c 41fa bf4b a299 3f1b     ..J..B.?.AK....?
  40d4e8:	bbf8 bf4b 02c6 3f1b 3578 bf4c 6293 3f1a     ..K....?x5L..b.?
  40d4f8:	ae79 bf4c c200 3f19 26fd bf4d 210f 3f19     y.L....?.&M..!.?
  40d508:	9f02 bf4d 7fc0 3f18 1689 bf4e de12 3f17     ..M....?..N....?
  40d518:	8d90 bf4e 3c07 3f17 0417 bf4f 999f 3f16     ..N..<.?..O....?
  40d528:	7a1f bf4f f6d9 3f15 efa8 bf4f 53b7 3f15     .zO....?..O..S.?
  40d538:	64af bf50 b039 3f14 d937 bf50 0c5f 3f14     .dP.9..?7.P._..?
  40d548:	4d3d bf51 682a 3f13 c0c2 bf51 c39a 3f12     =MQ.*h.?..Q....?
  40d558:	33c6 bf52 1eb0 3f12 a649 bf52 796b 3f11     .3R....?I.R.ky.?
  40d568:	1849 bf53 d3cd 3f10 89c7 bf53 2dd5 3f10     I.S....?..S..-.?
  40d578:	fac3 bf53 8784 3f0f 6b3b bf54 e0db 3f0e     ..S....?;kT....?
  40d588:	db31 bf54 39da 3f0e 4aa4 bf55 9281 3f0d     1.T..9.?.JU....?
  40d598:	b993 bf55 ead0 3f0c 27fe bf56 42c9 3f0c     ..U....?.'V..B.?
  40d5a8:	95e5 bf56 9a6b 3f0b 0348 bf57 f1b7 3f0a     ..V.k..?H.W....?
  40d5b8:	7026 bf57 48ad 3f0a dc7f bf57 9f4e 3f09     &pW..H.?..W.N..?
  40d5c8:	4853 bf58 f59b 3f08 b3a1 bf58 4b92 3f08     SHX....?..X..K.?
  40d5d8:	1e6a bf59 a136 3f07 88ad bf59 f686 3f06     j.Y.6..?..Y....?
  40d5e8:	f26a bf59 4b82 3f06 5ba0 bf5a a02c 3f05     j.Y..K.?.[Z.,..?
  40d5f8:	c450 bf5a f484 3f04 2c79 bf5b 4889 3f04     P.Z....?y,[..H.?
  40d608:	941a bf5b 9c3d 3f03 fb34 bf5b ef9f 3f02     ..[.=..?4.[....?
  40d618:	61c7 bf5c 42b1 3f02 c7d1 bf5c 9573 3f01     .a\..B.?..\.s..?
  40d628:	2d53 bf5d e7e4 3f00 924d bf5d 3a06 3f00     S-]....?M.]..:.?
  40d638:	f6be bf5d 17b2 3eff 5aa6 bf5e babb 3efd     ..]....>.Z^....>
  40d648:	be05 bf5e 5d27 3efc 20db bf5f fef7 3efa     ..^.'].>. _....>
  40d658:	8327 bf5f a02d 3ef9 e4e9 bf5f 40c8 3ef8     '._.-..>.._..@.>
  40d668:	4621 bf60 e0cb 3ef6 a6cf bf60 8035 3ef5     !F`....>..`.5..>
  40d678:	06f2 bf61 1f07 3ef4 668a bf61 bd43 3ef2     ..a....>.fa.C..>
  40d688:	c598 bf61 5aea 3ef1 241a bf62 f7fb 3eef     ..a..Z.>.$b....>
  40d698:	8210 bf62 9479 3eee df7b bf62 3063 3eed     ..b.y..>{.b.c0.>
  40d6a8:	3c5a bf63 cbbb 3eeb 98ac bf63 6681 3eea     Z<c....>..c..f.>
  40d6b8:	f473 bf63 00b7 3ee9 4fac bf64 9a5d 3ee7     s.c....>.Od.]..>
  40d6c8:	aa59 bf64 3375 3ee6 0479 bf65 cbfe 3ee4     Y.d.u3.>y.e....>
  40d6d8:	5e0b bf65 63fa 3ee3 b710 bf65 fb6a 3ee1     .^e..c.>..e.j..>
  40d6e8:	0f88 bf66 924f 3ee0 6771 bf66 28a9 3edf     ..f.O..>qgf..(.>
  40d6f8:	becc bf66 be79 3edd 1599 bf67 53c1 3edc     ..f.y..>..g..S.>
  40d708:	6bd8 bf67 e880 3eda c187 bf67 7cb9 3ed9     .kg....>..g..|.>
  40d718:	16a8 bf68 106b 3ed8 6b39 bf68 a399 3ed6     ..h.k..>9kh....>
  40d728:	bf3c bf68 3641 3ed5 12ae bf69 c867 3ed3     <.h.A6.>..i.g..>
  40d738:	6591 bf69 5a09 3ed2 b7e4 bf69 eb2a 3ed0     .ei..Z.>..i.*..>
  40d748:	09a7 bf6a 7bca 3ecf 5ad9 bf6a 0bea 3ece     ..j..{.>.Zj....>
  40d758:	ab7b bf6a 9b8b 3ecc fb8c bf6a 2aae 3ecb     {.j....>..j..*.>
  40d768:	4b0c bf6b b953 3ec9 99fb bf6b 477c 3ec8     .Kk.S..>..k.|G.>
  40d778:	e858 bf6b d529 3ec6 3624 bf6c 625c 3ec5     X.k.)..>$6l.\b.>
  40d788:	835e bf6c ef15 3ec3 d007 bf6c 7b55 3ec2     ^.l....>..l.U{.>
  40d798:	1c1d bf6d 071e 3ec1 67a1 bf6d 926f 3ebf     ..m....>.gm.o..>
  40d7a8:	b293 bf6d 1d4a 3ebe fcf2 bf6d a7af 3ebc     ..m.J..>..m....>
  40d7b8:	46be bf6e 31a0 3ebb 8ff8 bf6e bb1e 3eb9     .Fn..1.>..n....>
  40d7c8:	d89e bf6e 442a 3eb8 20b0 bf6f ccc3 3eb6     ..n.*D.>. o....>
  40d7d8:	6830 bf6f 54ec 3eb5 af1b bf6f dca5 3eb3     0ho..T.>..o....>
  40d7e8:	f573 bf6f 63ef 3eb2 3b37 bf70 eacb 3eb0     s.o..c.>7;p....>
  40d7f8:	8066 bf70 713a 3eaf c502 bf70 f73c 3ead     f.p.:q.>..p.<..>
  40d808:	0908 bf71 7cd4 3eac 4c7a bf71 0201 3eab     ..q..|.>zLq....>
  40d818:	8f57 bf71 86c4 3ea9 d19f bf71 0b1f 3ea8     W.q....>..q....>
  40d828:	1352 bf72 8f12 3ea6 5470 bf72 129f 3ea5     R.r....>pTr....>
  40d838:	94f8 bf72 95c5 3ea3 d4eb bf72 1887 3ea2     ..r....>..r....>
  40d848:	1447 bf73 9ae5 3ea0 530e bf73 1cdf 3e9f     G.s....>.Ss....>
  40d858:	913f bf73 9e78 3e9d ced9 bf73 1faf 3e9c     ?.s.x..>..s....>
  40d868:	0bdd bf74 a086 3e9a 484b bf74 20fe 3e99     ..t....>KHt.. .>
  40d878:	8422 bf74 a117 3e97 bf62 bf74 20d2 3e96     ".t....>b.t.. .>
  40d888:	fa0b bf74 a031 3e94 341d bf75 1f35 3e93     ..t.1..>.4u.5..>
  40d898:	6d97 bf75 9ddd 3e91 a67b bf75 1c2c 3e90     .mu....>{.u.,..>
  40d8a8:	dec6 bf75 9a22 3e8e 167a bf76 17c0 3e8d     ..u."..>z.v....>
  40d8b8:	4d97 bf76 9507 3e8b 841b bf76 11f8 3e8a     .Mv....>..v....>
  40d8c8:	ba07 bf76 8e93 3e88 ef5b bf76 0ada 3e87     ..v....>[.v....>
  40d8d8:	2417 bf77 86ce 3e85 583a bf77 0270 3e84     .$w....>:Xw.p..>
  40d8e8:	8bc5 bf77 7dc0 3e82 beb7 bf77 f8c0 3e80     ..w..}.>..w....>
  40d8f8:	f110 bf77 e6e1 3e7e 22d1 bf78 dba4 3e7b     ..w...~>."x...{>
  40d908:	53f8 bf78 cfcc 3e78 8486 bf78 c35a 3e75     .Sx...x>..x.Z.u>
  40d918:	b47b bf78 b651 3e72 e3d6 bf78 a8b2 3e6f     {.x.Q.r>..x...o>
  40d928:	1298 bf79 9a7f 3e6c 40c0 bf79 8bba 3e69     ..y...l>.@y...i>
  40d938:	6e4e bf79 7c66 3e66 9b43 bf79 6c83 3e63     Nny.f|f>C.y..lc>
  40d948:	c79d bf79 5c13 3e60 f35e bf79 4b1a 3e5d     ..y..\`>^.y..K]>
  40d958:	1e84 bf7a 3997 3e5a 4910 bf7a 278f 3e57     ..z..9Z>.Iz..'W>
  40d968:	7302 bf7a 1501 3e54 9c59 bf7a 01f1 3e51     .sz...T>Y.z...Q>
  40d978:	c516 bf7a ee60 3e4d ed37 bf7a da4f 3e4a     ..z.`.M>7.z.O.J>
  40d988:	14be bf7b c5c2 3e47 3bab bf7b b0b9 3e44     ..{...G>.;{...D>
  40d998:	61fc bf7b 9b37 3e41 87b2 bf7b 853e 3e3e     .a{.7.A>..{.>.>>
  40d9a8:	accd bf7b 6ecf 3e3b d14d bf7b 57ec 3e38     ..{..n;>M.{..W8>
  40d9b8:	f531 bf7b 4098 3e35 187a bf7c 28d4 3e32     1.{..@5>z.|..(2>
  40d9c8:	3b28 bf7c 10a2 3e2f 5d3a bf7c f804 3e2b     (;|.../>:]|...+>
  40d9d8:	7eb0 bf7c defc 3e28 9f8a bf7c c58c 3e25     .~|...(>..|...%>
  40d9e8:	bfc9 bf7c abb6 3e22 df6c bf7c 917b 3e1f     ..|...">l.|.{..>
  40d9f8:	fe73 bf7c 76de 3e1c 1cdd bf7d 5be0 3e19     s.|..v.>..}..[.>
  40da08:	3aac bf7d 4083 3e16 57de bf7d 24ca 3e13     .:}..@.>.W}..$.>
  40da18:	7474 bf7d 08b7 3e10 906e bf7d ec4a 3e0c     tt}....>n.}.J..>
  40da28:	abcc bf7d cf86 3e09 c68c bf7d b26e 3e06     ..}....>..}.n..>
  40da38:	e0b1 bf7d 9502 3e03 fa38 bf7d 7745 3e00     ..}....>8.}.Ew.>
  40da48:	1324 bf7e b273 3dfa 2b72 bf7e 75c0 3df4     $.~.s..=r+~..u.=
  40da58:	4323 bf7e 3876 3dee 5a38 bf7e fa9a 3de7     #C~.v8.=8Z~....=
  40da68:	70b0 bf7e bc2e 3de1 868b bf7e 7d37 3ddb     .p~....=..~.7}.=
  40da78:	9bc9 bf7e 3db9 3dd5 b069 bf7e fdb7 3dce     ..~..=.=i.~....=
  40da88:	c46d bf7e bd36 3dc8 d7d4 bf7e 7c39 3dc2     m.~.6..=..~.9|.=
  40da98:	ea9d bf7e 3ac3 3dbc fcc9 bf7e f8da 3db5     ..~..:.=..~....=
  40daa8:	0e58 bf7f b680 3daf 1f49 bf7f 73ba 3da9     X......=I....s.=
  40dab8:	2f9d bf7f 308c 3da3 3f54 bf7f ecf9 3d9c     ./...0.=T?.....=
  40dac8:	4e6d bf7f a905 3d96 5ce9 bf7f 64b4 3d90     mN.....=.\...d.=
  40dad8:	6ac7 bf7f 200a 3d8a 7808 bf7f db0a 3d83     .j... .=.x.....=
  40dae8:	84ab bf7f 2b74 3d7b 90b1 bf7f a038 3d6e     ....t+{=....8.n=
  40daf8:	9c18 bf7f 1468 3d62 a6e3 bf7f 880e 3d55     ....h.b=......U=
  40db08:	b10f bf7f fb2f 3d48 ba9e bf7f 6dd5 3d3c     ..../.H=.....m<=
  40db18:	c38f bf7f e007 3d2f cbe2 bf7f 51cc 3d23     ....../=.....Q#=
  40db28:	d398 bf7f c32c 3d16 daaf bf7f 342f 3d0a     ....,..=..../4.=
  40db38:	e129 bf7f 49b9 3cfb e705 bf7f 2a7b 3ce2     )....I.<....{*.<
  40db48:	ec43 bf7f 0ab0 3cc9 f0e3 bf7f ea69 3caf     C......<....i..<
  40db58:	f4e6 bf7f c9b6 3c96 f84a bf7f 514b 3c7b     .......<J...KQ{<
  40db68:	fb11 bf7f 0e90 3c49 fd39 bf7f cb59 3c16     ......I<9...Y..<
  40db78:	fec4 bf7f 0f89 3bc9 ffb1 bf7f 0fc7 3b49     .......;......I;
  40db88:	0000 bf80 0000 0000 ffb1 bf7f 0fc7 bb49     ..............I.
  40db98:	fec4 bf7f 0f89 bbc9 fd39 bf7f cb59 bc16     ........9...Y...
  40dba8:	fb11 bf7f 0e90 bc49 f84a bf7f 514b bc7b     ......I.J...KQ{.
  40dbb8:	f4e6 bf7f c9b6 bc96 f0e3 bf7f ea69 bcaf     ............i...
  40dbc8:	ec43 bf7f 0ab0 bcc9 e705 bf7f 2a7b bce2     C...........{*..
  40dbd8:	e129 bf7f 49b9 bcfb daaf bf7f 342f bd0a     )....I....../4..
  40dbe8:	d398 bf7f c32c bd16 cbe2 bf7f 51cc bd23     ....,........Q#.
  40dbf8:	c38f bf7f e007 bd2f ba9e bf7f 6dd5 bd3c     ....../......m<.
  40dc08:	b10f bf7f fb2f bd48 a6e3 bf7f 880e bd55     ..../.H.......U.
  40dc18:	9c18 bf7f 1468 bd62 90b1 bf7f a038 bd6e     ....h.b.....8.n.
  40dc28:	84ab bf7f 2b74 bd7b 7808 bf7f db0a bd83     ....t+{..x......
  40dc38:	6ac7 bf7f 200a bd8a 5ce9 bf7f 64b4 bd90     .j... ...\...d..
  40dc48:	4e6d bf7f a905 bd96 3f54 bf7f ecf9 bd9c     mN......T?......
  40dc58:	2f9d bf7f 308c bda3 1f49 bf7f 73ba bda9     ./...0..I....s..
  40dc68:	0e58 bf7f b680 bdaf fcc9 bf7e f8da bdb5     X.........~.....
  40dc78:	ea9d bf7e 3ac3 bdbc d7d4 bf7e 7c39 bdc2     ..~..:....~.9|..
  40dc88:	c46d bf7e bd36 bdc8 b069 bf7e fdb7 bdce     m.~.6...i.~.....
  40dc98:	9bc9 bf7e 3db9 bdd5 868b bf7e 7d37 bddb     ..~..=....~.7}..
  40dca8:	70b0 bf7e bc2e bde1 5a38 bf7e fa9a bde7     .p~.....8Z~.....
  40dcb8:	4323 bf7e 3876 bdee 2b72 bf7e 75c0 bdf4     #C~.v8..r+~..u..
  40dcc8:	1324 bf7e b273 bdfa fa38 bf7d 7745 be00     $.~.s...8.}.Ew..
  40dcd8:	e0b1 bf7d 9502 be03 c68c bf7d b26e be06     ..}.......}.n...
  40dce8:	abcc bf7d cf86 be09 906e bf7d ec4a be0c     ..}.....n.}.J...
  40dcf8:	7474 bf7d 08b7 be10 57de bf7d 24ca be13     tt}......W}..$..
  40dd08:	3aac bf7d 4083 be16 1cdd bf7d 5be0 be19     .:}..@....}..[..
  40dd18:	fe73 bf7c 76de be1c df6c bf7c 917b be1f     s.|..v..l.|.{...
  40dd28:	bfc9 bf7c abb6 be22 9f8a bf7c c58c be25     ..|..."...|...%.
  40dd38:	7eb0 bf7c defc be28 5d3a bf7c f804 be2b     .~|...(.:]|...+.
  40dd48:	3b28 bf7c 10a2 be2f 187a bf7c 28d4 be32     (;|.../.z.|..(2.
  40dd58:	f531 bf7b 4098 be35 d14d bf7b 57ec be38     1.{..@5.M.{..W8.
  40dd68:	accd bf7b 6ecf be3b 87b2 bf7b 853e be3e     ..{..n;...{.>.>.
  40dd78:	61fc bf7b 9b37 be41 3bab bf7b b0b9 be44     .a{.7.A..;{...D.
  40dd88:	14be bf7b c5c2 be47 ed37 bf7a da4f be4a     ..{...G.7.z.O.J.
  40dd98:	c516 bf7a ee60 be4d 9c59 bf7a 01f1 be51     ..z.`.M.Y.z...Q.
  40dda8:	7302 bf7a 1501 be54 4910 bf7a 278f be57     .sz...T..Iz..'W.
  40ddb8:	1e84 bf7a 3997 be5a f35e bf79 4b1a be5d     ..z..9Z.^.y..K].
  40ddc8:	c79d bf79 5c13 be60 9b43 bf79 6c83 be63     ..y..\`.C.y..lc.
  40ddd8:	6e4e bf79 7c66 be66 40c0 bf79 8bba be69     Nny.f|f..@y...i.
  40dde8:	1298 bf79 9a7f be6c e3d6 bf78 a8b2 be6f     ..y...l...x...o.
  40ddf8:	b47b bf78 b651 be72 8486 bf78 c35a be75     {.x.Q.r...x.Z.u.
  40de08:	53f8 bf78 cfcc be78 22d1 bf78 dba4 be7b     .Sx...x.."x...{.
  40de18:	f110 bf77 e6e1 be7e beb7 bf77 f8c0 be80     ..w...~...w.....
  40de28:	8bc5 bf77 7dc0 be82 583a bf77 0270 be84     ..w..}..:Xw.p...
  40de38:	2417 bf77 86ce be85 ef5b bf76 0ada be87     .$w.....[.v.....
  40de48:	ba07 bf76 8e93 be88 841b bf76 11f8 be8a     ..v.......v.....
  40de58:	4d97 bf76 9507 be8b 167a bf76 17c0 be8d     .Mv.....z.v.....
  40de68:	dec6 bf75 9a22 be8e a67b bf75 1c2c be90     ..u."...{.u.,...
  40de78:	6d97 bf75 9ddd be91 341d bf75 1f35 be93     .mu......4u.5...
  40de88:	fa0b bf74 a031 be94 bf62 bf74 20d2 be96     ..t.1...b.t.. ..
  40de98:	8422 bf74 a117 be97 484b bf74 20fe be99     ".t.....KHt.. ..
  40dea8:	0bdd bf74 a086 be9a ced9 bf73 1faf be9c     ..t.......s.....
  40deb8:	913f bf73 9e78 be9d 530e bf73 1cdf be9f     ?.s.x....Ss.....
  40dec8:	1447 bf73 9ae5 bea0 d4eb bf72 1887 bea2     G.s.......r.....
  40ded8:	94f8 bf72 95c5 bea3 5470 bf72 129f bea5     ..r.....pTr.....
  40dee8:	1352 bf72 8f12 bea6 d19f bf71 0b1f bea8     R.r.......q.....
  40def8:	8f57 bf71 86c4 bea9 4c7a bf71 0201 beab     W.q.....zLq.....
  40df08:	0908 bf71 7cd4 beac c502 bf70 f73c bead     ..q..|....p.<...
  40df18:	8066 bf70 713a beaf 3b37 bf70 eacb beb0     f.p.:q..7;p.....
  40df28:	f573 bf6f 63ef beb2 af1b bf6f dca5 beb3     s.o..c....o.....
  40df38:	6830 bf6f 54ec beb5 20b0 bf6f ccc3 beb6     0ho..T... o.....
  40df48:	d89e bf6e 442a beb8 8ff8 bf6e bb1e beb9     ..n.*D....n.....
  40df58:	46be bf6e 31a0 bebb fcf2 bf6d a7af bebc     .Fn..1....m.....
  40df68:	b293 bf6d 1d4a bebe 67a1 bf6d 926f bebf     ..m.J....gm.o...
  40df78:	1c1d bf6d 071e bec1 d007 bf6c 7b55 bec2     ..m.......l.U{..
  40df88:	835e bf6c ef15 bec3 3624 bf6c 625c bec5     ^.l.....$6l.\b..
  40df98:	e858 bf6b d529 bec6 99fb bf6b 477c bec8     X.k.).....k.|G..
  40dfa8:	4b0c bf6b b953 bec9 fb8c bf6a 2aae becb     .Kk.S.....j..*..
  40dfb8:	ab7b bf6a 9b8b becc 5ad9 bf6a 0bea bece     {.j......Zj.....
  40dfc8:	09a7 bf6a 7bca becf b7e4 bf69 eb2a bed0     ..j..{....i.*...
  40dfd8:	6591 bf69 5a09 bed2 12ae bf69 c867 bed3     .ei..Z....i.g...
  40dfe8:	bf3c bf68 3641 bed5 6b39 bf68 a399 bed6     <.h.A6..9kh.....
  40dff8:	16a8 bf68 106b bed8 c187 bf67 7cb9 bed9     ..h.k.....g..|..
  40e008:	6bd8 bf67 e880 beda 1599 bf67 53c1 bedc     .kg.......g..S..
  40e018:	becc bf66 be79 bedd 6771 bf66 28a9 bedf     ..f.y...qgf..(..
  40e028:	0f88 bf66 924f bee0 b710 bf65 fb6a bee1     ..f.O.....e.j...
  40e038:	5e0b bf65 63fa bee3 0479 bf65 cbfe bee4     .^e..c..y.e.....
  40e048:	aa59 bf64 3375 bee6 4fac bf64 9a5d bee7     Y.d.u3...Od.]...
  40e058:	f473 bf63 00b7 bee9 98ac bf63 6681 beea     s.c.......c..f..
  40e068:	3c5a bf63 cbbb beeb df7b bf62 3063 beed     Z<c.....{.b.c0..
  40e078:	8210 bf62 9479 beee 241a bf62 f7fb beef     ..b.y....$b.....
  40e088:	c598 bf61 5aea bef1 668a bf61 bd43 bef2     ..a..Z...fa.C...
  40e098:	06f2 bf61 1f07 bef4 a6cf bf60 8035 bef5     ..a.......`.5...
  40e0a8:	4621 bf60 e0cb bef6 e4e9 bf5f 40c8 bef8     !F`......._..@..
  40e0b8:	8327 bf5f a02d bef9 20db bf5f fef7 befa     '._.-.... _.....
  40e0c8:	be05 bf5e 5d27 befc 5aa6 bf5e babb befd     ..^.']...Z^.....
  40e0d8:	f6be bf5d 17b2 beff 924d bf5d 3a06 bf00     ..].....M.]..:..
  40e0e8:	2d53 bf5d e7e4 bf00 c7d1 bf5c 9573 bf01     S-].......\.s...
  40e0f8:	61c7 bf5c 42b1 bf02 fb34 bf5b ef9f bf02     .a\..B..4.[.....
  40e108:	941a bf5b 9c3d bf03 2c79 bf5b 4889 bf04     ..[.=...y,[..H..
  40e118:	c450 bf5a f484 bf04 5ba0 bf5a a02c bf05     P.Z......[Z.,...
  40e128:	f26a bf59 4b82 bf06 88ad bf59 f686 bf06     j.Y..K....Y.....
  40e138:	1e6a bf59 a136 bf07 b3a1 bf58 4b92 bf08     j.Y.6.....X..K..
  40e148:	4853 bf58 f59b bf08 dc7f bf57 9f4e bf09     SHX.......W.N...
  40e158:	7026 bf57 48ad bf0a 0348 bf57 f1b7 bf0a     &pW..H..H.W.....
  40e168:	95e5 bf56 9a6b bf0b 27fe bf56 42c9 bf0c     ..V.k....'V..B..
  40e178:	b993 bf55 ead0 bf0c 4aa4 bf55 9281 bf0d     ..U......JU.....
  40e188:	db31 bf54 39da bf0e 6b3b bf54 e0db bf0e     1.T..9..;kT.....
  40e198:	fac3 bf53 8784 bf0f 89c7 bf53 2dd5 bf10     ..S.......S..-..
  40e1a8:	1849 bf53 d3cd bf10 a649 bf52 796b bf11     I.S.....I.R.ky..
  40e1b8:	33c6 bf52 1eb0 bf12 c0c2 bf51 c39a bf12     .3R.......Q.....
  40e1c8:	4d3d bf51 682a bf13 d937 bf50 0c5f bf14     =MQ.*h..7.P._...
  40e1d8:	64af bf50 b039 bf14 efa8 bf4f 53b7 bf15     .dP.9.....O..S..
  40e1e8:	7a1f bf4f f6d9 bf15 0417 bf4f 999f bf16     .zO.......O.....
  40e1f8:	8d90 bf4e 3c07 bf17 1689 bf4e de12 bf17     ..N..<....N.....
  40e208:	9f02 bf4d 7fc0 bf18 26fd bf4d 210f bf19     ..M......&M..!..
  40e218:	ae79 bf4c c200 bf19 3578 bf4c 6293 bf1a     y.L.....x5L..b..
  40e228:	bbf8 bf4b 02c6 bf1b 41fa bf4b a299 bf1b     ..K......AK.....
  40e238:	c77f bf4a 420c bf1c 4c87 bf4a e11f bf1c     ..J..B...LJ.....
  40e248:	d112 bf49 7fd1 bf1d 5521 bf49 1e22 bf1e     ..I.....!UI."...
  40e258:	d8b3 bf48 bc12 bf1e 5bca bf48 599f bf1f     ..H......[H..Y..
  40e268:	de65 bf47 f6cb bf1f 6085 bf47 9393 bf20     e.G......`G... .
  40e278:	e22a bf46 2ff9 bf21 6354 bf46 cbfb bf21     *.F../!.TcF...!.
  40e288:	e403 bf45 6799 bf22 6439 bf45 02d3 bf23     ..E..g".9dE...#.
  40e298:	e3f5 bf44 9da9 bf23 6337 bf44 381a bf24     ..D...#.7cD..8$.
  40e2a8:	e200 bf43 d225 bf24 6051 bf43 6bcb bf25     ..C.%.$.Q`C..k%.
  40e2b8:	de29 bf42 050a bf26 5b89 bf42 9de3 bf26     ).B...&..[B...&.
  40e2c8:	d870 bf41 3656 bf27 54e1 bf41 ce61 bf27     p.A.V6'..TA.a.'.
  40e2d8:	d0da bf40 6605 bf28 4c5c bf40 fd41 bf28     ..@..f(.\L@.A.(.
  40e2e8:	c767 bf3f 9415 bf29 41fc bf3f 2a80 bf2a     g.?...)..A?..**.
  40e2f8:	bc1b bf3e c082 bf2a 35c5 bf3e 561b bf2b     ..>...*..5>..V+.
  40e308:	aef9 bf3d eb4a bf2b 27b8 bf3d 800f bf2c     ..=.J.+..'=...,.
  40e318:	a003 bf3c 1469 bf2d 17d9 bf3c a859 bf2d     ..<.i.-...<.Y.-.
  40e328:	8f3b bf3b 3bde bf2e 0629 bf3b cef7 bf2e     ;.;..;..).;.....
  40e338:	7ca4 bf3a 61a5 bf2f f2ac bf39 f3e6 bf2f     .|:..a/...9.../.
  40e348:	6842 bf39 85bb bf30 dd65 bf38 1722 bf31     Bh9...0.e.8.".1.
  40e358:	5216 bf38 a81d bf31 c655 bf37 38aa bf32     .R8...1.U.7..82.
  40e368:	3a23 bf37 c8c9 bf32 ad7f bf36 587a bf33     #:7...2...6.zX3.
  40e378:	206c bf36 e7bc bf33 92e7 bf35 768f bf34     l 6...3...5..v4.
  40e388:	04f3 bf35 04f3 bf35 768f bf34 92e7 bf35     ..5...5..v4...5.
  40e398:	e7bc bf33 206c bf36 587a bf33 ad7f bf36     ..3.l 6.zX3...6.
  40e3a8:	c8c9 bf32 3a23 bf37 38aa bf32 c655 bf37     ..2.#:7..82.U.7.
  40e3b8:	a81d bf31 5216 bf38 1722 bf31 dd65 bf38     ..1..R8.".1.e.8.
  40e3c8:	85bb bf30 6842 bf39 f3e6 bf2f f2ac bf39     ..0.Bh9.../...9.
  40e3d8:	61a5 bf2f 7ca4 bf3a cef7 bf2e 0629 bf3b     .a/..|:.....).;.
  40e3e8:	3bde bf2e 8f3b bf3b a859 bf2d 17d9 bf3c     .;..;.;.Y.-...<.
  40e3f8:	1469 bf2d a003 bf3c 800f bf2c 27b8 bf3d     i.-...<...,..'=.
  40e408:	eb4a bf2b aef9 bf3d 561b bf2b 35c5 bf3e     J.+...=..V+..5>.
  40e418:	c082 bf2a bc1b bf3e 2a80 bf2a 41fc bf3f     ..*...>..**..A?.
  40e428:	9415 bf29 c767 bf3f fd41 bf28 4c5c bf40     ..).g.?.A.(.\L@.
  40e438:	6605 bf28 d0da bf40 ce61 bf27 54e1 bf41     .f(...@.a.'..TA.
  40e448:	3656 bf27 d870 bf41 9de3 bf26 5b89 bf42     V6'.p.A...&..[B.
  40e458:	050a bf26 de29 bf42 6bcb bf25 6051 bf43     ..&.).B..k%.Q`C.
  40e468:	d225 bf24 e200 bf43 381a bf24 6337 bf44     %.$...C..8$.7cD.
  40e478:	9da9 bf23 e3f5 bf44 02d3 bf23 6439 bf45     ..#...D...#.9dE.
  40e488:	6799 bf22 e403 bf45 cbfb bf21 6354 bf46     .g"...E...!.TcF.
  40e498:	2ff9 bf21 e22a bf46 9393 bf20 6085 bf47     ./!.*.F... ..`G.
  40e4a8:	f6cb bf1f de65 bf47 599f bf1f 5bca bf48     ....e.G..Y...[H.
  40e4b8:	bc12 bf1e d8b3 bf48 1e22 bf1e 5521 bf49     ......H."...!UI.
  40e4c8:	7fd1 bf1d d112 bf49 e11f bf1c 4c87 bf4a     ......I......LJ.
  40e4d8:	420c bf1c c77f bf4a a299 bf1b 41fa bf4b     .B....J......AK.
  40e4e8:	02c6 bf1b bbf8 bf4b 6293 bf1a 3578 bf4c     ......K..b..x5L.
  40e4f8:	c200 bf19 ae79 bf4c 210f bf19 26fd bf4d     ....y.L..!...&M.
  40e508:	7fc0 bf18 9f02 bf4d de12 bf17 1689 bf4e     ......M.......N.
  40e518:	3c07 bf17 8d90 bf4e 999f bf16 0417 bf4f     .<....N.......O.
  40e528:	f6d9 bf15 7a1f bf4f 53b7 bf15 efa8 bf4f     .....zO..S....O.
  40e538:	b039 bf14 64af bf50 0c5f bf14 d937 bf50     9....dP._...7.P.
  40e548:	682a bf13 4d3d bf51 c39a bf12 c0c2 bf51     *h..=MQ.......Q.
  40e558:	1eb0 bf12 33c6 bf52 796b bf11 a649 bf52     .....3R.ky..I.R.
  40e568:	d3cd bf10 1849 bf53 2dd5 bf10 89c7 bf53     ....I.S..-....S.
  40e578:	8784 bf0f fac3 bf53 e0db bf0e 6b3b bf54     ......S.....;kT.
  40e588:	39da bf0e db31 bf54 9281 bf0d 4aa4 bf55     .9..1.T......JU.
  40e598:	ead0 bf0c b993 bf55 42c9 bf0c 27fe bf56     ......U..B...'V.
  40e5a8:	9a6b bf0b 95e5 bf56 f1b7 bf0a 0348 bf57     k.....V.....H.W.
  40e5b8:	48ad bf0a 7026 bf57 9f4e bf09 dc7f bf57     .H..&pW.N.....W.
  40e5c8:	f59b bf08 4853 bf58 4b92 bf08 b3a1 bf58     ....SHX..K....X.
  40e5d8:	a136 bf07 1e6a bf59 f686 bf06 88ad bf59     6...j.Y.......Y.
  40e5e8:	4b82 bf06 f26a bf59 a02c bf05 5ba0 bf5a     .K..j.Y.,....[Z.
  40e5f8:	f484 bf04 c450 bf5a 4889 bf04 2c79 bf5b     ....P.Z..H..y,[.
  40e608:	9c3d bf03 941a bf5b ef9f bf02 fb34 bf5b     =.....[.....4.[.
  40e618:	42b1 bf02 61c7 bf5c 9573 bf01 c7d1 bf5c     .B...a\.s.....\.
  40e628:	e7e4 bf00 2d53 bf5d 3a06 bf00 924d bf5d     ....S-]..:..M.].
  40e638:	17b2 beff f6be bf5d babb befd 5aa6 bf5e     ......]......Z^.
  40e648:	5d27 befc be05 bf5e fef7 befa 20db bf5f     ']....^...... _.
  40e658:	a02d bef9 8327 bf5f 40c8 bef8 e4e9 bf5f     -...'._..@...._.
  40e668:	e0cb bef6 4621 bf60 8035 bef5 a6cf bf60     ....!F`.5.....`.
  40e678:	1f07 bef4 06f2 bf61 bd43 bef2 668a bf61     ......a.C....fa.
  40e688:	5aea bef1 c598 bf61 f7fb beef 241a bf62     .Z....a......$b.
  40e698:	9479 beee 8210 bf62 3063 beed df7b bf62     y.....b.c0..{.b.
  40e6a8:	cbbb beeb 3c5a bf63 6681 beea 98ac bf63     ....Z<c..f....c.
  40e6b8:	00b7 bee9 f473 bf63 9a5d bee7 4fac bf64     ....s.c.]....Od.
  40e6c8:	3375 bee6 aa59 bf64 cbfe bee4 0479 bf65     u3..Y.d.....y.e.
  40e6d8:	63fa bee3 5e0b bf65 fb6a bee1 b710 bf65     .c...^e.j.....e.
  40e6e8:	924f bee0 0f88 bf66 28a9 bedf 6771 bf66     O.....f..(..qgf.
  40e6f8:	be79 bedd becc bf66 53c1 bedc 1599 bf67     y.....f..S....g.
  40e708:	e880 beda 6bd8 bf67 7cb9 bed9 c187 bf67     .....kg..|....g.
  40e718:	106b bed8 16a8 bf68 a399 bed6 6b39 bf68     k.....h.....9kh.
  40e728:	3641 bed5 bf3c bf68 c867 bed3 12ae bf69     A6..<.h.g.....i.
  40e738:	5a09 bed2 6591 bf69 eb2a bed0 b7e4 bf69     .Z...ei.*.....i.
  40e748:	7bca becf 09a7 bf6a 0bea bece 5ad9 bf6a     .{....j......Zj.
  40e758:	9b8b becc ab7b bf6a 2aae becb fb8c bf6a     ....{.j..*....j.
  40e768:	b953 bec9 4b0c bf6b 477c bec8 99fb bf6b     S....Kk.|G....k.
  40e778:	d529 bec6 e858 bf6b 625c bec5 3624 bf6c     )...X.k.\b..$6l.
  40e788:	ef15 bec3 835e bf6c 7b55 bec2 d007 bf6c     ....^.l.U{....l.
  40e798:	071e bec1 1c1d bf6d 926f bebf 67a1 bf6d     ......m.o....gm.
  40e7a8:	1d4a bebe b293 bf6d a7af bebc fcf2 bf6d     J.....m.......m.
  40e7b8:	31a0 bebb 46be bf6e bb1e beb9 8ff8 bf6e     .1...Fn.......n.
  40e7c8:	442a beb8 d89e bf6e ccc3 beb6 20b0 bf6f     *D....n...... o.
  40e7d8:	54ec beb5 6830 bf6f dca5 beb3 af1b bf6f     .T..0ho.......o.
  40e7e8:	63ef beb2 f573 bf6f eacb beb0 3b37 bf70     .c..s.o.....7;p.
  40e7f8:	713a beaf 8066 bf70 f73c bead c502 bf70     :q..f.p.<.....p.
  40e808:	7cd4 beac 0908 bf71 0201 beab 4c7a bf71     .|....q.....zLq.
  40e818:	86c4 bea9 8f57 bf71 0b1f bea8 d19f bf71     ....W.q.......q.
  40e828:	8f12 bea6 1352 bf72 129f bea5 5470 bf72     ....R.r.....pTr.
  40e838:	95c5 bea3 94f8 bf72 1887 bea2 d4eb bf72     ......r.......r.
  40e848:	9ae5 bea0 1447 bf73 1cdf be9f 530e bf73     ....G.s......Ss.
  40e858:	9e78 be9d 913f bf73 1faf be9c ced9 bf73     x...?.s.......s.
  40e868:	a086 be9a 0bdd bf74 20fe be99 484b bf74     ......t.. ..KHt.
  40e878:	a117 be97 8422 bf74 20d2 be96 bf62 bf74     ....".t.. ..b.t.
  40e888:	a031 be94 fa0b bf74 1f35 be93 341d bf75     1.....t.5....4u.
  40e898:	9ddd be91 6d97 bf75 1c2c be90 a67b bf75     .....mu.,...{.u.
  40e8a8:	9a22 be8e dec6 bf75 17c0 be8d 167a bf76     ".....u.....z.v.
  40e8b8:	9507 be8b 4d97 bf76 11f8 be8a 841b bf76     .....Mv.......v.
  40e8c8:	8e93 be88 ba07 bf76 0ada be87 ef5b bf76     ......v.....[.v.
  40e8d8:	86ce be85 2417 bf77 0270 be84 583a bf77     .....$w.p...:Xw.
  40e8e8:	7dc0 be82 8bc5 bf77 f8c0 be80 beb7 bf77     .}....w.......w.
  40e8f8:	e6e1 be7e f110 bf77 dba4 be7b 22d1 bf78     ..~...w...{.."x.
  40e908:	cfcc be78 53f8 bf78 c35a be75 8486 bf78     ..x..Sx.Z.u...x.
  40e918:	b651 be72 b47b bf78 a8b2 be6f e3d6 bf78     Q.r.{.x...o...x.
  40e928:	9a7f be6c 1298 bf79 8bba be69 40c0 bf79     ..l...y...i..@y.
  40e938:	7c66 be66 6e4e bf79 6c83 be63 9b43 bf79     f|f.Nny..lc.C.y.
  40e948:	5c13 be60 c79d bf79 4b1a be5d f35e bf79     .\`...y..K].^.y.
  40e958:	3997 be5a 1e84 bf7a 278f be57 4910 bf7a     .9Z...z..'W..Iz.
  40e968:	1501 be54 7302 bf7a 01f1 be51 9c59 bf7a     ..T..sz...Q.Y.z.
  40e978:	ee60 be4d c516 bf7a da4f be4a ed37 bf7a     `.M...z.O.J.7.z.
  40e988:	c5c2 be47 14be bf7b b0b9 be44 3bab bf7b     ..G...{...D..;{.
  40e998:	9b37 be41 61fc bf7b 853e be3e 87b2 bf7b     7.A..a{.>.>...{.
  40e9a8:	6ecf be3b accd bf7b 57ec be38 d14d bf7b     .n;...{..W8.M.{.
  40e9b8:	4098 be35 f531 bf7b 28d4 be32 187a bf7c     .@5.1.{..(2.z.|.
  40e9c8:	10a2 be2f 3b28 bf7c f804 be2b 5d3a bf7c     ../.(;|...+.:]|.
  40e9d8:	defc be28 7eb0 bf7c c58c be25 9f8a bf7c     ..(..~|...%...|.
  40e9e8:	abb6 be22 bfc9 bf7c 917b be1f df6c bf7c     .."...|.{...l.|.
  40e9f8:	76de be1c fe73 bf7c 5be0 be19 1cdd bf7d     .v..s.|..[....}.
  40ea08:	4083 be16 3aac bf7d 24ca be13 57de bf7d     .@...:}..$...W}.
  40ea18:	08b7 be10 7474 bf7d ec4a be0c 906e bf7d     ....tt}.J...n.}.
  40ea28:	cf86 be09 abcc bf7d b26e be06 c68c bf7d     ......}.n.....}.
  40ea38:	9502 be03 e0b1 bf7d 7745 be00 fa38 bf7d     ......}.Ew..8.}.
  40ea48:	b273 bdfa 1324 bf7e 75c0 bdf4 2b72 bf7e     s...$.~..u..r+~.
  40ea58:	3876 bdee 4323 bf7e fa9a bde7 5a38 bf7e     v8..#C~.....8Z~.
  40ea68:	bc2e bde1 70b0 bf7e 7d37 bddb 868b bf7e     .....p~.7}....~.
  40ea78:	3db9 bdd5 9bc9 bf7e fdb7 bdce b069 bf7e     .=....~.....i.~.
  40ea88:	bd36 bdc8 c46d bf7e 7c39 bdc2 d7d4 bf7e     6...m.~.9|....~.
  40ea98:	3ac3 bdbc ea9d bf7e f8da bdb5 fcc9 bf7e     .:....~.......~.
  40eaa8:	b680 bdaf 0e58 bf7f 73ba bda9 1f49 bf7f     ....X....s..I...
  40eab8:	308c bda3 2f9d bf7f ecf9 bd9c 3f54 bf7f     .0.../......T?..
  40eac8:	a905 bd96 4e6d bf7f 64b4 bd90 5ce9 bf7f     ....mN...d...\..
  40ead8:	200a bd8a 6ac7 bf7f db0a bd83 7808 bf7f     . ...j.......x..
  40eae8:	2b74 bd7b 84ab bf7f a038 bd6e 90b1 bf7f     t+{.....8.n.....
  40eaf8:	1468 bd62 9c18 bf7f 880e bd55 a6e3 bf7f     h.b.......U.....
  40eb08:	fb2f bd48 b10f bf7f 6dd5 bd3c ba9e bf7f     /.H......m<.....
  40eb18:	e007 bd2f c38f bf7f 51cc bd23 cbe2 bf7f     ../......Q#.....
  40eb28:	c32c bd16 d398 bf7f 342f bd0a daaf bf7f     ,......./4......
  40eb38:	49b9 bcfb e129 bf7f 2a7b bce2 e705 bf7f     .I..)...{*......
  40eb48:	0ab0 bcc9 ec43 bf7f ea69 bcaf f0e3 bf7f     ....C...i.......
  40eb58:	c9b6 bc96 f4e6 bf7f 514b bc7b f84a bf7f     ........KQ{.J...
  40eb68:	0e90 bc49 fb11 bf7f cb59 bc16 fd39 bf7f     ..I.....Y...9...
  40eb78:	0f89 bbc9 fec4 bf7f 0fc7 bb49 ffb1 bf7f     ..........I.....
  40eb88:	0000 8000 0000 bf80 0fc7 3b49 ffb1 bf7f     ..........I;....
  40eb98:	0f89 3bc9 fec4 bf7f cb59 3c16 fd39 bf7f     ...;....Y..<9...
  40eba8:	0e90 3c49 fb11 bf7f 514b 3c7b f84a bf7f     ..I<....KQ{<J...
  40ebb8:	c9b6 3c96 f4e6 bf7f ea69 3caf f0e3 bf7f     ...<....i..<....
  40ebc8:	0ab0 3cc9 ec43 bf7f 2a7b 3ce2 e705 bf7f     ...<C...{*.<....
  40ebd8:	49b9 3cfb e129 bf7f 342f 3d0a daaf bf7f     .I.<).../4.=....
  40ebe8:	c32c 3d16 d398 bf7f 51cc 3d23 cbe2 bf7f     ,..=.....Q#=....
  40ebf8:	e007 3d2f c38f bf7f 6dd5 3d3c ba9e bf7f     ../=.....m<=....
  40ec08:	fb2f 3d48 b10f bf7f 880e 3d55 a6e3 bf7f     /.H=......U=....
  40ec18:	1468 3d62 9c18 bf7f a038 3d6e 90b1 bf7f     h.b=....8.n=....
  40ec28:	2b74 3d7b 84ab bf7f db0a 3d83 7808 bf7f     t+{=.......=.x..
  40ec38:	200a 3d8a 6ac7 bf7f 64b4 3d90 5ce9 bf7f     . .=.j...d.=.\..
  40ec48:	a905 3d96 4e6d bf7f ecf9 3d9c 3f54 bf7f     ...=mN.....=T?..
  40ec58:	308c 3da3 2f9d bf7f 73ba 3da9 1f49 bf7f     .0.=./...s.=I...
  40ec68:	b680 3daf 0e58 bf7f f8da 3db5 fcc9 bf7e     ...=X......=..~.
  40ec78:	3ac3 3dbc ea9d bf7e 7c39 3dc2 d7d4 bf7e     .:.=..~.9|.=..~.
  40ec88:	bd36 3dc8 c46d bf7e fdb7 3dce b069 bf7e     6..=m.~....=i.~.
  40ec98:	3db9 3dd5 9bc9 bf7e 7d37 3ddb 868b bf7e     .=.=..~.7}.=..~.
  40eca8:	bc2e 3de1 70b0 bf7e fa9a 3de7 5a38 bf7e     ...=.p~....=8Z~.
  40ecb8:	3876 3dee 4323 bf7e 75c0 3df4 2b72 bf7e     v8.=#C~..u.=r+~.
  40ecc8:	b273 3dfa 1324 bf7e 7745 3e00 fa38 bf7d     s..=$.~.Ew.>8.}.
  40ecd8:	9502 3e03 e0b1 bf7d b26e 3e06 c68c bf7d     ...>..}.n..>..}.
  40ece8:	cf86 3e09 abcc bf7d ec4a 3e0c 906e bf7d     ...>..}.J..>n.}.
  40ecf8:	08b7 3e10 7474 bf7d 24ca 3e13 57de bf7d     ...>tt}..$.>.W}.
  40ed08:	4083 3e16 3aac bf7d 5be0 3e19 1cdd bf7d     .@.>.:}..[.>..}.
  40ed18:	76de 3e1c fe73 bf7c 917b 3e1f df6c bf7c     .v.>s.|.{..>l.|.
  40ed28:	abb6 3e22 bfc9 bf7c c58c 3e25 9f8a bf7c     ..">..|...%>..|.
  40ed38:	defc 3e28 7eb0 bf7c f804 3e2b 5d3a bf7c     ..(>.~|...+>:]|.
  40ed48:	10a2 3e2f 3b28 bf7c 28d4 3e32 187a bf7c     ../>(;|..(2>z.|.
  40ed58:	4098 3e35 f531 bf7b 57ec 3e38 d14d bf7b     .@5>1.{..W8>M.{.
  40ed68:	6ecf 3e3b accd bf7b 853e 3e3e 87b2 bf7b     .n;>..{.>.>>..{.
  40ed78:	9b37 3e41 61fc bf7b b0b9 3e44 3bab bf7b     7.A>.a{...D>.;{.
  40ed88:	c5c2 3e47 14be bf7b da4f 3e4a ed37 bf7a     ..G>..{.O.J>7.z.
  40ed98:	ee60 3e4d c516 bf7a 01f1 3e51 9c59 bf7a     `.M>..z...Q>Y.z.
  40eda8:	1501 3e54 7302 bf7a 278f 3e57 4910 bf7a     ..T>.sz..'W>.Iz.
  40edb8:	3997 3e5a 1e84 bf7a 4b1a 3e5d f35e bf79     .9Z>..z..K]>^.y.
  40edc8:	5c13 3e60 c79d bf79 6c83 3e63 9b43 bf79     .\`>..y..lc>C.y.
  40edd8:	7c66 3e66 6e4e bf79 8bba 3e69 40c0 bf79     f|f>Nny...i>.@y.
  40ede8:	9a7f 3e6c 1298 bf79 a8b2 3e6f e3d6 bf78     ..l>..y...o>..x.
  40edf8:	b651 3e72 b47b bf78 c35a 3e75 8486 bf78     Q.r>{.x.Z.u>..x.
  40ee08:	cfcc 3e78 53f8 bf78 dba4 3e7b 22d1 bf78     ..x>.Sx...{>."x.
  40ee18:	e6e1 3e7e f110 bf77 f8c0 3e80 beb7 bf77     ..~>..w....>..w.
  40ee28:	7dc0 3e82 8bc5 bf77 0270 3e84 583a bf77     .}.>..w.p..>:Xw.
  40ee38:	86ce 3e85 2417 bf77 0ada 3e87 ef5b bf76     ...>.$w....>[.v.
  40ee48:	8e93 3e88 ba07 bf76 11f8 3e8a 841b bf76     ...>..v....>..v.
  40ee58:	9507 3e8b 4d97 bf76 17c0 3e8d 167a bf76     ...>.Mv....>z.v.
  40ee68:	9a22 3e8e dec6 bf75 1c2c 3e90 a67b bf75     "..>..u.,..>{.u.
  40ee78:	9ddd 3e91 6d97 bf75 1f35 3e93 341d bf75     ...>.mu.5..>.4u.
  40ee88:	a031 3e94 fa0b bf74 20d2 3e96 bf62 bf74     1..>..t.. .>b.t.
  40ee98:	a117 3e97 8422 bf74 20fe 3e99 484b bf74     ...>".t.. .>KHt.
  40eea8:	a086 3e9a 0bdd bf74 1faf 3e9c ced9 bf73     ...>..t....>..s.
  40eeb8:	9e78 3e9d 913f bf73 1cdf 3e9f 530e bf73     x..>?.s....>.Ss.
  40eec8:	9ae5 3ea0 1447 bf73 1887 3ea2 d4eb bf72     ...>G.s....>..r.
  40eed8:	95c5 3ea3 94f8 bf72 129f 3ea5 5470 bf72     ...>..r....>pTr.
  40eee8:	8f12 3ea6 1352 bf72 0b1f 3ea8 d19f bf71     ...>R.r....>..q.
  40eef8:	86c4 3ea9 8f57 bf71 0201 3eab 4c7a bf71     ...>W.q....>zLq.
  40ef08:	7cd4 3eac 0908 bf71 f73c 3ead c502 bf70     .|.>..q.<..>..p.
  40ef18:	713a 3eaf 8066 bf70 eacb 3eb0 3b37 bf70     :q.>f.p....>7;p.
  40ef28:	63ef 3eb2 f573 bf6f dca5 3eb3 af1b bf6f     .c.>s.o....>..o.
  40ef38:	54ec 3eb5 6830 bf6f ccc3 3eb6 20b0 bf6f     .T.>0ho....>. o.
  40ef48:	442a 3eb8 d89e bf6e bb1e 3eb9 8ff8 bf6e     *D.>..n....>..n.
  40ef58:	31a0 3ebb 46be bf6e a7af 3ebc fcf2 bf6d     .1.>.Fn....>..m.
  40ef68:	1d4a 3ebe b293 bf6d 926f 3ebf 67a1 bf6d     J..>..m.o..>.gm.
  40ef78:	071e 3ec1 1c1d bf6d 7b55 3ec2 d007 bf6c     ...>..m.U{.>..l.
  40ef88:	ef15 3ec3 835e bf6c 625c 3ec5 3624 bf6c     ...>^.l.\b.>$6l.
  40ef98:	d529 3ec6 e858 bf6b 477c 3ec8 99fb bf6b     )..>X.k.|G.>..k.
  40efa8:	b953 3ec9 4b0c bf6b 2aae 3ecb fb8c bf6a     S..>.Kk..*.>..j.
  40efb8:	9b8b 3ecc ab7b bf6a 0bea 3ece 5ad9 bf6a     ...>{.j....>.Zj.
  40efc8:	7bca 3ecf 09a7 bf6a eb2a 3ed0 b7e4 bf69     .{.>..j.*..>..i.
  40efd8:	5a09 3ed2 6591 bf69 c867 3ed3 12ae bf69     .Z.>.ei.g..>..i.
  40efe8:	3641 3ed5 bf3c bf68 a399 3ed6 6b39 bf68     A6.><.h....>9kh.
  40eff8:	106b 3ed8 16a8 bf68 7cb9 3ed9 c187 bf67     k..>..h..|.>..g.
  40f008:	e880 3eda 6bd8 bf67 53c1 3edc 1599 bf67     ...>.kg..S.>..g.
  40f018:	be79 3edd becc bf66 28a9 3edf 6771 bf66     y..>..f..(.>qgf.
  40f028:	924f 3ee0 0f88 bf66 fb6a 3ee1 b710 bf65     O..>..f.j..>..e.
  40f038:	63fa 3ee3 5e0b bf65 cbfe 3ee4 0479 bf65     .c.>.^e....>y.e.
  40f048:	3375 3ee6 aa59 bf64 9a5d 3ee7 4fac bf64     u3.>Y.d.]..>.Od.
  40f058:	00b7 3ee9 f473 bf63 6681 3eea 98ac bf63     ...>s.c..f.>..c.
  40f068:	cbbb 3eeb 3c5a bf63 3063 3eed df7b bf62     ...>Z<c.c0.>{.b.
  40f078:	9479 3eee 8210 bf62 f7fb 3eef 241a bf62     y..>..b....>.$b.
  40f088:	5aea 3ef1 c598 bf61 bd43 3ef2 668a bf61     .Z.>..a.C..>.fa.
  40f098:	1f07 3ef4 06f2 bf61 8035 3ef5 a6cf bf60     ...>..a.5..>..`.
  40f0a8:	e0cb 3ef6 4621 bf60 40c8 3ef8 e4e9 bf5f     ...>!F`..@.>.._.
  40f0b8:	a02d 3ef9 8327 bf5f fef7 3efa 20db bf5f     -..>'._....>. _.
  40f0c8:	5d27 3efc be05 bf5e babb 3efd 5aa6 bf5e     '].>..^....>.Z^.
  40f0d8:	17b2 3eff f6be bf5d 3a06 3f00 924d bf5d     ...>..]..:.?M.].
  40f0e8:	e7e4 3f00 2d53 bf5d 9573 3f01 c7d1 bf5c     ...?S-].s..?..\.
  40f0f8:	42b1 3f02 61c7 bf5c ef9f 3f02 fb34 bf5b     .B.?.a\....?4.[.
  40f108:	9c3d 3f03 941a bf5b 4889 3f04 2c79 bf5b     =..?..[..H.?y,[.
  40f118:	f484 3f04 c450 bf5a a02c 3f05 5ba0 bf5a     ...?P.Z.,..?.[Z.
  40f128:	4b82 3f06 f26a bf59 f686 3f06 88ad bf59     .K.?j.Y....?..Y.
  40f138:	a136 3f07 1e6a bf59 4b92 3f08 b3a1 bf58     6..?j.Y..K.?..X.
  40f148:	f59b 3f08 4853 bf58 9f4e 3f09 dc7f bf57     ...?SHX.N..?..W.
  40f158:	48ad 3f0a 7026 bf57 f1b7 3f0a 0348 bf57     .H.?&pW....?H.W.
  40f168:	9a6b 3f0b 95e5 bf56 42c9 3f0c 27fe bf56     k..?..V..B.?.'V.
  40f178:	ead0 3f0c b993 bf55 9281 3f0d 4aa4 bf55     ...?..U....?.JU.
  40f188:	39da 3f0e db31 bf54 e0db 3f0e 6b3b bf54     .9.?1.T....?;kT.
  40f198:	8784 3f0f fac3 bf53 2dd5 3f10 89c7 bf53     ...?..S..-.?..S.
  40f1a8:	d3cd 3f10 1849 bf53 796b 3f11 a649 bf52     ...?I.S.ky.?I.R.
  40f1b8:	1eb0 3f12 33c6 bf52 c39a 3f12 c0c2 bf51     ...?.3R....?..Q.
  40f1c8:	682a 3f13 4d3d bf51 0c5f 3f14 d937 bf50     *h.?=MQ._..?7.P.
  40f1d8:	b039 3f14 64af bf50 53b7 3f15 efa8 bf4f     9..?.dP..S.?..O.
  40f1e8:	f6d9 3f15 7a1f bf4f 999f 3f16 0417 bf4f     ...?.zO....?..O.
  40f1f8:	3c07 3f17 8d90 bf4e de12 3f17 1689 bf4e     .<.?..N....?..N.
  40f208:	7fc0 3f18 9f02 bf4d 210f 3f19 26fd bf4d     ...?..M..!.?.&M.
  40f218:	c200 3f19 ae79 bf4c 6293 3f1a 3578 bf4c     ...?y.L..b.?x5L.
  40f228:	02c6 3f1b bbf8 bf4b a299 3f1b 41fa bf4b     ...?..K....?.AK.
  40f238:	420c 3f1c c77f bf4a e11f 3f1c 4c87 bf4a     .B.?..J....?.LJ.
  40f248:	7fd1 3f1d d112 bf49 1e22 3f1e 5521 bf49     ...?..I."..?!UI.
  40f258:	bc12 3f1e d8b3 bf48 599f 3f1f 5bca bf48     ...?..H..Y.?.[H.
  40f268:	f6cb 3f1f de65 bf47 9393 3f20 6085 bf47     ...?e.G... ?.`G.
  40f278:	2ff9 3f21 e22a bf46 cbfb 3f21 6354 bf46     ./!?*.F...!?TcF.
  40f288:	6799 3f22 e403 bf45 02d3 3f23 6439 bf45     .g"?..E...#?9dE.
  40f298:	9da9 3f23 e3f5 bf44 381a 3f24 6337 bf44     ..#?..D..8$?7cD.
  40f2a8:	d225 3f24 e200 bf43 6bcb 3f25 6051 bf43     %.$?..C..k%?Q`C.
  40f2b8:	050a 3f26 de29 bf42 9de3 3f26 5b89 bf42     ..&?).B...&?.[B.
  40f2c8:	3656 3f27 d870 bf41 ce61 3f27 54e1 bf41     V6'?p.A.a.'?.TA.
  40f2d8:	6605 3f28 d0da bf40 fd41 3f28 4c5c bf40     .f(?..@.A.(?\L@.
  40f2e8:	9415 3f29 c767 bf3f 2a80 3f2a 41fc bf3f     ..)?g.?..**?.A?.
  40f2f8:	c082 3f2a bc1b bf3e 561b 3f2b 35c5 bf3e     ..*?..>..V+?.5>.
  40f308:	eb4a 3f2b aef9 bf3d 800f 3f2c 27b8 bf3d     J.+?..=...,?.'=.
  40f318:	1469 3f2d a003 bf3c a859 3f2d 17d9 bf3c     i.-?..<.Y.-?..<.
  40f328:	3bde 3f2e 8f3b bf3b cef7 3f2e 0629 bf3b     .;.?;.;....?).;.
  40f338:	61a5 3f2f 7ca4 bf3a f3e6 3f2f f2ac bf39     .a/?.|:.../?..9.
  40f348:	85bb 3f30 6842 bf39 1722 3f31 dd65 bf38     ..0?Bh9.".1?e.8.
  40f358:	a81d 3f31 5216 bf38 38aa 3f32 c655 bf37     ..1?.R8..82?U.7.
  40f368:	c8c9 3f32 3a23 bf37 587a 3f33 ad7f bf36     ..2?#:7.zX3?..6.
  40f378:	e7bc 3f33 206c bf36 768f 3f34 92e7 bf35     ..3?l 6..v4?..5.
  40f388:	04f3 3f35 04f3 bf35 92e7 3f35 768f bf34     ..5?..5...5?.v4.
  40f398:	206c 3f36 e7bc bf33 ad7f 3f36 587a bf33     l 6?..3...6?zX3.
  40f3a8:	3a23 3f37 c8c9 bf32 c655 3f37 38aa bf32     #:7?..2.U.7?.82.
  40f3b8:	5216 3f38 a81d bf31 dd65 3f38 1722 bf31     .R8?..1.e.8?".1.
  40f3c8:	6842 3f39 85bb bf30 f2ac 3f39 f3e6 bf2f     Bh9?..0...9?../.
  40f3d8:	7ca4 3f3a 61a5 bf2f 0629 3f3b cef7 bf2e     .|:?.a/.).;?....
  40f3e8:	8f3b 3f3b 3bde bf2e 17d9 3f3c a859 bf2d     ;.;?.;....<?Y.-.
  40f3f8:	a003 3f3c 1469 bf2d 27b8 3f3d 800f bf2c     ..<?i.-..'=?..,.
  40f408:	aef9 3f3d eb4a bf2b 35c5 3f3e 561b bf2b     ..=?J.+..5>?.V+.
  40f418:	bc1b 3f3e c082 bf2a 41fc 3f3f 2a80 bf2a     ..>?..*..A??.**.
  40f428:	c767 3f3f 9415 bf29 4c5c 3f40 fd41 bf28     g.??..).\L@?A.(.
  40f438:	d0da 3f40 6605 bf28 54e1 3f41 ce61 bf27     ..@?.f(..TA?a.'.
  40f448:	d870 3f41 3656 bf27 5b89 3f42 9de3 bf26     p.A?V6'..[B?..&.
  40f458:	de29 3f42 050a bf26 6051 3f43 6bcb bf25     ).B?..&.Q`C?.k%.
  40f468:	e200 3f43 d225 bf24 6337 3f44 381a bf24     ..C?%.$.7cD?.8$.
  40f478:	e3f5 3f44 9da9 bf23 6439 3f45 02d3 bf23     ..D?..#.9dE?..#.
  40f488:	e403 3f45 6799 bf22 6354 3f46 cbfb bf21     ..E?.g".TcF?..!.
  40f498:	e22a 3f46 2ff9 bf21 6085 3f47 9393 bf20     *.F?./!..`G?.. .
  40f4a8:	de65 3f47 f6cb bf1f 5bca 3f48 599f bf1f     e.G?.....[H?.Y..
  40f4b8:	d8b3 3f48 bc12 bf1e 5521 3f49 1e22 bf1e     ..H?....!UI?"...
  40f4c8:	d112 3f49 7fd1 bf1d 4c87 3f4a e11f bf1c     ..I?.....LJ?....
  40f4d8:	c77f 3f4a 420c bf1c 41fa 3f4b a299 bf1b     ..J?.B...AK?....
  40f4e8:	bbf8 3f4b 02c6 bf1b 3578 3f4c 6293 bf1a     ..K?....x5L?.b..
  40f4f8:	ae79 3f4c c200 bf19 26fd 3f4d 210f bf19     y.L?.....&M?.!..
  40f508:	9f02 3f4d 7fc0 bf18 1689 3f4e de12 bf17     ..M?......N?....
  40f518:	8d90 3f4e 3c07 bf17 0417 3f4f 999f bf16     ..N?.<....O?....
  40f528:	7a1f 3f4f f6d9 bf15 efa8 3f4f 53b7 bf15     .zO?......O?.S..
  40f538:	64af 3f50 b039 bf14 d937 3f50 0c5f bf14     .dP?9...7.P?_...
  40f548:	4d3d 3f51 682a bf13 c0c2 3f51 c39a bf12     =MQ?*h....Q?....
  40f558:	33c6 3f52 1eb0 bf12 a649 3f52 796b bf11     .3R?....I.R?ky..
  40f568:	1849 3f53 d3cd bf10 89c7 3f53 2dd5 bf10     I.S?......S?.-..
  40f578:	fac3 3f53 8784 bf0f 6b3b 3f54 e0db bf0e     ..S?....;kT?....
  40f588:	db31 3f54 39da bf0e 4aa4 3f55 9281 bf0d     1.T?.9...JU?....
  40f598:	b993 3f55 ead0 bf0c 27fe 3f56 42c9 bf0c     ..U?.....'V?.B..
  40f5a8:	95e5 3f56 9a6b bf0b 0348 3f57 f1b7 bf0a     ..V?k...H.W?....
  40f5b8:	7026 3f57 48ad bf0a dc7f 3f57 9f4e bf09     &pW?.H....W?N...
  40f5c8:	4853 3f58 f59b bf08 b3a1 3f58 4b92 bf08     SHX?......X?.K..
  40f5d8:	1e6a 3f59 a136 bf07 88ad 3f59 f686 bf06     j.Y?6.....Y?....
  40f5e8:	f26a 3f59 4b82 bf06 5ba0 3f5a a02c bf05     j.Y?.K...[Z?,...
  40f5f8:	c450 3f5a f484 bf04 2c79 3f5b 4889 bf04     P.Z?....y,[?.H..
  40f608:	941a 3f5b 9c3d bf03 fb34 3f5b ef9f bf02     ..[?=...4.[?....
  40f618:	61c7 3f5c 42b1 bf02 c7d1 3f5c 9573 bf01     .a\?.B....\?s...
  40f628:	2d53 3f5d e7e4 bf00 924d 3f5d 3a06 bf00     S-]?....M.]?.:..
  40f638:	f6be 3f5d 17b2 beff 5aa6 3f5e babb befd     ..]?.....Z^?....
  40f648:	be05 3f5e 5d27 befc 20db 3f5f fef7 befa     ..^?']... _?....
  40f658:	8327 3f5f a02d bef9 e4e9 3f5f 40c8 bef8     '._?-....._?.@..
  40f668:	4621 3f60 e0cb bef6 a6cf 3f60 8035 bef5     !F`?......`?5...
  40f678:	06f2 3f61 1f07 bef4 668a 3f61 bd43 bef2     ..a?.....fa?C...
  40f688:	c598 3f61 5aea bef1 241a 3f62 f7fb beef     ..a?.Z...$b?....
  40f698:	8210 3f62 9479 beee df7b 3f62 3063 beed     ..b?y...{.b?c0..
  40f6a8:	3c5a 3f63 cbbb beeb 98ac 3f63 6681 beea     Z<c?......c?.f..
  40f6b8:	f473 3f63 00b7 bee9 4fac 3f64 9a5d bee7     s.c?.....Od?]...
  40f6c8:	aa59 3f64 3375 bee6 0479 3f65 cbfe bee4     Y.d?u3..y.e?....
  40f6d8:	5e0b 3f65 63fa bee3 b710 3f65 fb6a bee1     .^e?.c....e?j...
  40f6e8:	0f88 3f66 924f bee0 6771 3f66 28a9 bedf     ..f?O...qgf?.(..
  40f6f8:	becc 3f66 be79 bedd 1599 3f67 53c1 bedc     ..f?y.....g?.S..
  40f708:	6bd8 3f67 e880 beda c187 3f67 7cb9 bed9     .kg?......g?.|..
  40f718:	16a8 3f68 106b bed8 6b39 3f68 a399 bed6     ..h?k...9kh?....
  40f728:	bf3c 3f68 3641 bed5 12ae 3f69 c867 bed3     <.h?A6....i?g...
  40f738:	6591 3f69 5a09 bed2 b7e4 3f69 eb2a bed0     .ei?.Z....i?*...
  40f748:	09a7 3f6a 7bca becf 5ad9 3f6a 0bea bece     ..j?.{...Zj?....
  40f758:	ab7b 3f6a 9b8b becc fb8c 3f6a 2aae becb     {.j?......j?.*..
  40f768:	4b0c 3f6b b953 bec9 99fb 3f6b 477c bec8     .Kk?S.....k?|G..
  40f778:	e858 3f6b d529 bec6 3624 3f6c 625c bec5     X.k?)...$6l?\b..
  40f788:	835e 3f6c ef15 bec3 d007 3f6c 7b55 bec2     ^.l?......l?U{..
  40f798:	1c1d 3f6d 071e bec1 67a1 3f6d 926f bebf     ..m?.....gm?o...
  40f7a8:	b293 3f6d 1d4a bebe fcf2 3f6d a7af bebc     ..m?J.....m?....
  40f7b8:	46be 3f6e 31a0 bebb 8ff8 3f6e bb1e beb9     .Fn?.1....n?....
  40f7c8:	d89e 3f6e 442a beb8 20b0 3f6f ccc3 beb6     ..n?*D... o?....
  40f7d8:	6830 3f6f 54ec beb5 af1b 3f6f dca5 beb3     0ho?.T....o?....
  40f7e8:	f573 3f6f 63ef beb2 3b37 3f70 eacb beb0     s.o?.c..7;p?....
  40f7f8:	8066 3f70 713a beaf c502 3f70 f73c bead     f.p?:q....p?<...
  40f808:	0908 3f71 7cd4 beac 4c7a 3f71 0201 beab     ..q?.|..zLq?....
  40f818:	8f57 3f71 86c4 bea9 d19f 3f71 0b1f bea8     W.q?......q?....
  40f828:	1352 3f72 8f12 bea6 5470 3f72 129f bea5     R.r?....pTr?....
  40f838:	94f8 3f72 95c5 bea3 d4eb 3f72 1887 bea2     ..r?......r?....
  40f848:	1447 3f73 9ae5 bea0 530e 3f73 1cdf be9f     G.s?.....Ss?....
  40f858:	913f 3f73 9e78 be9d ced9 3f73 1faf be9c     ?.s?x.....s?....
  40f868:	0bdd 3f74 a086 be9a 484b 3f74 20fe be99     ..t?....KHt?. ..
  40f878:	8422 3f74 a117 be97 bf62 3f74 20d2 be96     ".t?....b.t?. ..
  40f888:	fa0b 3f74 a031 be94 341d 3f75 1f35 be93     ..t?1....4u?5...
  40f898:	6d97 3f75 9ddd be91 a67b 3f75 1c2c be90     .mu?....{.u?,...
  40f8a8:	dec6 3f75 9a22 be8e 167a 3f76 17c0 be8d     ..u?"...z.v?....
  40f8b8:	4d97 3f76 9507 be8b 841b 3f76 11f8 be8a     .Mv?......v?....
  40f8c8:	ba07 3f76 8e93 be88 ef5b 3f76 0ada be87     ..v?....[.v?....
  40f8d8:	2417 3f77 86ce be85 583a 3f77 0270 be84     .$w?....:Xw?p...
  40f8e8:	8bc5 3f77 7dc0 be82 beb7 3f77 f8c0 be80     ..w?.}....w?....
  40f8f8:	f110 3f77 e6e1 be7e 22d1 3f78 dba4 be7b     ..w?..~.."x?..{.
  40f908:	53f8 3f78 cfcc be78 8486 3f78 c35a be75     .Sx?..x...x?Z.u.
  40f918:	b47b 3f78 b651 be72 e3d6 3f78 a8b2 be6f     {.x?Q.r...x?..o.
  40f928:	1298 3f79 9a7f be6c 40c0 3f79 8bba be69     ..y?..l..@y?..i.
  40f938:	6e4e 3f79 7c66 be66 9b43 3f79 6c83 be63     Nny?f|f.C.y?.lc.
  40f948:	c79d 3f79 5c13 be60 f35e 3f79 4b1a be5d     ..y?.\`.^.y?.K].
  40f958:	1e84 3f7a 3997 be5a 4910 3f7a 278f be57     ..z?.9Z..Iz?.'W.
  40f968:	7302 3f7a 1501 be54 9c59 3f7a 01f1 be51     .sz?..T.Y.z?..Q.
  40f978:	c516 3f7a ee60 be4d ed37 3f7a da4f be4a     ..z?`.M.7.z?O.J.
  40f988:	14be 3f7b c5c2 be47 3bab 3f7b b0b9 be44     ..{?..G..;{?..D.
  40f998:	61fc 3f7b 9b37 be41 87b2 3f7b 853e be3e     .a{?7.A...{?>.>.
  40f9a8:	accd 3f7b 6ecf be3b d14d 3f7b 57ec be38     ..{?.n;.M.{?.W8.
  40f9b8:	f531 3f7b 4098 be35 187a 3f7c 28d4 be32     1.{?.@5.z.|?.(2.
  40f9c8:	3b28 3f7c 10a2 be2f 5d3a 3f7c f804 be2b     (;|?../.:]|?..+.
  40f9d8:	7eb0 3f7c defc be28 9f8a 3f7c c58c be25     .~|?..(...|?..%.
  40f9e8:	bfc9 3f7c abb6 be22 df6c 3f7c 917b be1f     ..|?..".l.|?{...
  40f9f8:	fe73 3f7c 76de be1c 1cdd 3f7d 5be0 be19     s.|?.v....}?.[..
  40fa08:	3aac 3f7d 4083 be16 57de 3f7d 24ca be13     .:}?.@...W}?.$..
  40fa18:	7474 3f7d 08b7 be10 906e 3f7d ec4a be0c     tt}?....n.}?J...
  40fa28:	abcc 3f7d cf86 be09 c68c 3f7d b26e be06     ..}?......}?n...
  40fa38:	e0b1 3f7d 9502 be03 fa38 3f7d 7745 be00     ..}?....8.}?Ew..
  40fa48:	1324 3f7e b273 bdfa 2b72 3f7e 75c0 bdf4     $.~?s...r+~?.u..
  40fa58:	4323 3f7e 3876 bdee 5a38 3f7e fa9a bde7     #C~?v8..8Z~?....
  40fa68:	70b0 3f7e bc2e bde1 868b 3f7e 7d37 bddb     .p~?......~?7}..
  40fa78:	9bc9 3f7e 3db9 bdd5 b069 3f7e fdb7 bdce     ..~?.=..i.~?....
  40fa88:	c46d 3f7e bd36 bdc8 d7d4 3f7e 7c39 bdc2     m.~?6.....~?9|..
  40fa98:	ea9d 3f7e 3ac3 bdbc fcc9 3f7e f8da bdb5     ..~?.:....~?....
  40faa8:	0e58 3f7f b680 bdaf 1f49 3f7f 73ba bda9     X..?....I..?.s..
  40fab8:	2f9d 3f7f 308c bda3 3f54 3f7f ecf9 bd9c     ./.?.0..T?.?....
  40fac8:	4e6d 3f7f a905 bd96 5ce9 3f7f 64b4 bd90     mN.?.....\.?.d..
  40fad8:	6ac7 3f7f 200a bd8a 7808 3f7f db0a bd83     .j.?. ...x.?....
  40fae8:	84ab 3f7f 2b74 bd7b 90b1 3f7f a038 bd6e     ...?t+{....?8.n.
  40faf8:	9c18 3f7f 1468 bd62 a6e3 3f7f 880e bd55     ...?h.b....?..U.
  40fb08:	b10f 3f7f fb2f bd48 ba9e 3f7f 6dd5 bd3c     ...?/.H....?.m<.
  40fb18:	c38f 3f7f e007 bd2f cbe2 3f7f 51cc bd23     ...?../....?.Q#.
  40fb28:	d398 3f7f c32c bd16 daaf 3f7f 342f bd0a     ...?,......?/4..
  40fb38:	e129 3f7f 49b9 bcfb e705 3f7f 2a7b bce2     )..?.I.....?{*..
  40fb48:	ec43 3f7f 0ab0 bcc9 f0e3 3f7f ea69 bcaf     C..?.......?i...
  40fb58:	f4e6 3f7f c9b6 bc96 f84a 3f7f 514b bc7b     ...?....J..?KQ{.
  40fb68:	fb11 3f7f 0e90 bc49 fd39 3f7f cb59 bc16     ...?..I.9..?Y...
  40fb78:	fec4 3f7f 0f89 bbc9 ffb1 3f7f 0fc7 bb49     ...?.......?..I.

0040fb88 <twiddleCoef_256>:
  40fb88:	0000 3f80 0000 0000 ec43 3f7f 0ab0 3cc9     ...?....C..?...<
  40fb98:	b10f 3f7f fb2f 3d48 4e6d 3f7f a905 3d96     ...?/.H=mN.?...=
  40fba8:	c46d 3f7e bd36 3dc8 1324 3f7e b273 3dfa     m.~?6..=$.~?s..=
  40fbb8:	3aac 3f7d 4083 3e16 3b28 3f7c 10a2 3e2f     .:}?.@.>(;|?../>
  40fbc8:	14be 3f7b c5c2 3e47 c79d 3f79 5c13 3e60     ..{?..G>..y?.\`>
  40fbd8:	53f8 3f78 cfcc 3e78 ba07 3f76 8e93 3e88     .Sx?..x>..v?...>
  40fbe8:	fa0b 3f74 a031 3e94 1447 3f73 9ae5 3ea0     ..t?1..>G.s?...>
  40fbf8:	0908 3f71 7cd4 3eac d89e 3f6e 442a 3eb8     ..q?.|.>..n?*D.>
  40fc08:	835e 3f6c ef15 3ec3 09a7 3f6a 7bca 3ecf     ^.l?...>..j?.{.>
  40fc18:	6bd8 3f67 e880 3eda aa59 3f64 3375 3ee6     .kg?...>Y.d?u3.>
  40fc28:	c598 3f61 5aea 3ef1 be05 3f5e 5d27 3efc     ..a?.Z.>..^?'].>
  40fc38:	941a 3f5b 9c3d 3f03 4853 3f58 f59b 3f08     ..[?=..?SHX?...?
  40fc48:	db31 3f54 39da 3f0e 4d3d 3f51 682a 3f13     1.T?.9.?=MQ?*h.?
  40fc58:	9f02 3f4d 7fc0 3f18 d112 3f49 7fd1 3f1d     ..M?...?..I?...?
  40fc68:	e403 3f45 6799 3f22 d870 3f41 3656 3f27     ..E?.g"?p.A?V6'?
  40fc78:	aef9 3f3d eb4a 3f2b 6842 3f39 85bb 3f30     ..=?J.+?Bh9?..0?
  40fc88:	04f3 3f35 04f3 3f35 85bb 3f30 6842 3f39     ..5?..5?..0?Bh9?
  40fc98:	eb4a 3f2b aef9 3f3d 3656 3f27 d870 3f41     J.+?..=?V6'?p.A?
  40fca8:	6799 3f22 e403 3f45 7fd1 3f1d d112 3f49     .g"?..E?...?..I?
  40fcb8:	7fc0 3f18 9f02 3f4d 682a 3f13 4d3d 3f51     ...?..M?*h.?=MQ?
  40fcc8:	39da 3f0e db31 3f54 f59b 3f08 4853 3f58     .9.?1.T?...?SHX?
  40fcd8:	9c3d 3f03 941a 3f5b 5d27 3efc be05 3f5e     =..?..[?'].>..^?
  40fce8:	5aea 3ef1 c598 3f61 3375 3ee6 aa59 3f64     .Z.>..a?u3.>Y.d?
  40fcf8:	e880 3eda 6bd8 3f67 7bca 3ecf 09a7 3f6a     ...>.kg?.{.>..j?
  40fd08:	ef15 3ec3 835e 3f6c 442a 3eb8 d89e 3f6e     ...>^.l?*D.>..n?
  40fd18:	7cd4 3eac 0908 3f71 9ae5 3ea0 1447 3f73     .|.>..q?...>G.s?
  40fd28:	a031 3e94 fa0b 3f74 8e93 3e88 ba07 3f76     1..>..t?...>..v?
  40fd38:	cfcc 3e78 53f8 3f78 5c13 3e60 c79d 3f79     ..x>.Sx?.\`>..y?
  40fd48:	c5c2 3e47 14be 3f7b 10a2 3e2f 3b28 3f7c     ..G>..{?../>(;|?
  40fd58:	4083 3e16 3aac 3f7d b273 3dfa 1324 3f7e     .@.>.:}?s..=$.~?
  40fd68:	bd36 3dc8 c46d 3f7e a905 3d96 4e6d 3f7f     6..=m.~?...=mN.?
  40fd78:	fb2f 3d48 b10f 3f7f 0ab0 3cc9 ec43 3f7f     /.H=...?...<C..?
  40fd88:	0000 0000 0000 3f80 0ab0 bcc9 ec43 3f7f     .......?....C..?
  40fd98:	fb2f bd48 b10f 3f7f a905 bd96 4e6d 3f7f     /.H....?....mN.?
  40fda8:	bd36 bdc8 c46d 3f7e b273 bdfa 1324 3f7e     6...m.~?s...$.~?
  40fdb8:	4083 be16 3aac 3f7d 10a2 be2f 3b28 3f7c     .@...:}?../.(;|?
  40fdc8:	c5c2 be47 14be 3f7b 5c13 be60 c79d 3f79     ..G...{?.\`...y?
  40fdd8:	cfcc be78 53f8 3f78 8e93 be88 ba07 3f76     ..x..Sx?......v?
  40fde8:	a031 be94 fa0b 3f74 9ae5 bea0 1447 3f73     1.....t?....G.s?
  40fdf8:	7cd4 beac 0908 3f71 442a beb8 d89e 3f6e     .|....q?*D....n?
  40fe08:	ef15 bec3 835e 3f6c 7bca becf 09a7 3f6a     ....^.l?.{....j?
  40fe18:	e880 beda 6bd8 3f67 3375 bee6 aa59 3f64     .....kg?u3..Y.d?
  40fe28:	5aea bef1 c598 3f61 5d27 befc be05 3f5e     .Z....a?']....^?
  40fe38:	9c3d bf03 941a 3f5b f59b bf08 4853 3f58     =.....[?....SHX?
  40fe48:	39da bf0e db31 3f54 682a bf13 4d3d 3f51     .9..1.T?*h..=MQ?
  40fe58:	7fc0 bf18 9f02 3f4d 7fd1 bf1d d112 3f49     ......M?......I?
  40fe68:	6799 bf22 e403 3f45 3656 bf27 d870 3f41     .g"...E?V6'.p.A?
  40fe78:	eb4a bf2b aef9 3f3d 85bb bf30 6842 3f39     J.+...=?..0.Bh9?
  40fe88:	04f3 bf35 04f3 3f35 6842 bf39 85bb 3f30     ..5...5?Bh9...0?
  40fe98:	aef9 bf3d eb4a 3f2b d870 bf41 3656 3f27     ..=.J.+?p.A.V6'?
  40fea8:	e403 bf45 6799 3f22 d112 bf49 7fd1 3f1d     ..E..g"?..I....?
  40feb8:	9f02 bf4d 7fc0 3f18 4d3d bf51 682a 3f13     ..M....?=MQ.*h.?
  40fec8:	db31 bf54 39da 3f0e 4853 bf58 f59b 3f08     1.T..9.?SHX....?
  40fed8:	941a bf5b 9c3d 3f03 be05 bf5e 5d27 3efc     ..[.=..?..^.'].>
  40fee8:	c598 bf61 5aea 3ef1 aa59 bf64 3375 3ee6     ..a..Z.>Y.d.u3.>
  40fef8:	6bd8 bf67 e880 3eda 09a7 bf6a 7bca 3ecf     .kg....>..j..{.>
  40ff08:	835e bf6c ef15 3ec3 d89e bf6e 442a 3eb8     ^.l....>..n.*D.>
  40ff18:	0908 bf71 7cd4 3eac 1447 bf73 9ae5 3ea0     ..q..|.>G.s....>
  40ff28:	fa0b bf74 a031 3e94 ba07 bf76 8e93 3e88     ..t.1..>..v....>
  40ff38:	53f8 bf78 cfcc 3e78 c79d bf79 5c13 3e60     .Sx...x>..y..\`>
  40ff48:	14be bf7b c5c2 3e47 3b28 bf7c 10a2 3e2f     ..{...G>(;|.../>
  40ff58:	3aac bf7d 4083 3e16 1324 bf7e b273 3dfa     .:}..@.>$.~.s..=
  40ff68:	c46d bf7e bd36 3dc8 4e6d bf7f a905 3d96     m.~.6..=mN.....=
  40ff78:	b10f bf7f fb2f 3d48 ec43 bf7f 0ab0 3cc9     ..../.H=C......<
  40ff88:	0000 bf80 0000 0000 ec43 bf7f 0ab0 bcc9     ........C.......
  40ff98:	b10f bf7f fb2f bd48 4e6d bf7f a905 bd96     ..../.H.mN......
  40ffa8:	c46d bf7e bd36 bdc8 1324 bf7e b273 bdfa     m.~.6...$.~.s...
  40ffb8:	3aac bf7d 4083 be16 3b28 bf7c 10a2 be2f     .:}..@..(;|.../.
  40ffc8:	14be bf7b c5c2 be47 c79d bf79 5c13 be60     ..{...G...y..\`.
  40ffd8:	53f8 bf78 cfcc be78 ba07 bf76 8e93 be88     .Sx...x...v.....
  40ffe8:	fa0b bf74 a031 be94 1447 bf73 9ae5 bea0     ..t.1...G.s.....
  40fff8:	0908 bf71 7cd4 beac d89e bf6e 442a beb8     ..q..|....n.*D..
  410008:	835e bf6c ef15 bec3 09a7 bf6a 7bca becf     ^.l.......j..{..
  410018:	6bd8 bf67 e880 beda aa59 bf64 3375 bee6     .kg.....Y.d.u3..
  410028:	c598 bf61 5aea bef1 be05 bf5e 5d27 befc     ..a..Z....^.']..
  410038:	941a bf5b 9c3d bf03 4853 bf58 f59b bf08     ..[.=...SHX.....
  410048:	db31 bf54 39da bf0e 4d3d bf51 682a bf13     1.T..9..=MQ.*h..
  410058:	9f02 bf4d 7fc0 bf18 d112 bf49 7fd1 bf1d     ..M.......I.....
  410068:	e403 bf45 6799 bf22 d870 bf41 3656 bf27     ..E..g".p.A.V6'.
  410078:	aef9 bf3d eb4a bf2b 6842 bf39 85bb bf30     ..=.J.+.Bh9...0.
  410088:	04f3 bf35 04f3 bf35 85bb bf30 6842 bf39     ..5...5...0.Bh9.
  410098:	eb4a bf2b aef9 bf3d 3656 bf27 d870 bf41     J.+...=.V6'.p.A.
  4100a8:	6799 bf22 e403 bf45 7fd1 bf1d d112 bf49     .g"...E.......I.
  4100b8:	7fc0 bf18 9f02 bf4d 682a bf13 4d3d bf51     ......M.*h..=MQ.
  4100c8:	39da bf0e db31 bf54 f59b bf08 4853 bf58     .9..1.T.....SHX.
  4100d8:	9c3d bf03 941a bf5b 5d27 befc be05 bf5e     =.....[.']....^.
  4100e8:	5aea bef1 c598 bf61 3375 bee6 aa59 bf64     .Z....a.u3..Y.d.
  4100f8:	e880 beda 6bd8 bf67 7bca becf 09a7 bf6a     .....kg..{....j.
  410108:	ef15 bec3 835e bf6c 442a beb8 d89e bf6e     ....^.l.*D....n.
  410118:	7cd4 beac 0908 bf71 9ae5 bea0 1447 bf73     .|....q.....G.s.
  410128:	a031 be94 fa0b bf74 8e93 be88 ba07 bf76     1.....t.......v.
  410138:	cfcc be78 53f8 bf78 5c13 be60 c79d bf79     ..x..Sx..\`...y.
  410148:	c5c2 be47 14be bf7b 10a2 be2f 3b28 bf7c     ..G...{.../.(;|.
  410158:	4083 be16 3aac bf7d b273 bdfa 1324 bf7e     .@...:}.s...$.~.
  410168:	bd36 bdc8 c46d bf7e a905 bd96 4e6d bf7f     6...m.~.....mN..
  410178:	fb2f bd48 b10f bf7f 0ab0 bcc9 ec43 bf7f     /.H.........C...
  410188:	0000 8000 0000 bf80 0ab0 3cc9 ec43 bf7f     ...........<C...
  410198:	fb2f 3d48 b10f bf7f a905 3d96 4e6d bf7f     /.H=.......=mN..
  4101a8:	bd36 3dc8 c46d bf7e b273 3dfa 1324 bf7e     6..=m.~.s..=$.~.
  4101b8:	4083 3e16 3aac bf7d 10a2 3e2f 3b28 bf7c     .@.>.:}.../>(;|.
  4101c8:	c5c2 3e47 14be bf7b 5c13 3e60 c79d bf79     ..G>..{..\`>..y.
  4101d8:	cfcc 3e78 53f8 bf78 8e93 3e88 ba07 bf76     ..x>.Sx....>..v.
  4101e8:	a031 3e94 fa0b bf74 9ae5 3ea0 1447 bf73     1..>..t....>G.s.
  4101f8:	7cd4 3eac 0908 bf71 442a 3eb8 d89e bf6e     .|.>..q.*D.>..n.
  410208:	ef15 3ec3 835e bf6c 7bca 3ecf 09a7 bf6a     ...>^.l..{.>..j.
  410218:	e880 3eda 6bd8 bf67 3375 3ee6 aa59 bf64     ...>.kg.u3.>Y.d.
  410228:	5aea 3ef1 c598 bf61 5d27 3efc be05 bf5e     .Z.>..a.'].>..^.
  410238:	9c3d 3f03 941a bf5b f59b 3f08 4853 bf58     =..?..[....?SHX.
  410248:	39da 3f0e db31 bf54 682a 3f13 4d3d bf51     .9.?1.T.*h.?=MQ.
  410258:	7fc0 3f18 9f02 bf4d 7fd1 3f1d d112 bf49     ...?..M....?..I.
  410268:	6799 3f22 e403 bf45 3656 3f27 d870 bf41     .g"?..E.V6'?p.A.
  410278:	eb4a 3f2b aef9 bf3d 85bb 3f30 6842 bf39     J.+?..=...0?Bh9.
  410288:	04f3 3f35 04f3 bf35 6842 3f39 85bb bf30     ..5?..5.Bh9?..0.
  410298:	aef9 3f3d eb4a bf2b d870 3f41 3656 bf27     ..=?J.+.p.A?V6'.
  4102a8:	e403 3f45 6799 bf22 d112 3f49 7fd1 bf1d     ..E?.g"...I?....
  4102b8:	9f02 3f4d 7fc0 bf18 4d3d 3f51 682a bf13     ..M?....=MQ?*h..
  4102c8:	db31 3f54 39da bf0e 4853 3f58 f59b bf08     1.T?.9..SHX?....
  4102d8:	941a 3f5b 9c3d bf03 be05 3f5e 5d27 befc     ..[?=.....^?']..
  4102e8:	c598 3f61 5aea bef1 aa59 3f64 3375 bee6     ..a?.Z..Y.d?u3..
  4102f8:	6bd8 3f67 e880 beda 09a7 3f6a 7bca becf     .kg?......j?.{..
  410308:	835e 3f6c ef15 bec3 d89e 3f6e 442a beb8     ^.l?......n?*D..
  410318:	0908 3f71 7cd4 beac 1447 3f73 9ae5 bea0     ..q?.|..G.s?....
  410328:	fa0b 3f74 a031 be94 ba07 3f76 8e93 be88     ..t?1.....v?....
  410338:	53f8 3f78 cfcc be78 c79d 3f79 5c13 be60     .Sx?..x...y?.\`.
  410348:	14be 3f7b c5c2 be47 3b28 3f7c 10a2 be2f     ..{?..G.(;|?../.
  410358:	3aac 3f7d 4083 be16 1324 3f7e b273 bdfa     .:}?.@..$.~?s...
  410368:	c46d 3f7e bd36 bdc8 4e6d 3f7f a905 bd96     m.~?6...mN.?....
  410378:	b10f 3f7f fb2f bd48 ec43 3f7f 0ab0 bcc9     ...?/.H.C..?....

00410388 <twiddleCoef_512>:
  410388:	0000 3f80 0000 0000 fb11 3f7f 0e90 3c49     ...?.......?..I<
  410398:	ec43 3f7f 0ab0 3cc9 d398 3f7f c32c 3d16     C..?...<...?,..=
  4103a8:	b10f 3f7f fb2f 3d48 84ab 3f7f 2b74 3d7b     ...?/.H=...?t+{=
  4103b8:	4e6d 3f7f a905 3d96 0e58 3f7f b680 3daf     mN.?...=X..?...=
  4103c8:	c46d 3f7e bd36 3dc8 70b0 3f7e bc2e 3de1     m.~?6..=.p~?...=
  4103d8:	1324 3f7e b273 3dfa abcc 3f7d cf86 3e09     $.~?s..=..}?...>
  4103e8:	3aac 3f7d 4083 3e16 bfc9 3f7c abb6 3e22     .:}?.@.>..|?..">
  4103f8:	3b28 3f7c 10a2 3e2f accd 3f7b 6ecf 3e3b     (;|?../>..{?.n;>
  410408:	14be 3f7b c5c2 3e47 7302 3f7a 1501 3e54     ..{?..G>.sz?..T>
  410418:	c79d 3f79 5c13 3e60 1298 3f79 9a7f 3e6c     ..y?.\`>..y?..l>
  410428:	53f8 3f78 cfcc 3e78 8bc5 3f77 7dc0 3e82     .Sx?..x>..w?.}.>
  410438:	ba07 3f76 8e93 3e88 dec6 3f75 9a22 3e8e     ..v?...>..u?"..>
  410448:	fa0b 3f74 a031 3e94 0bdd 3f74 a086 3e9a     ..t?1..>..t?...>
  410458:	1447 3f73 9ae5 3ea0 1352 3f72 8f12 3ea6     G.s?...>R.r?...>
  410468:	0908 3f71 7cd4 3eac f573 3f6f 63ef 3eb2     ..q?.|.>s.o?.c.>
  410478:	d89e 3f6e 442a 3eb8 b293 3f6d 1d4a 3ebe     ..n?*D.>..m?J..>
  410488:	835e 3f6c ef15 3ec3 4b0c 3f6b b953 3ec9     ^.l?...>.Kk?S..>
  410498:	09a7 3f6a 7bca 3ecf bf3c 3f68 3641 3ed5     ..j?.{.><.h?A6.>
  4104a8:	6bd8 3f67 e880 3eda 0f88 3f66 924f 3ee0     .kg?...>..f?O..>
  4104b8:	aa59 3f64 3375 3ee6 3c5a 3f63 cbbb 3eeb     Y.d?u3.>Z<c?...>
  4104c8:	c598 3f61 5aea 3ef1 4621 3f60 e0cb 3ef6     ..a?.Z.>!F`?...>
  4104d8:	be05 3f5e 5d27 3efc 2d53 3f5d e7e4 3f00     ..^?'].>S-]?...?
  4104e8:	941a 3f5b 9c3d 3f03 f26a 3f59 4b82 3f06     ..[?=..?j.Y?.K.?
  4104f8:	4853 3f58 f59b 3f08 95e5 3f56 9a6b 3f0b     SHX?...?..V?k..?
  410508:	db31 3f54 39da 3f0e 1849 3f53 d3cd 3f10     1.T?.9.?I.S?...?
  410518:	4d3d 3f51 682a 3f13 7a1f 3f4f f6d9 3f15     =MQ?*h.?.zO?...?
  410528:	9f02 3f4d 7fc0 3f18 bbf8 3f4b 02c6 3f1b     ..M?...?..K?...?
  410538:	d112 3f49 7fd1 3f1d de65 3f47 f6cb 3f1f     ..I?...?e.G?...?
  410548:	e403 3f45 6799 3f22 e200 3f43 d225 3f24     ..E?.g"?..C?%.$?
  410558:	d870 3f41 3656 3f27 c767 3f3f 9415 3f29     p.A?V6'?g.??..)?
  410568:	aef9 3f3d eb4a 3f2b 8f3b 3f3b 3bde 3f2e     ..=?J.+?;.;?.;.?
  410578:	6842 3f39 85bb 3f30 3a23 3f37 c8c9 3f32     Bh9?..0?#:7?..2?
  410588:	04f3 3f35 04f3 3f35 c8c9 3f32 3a23 3f37     ..5?..5?..2?#:7?
  410598:	85bb 3f30 6842 3f39 3bde 3f2e 8f3b 3f3b     ..0?Bh9?.;.?;.;?
  4105a8:	eb4a 3f2b aef9 3f3d 9415 3f29 c767 3f3f     J.+?..=?..)?g.??
  4105b8:	3656 3f27 d870 3f41 d225 3f24 e200 3f43     V6'?p.A?%.$?..C?
  4105c8:	6799 3f22 e403 3f45 f6cb 3f1f de65 3f47     .g"?..E?...?e.G?
  4105d8:	7fd1 3f1d d112 3f49 02c6 3f1b bbf8 3f4b     ...?..I?...?..K?
  4105e8:	7fc0 3f18 9f02 3f4d f6d9 3f15 7a1f 3f4f     ...?..M?...?.zO?
  4105f8:	682a 3f13 4d3d 3f51 d3cd 3f10 1849 3f53     *h.?=MQ?...?I.S?
  410608:	39da 3f0e db31 3f54 9a6b 3f0b 95e5 3f56     .9.?1.T?k..?..V?
  410618:	f59b 3f08 4853 3f58 4b82 3f06 f26a 3f59     ...?SHX?.K.?j.Y?
  410628:	9c3d 3f03 941a 3f5b e7e4 3f00 2d53 3f5d     =..?..[?...?S-]?
  410638:	5d27 3efc be05 3f5e e0cb 3ef6 4621 3f60     '].>..^?...>!F`?
  410648:	5aea 3ef1 c598 3f61 cbbb 3eeb 3c5a 3f63     .Z.>..a?...>Z<c?
  410658:	3375 3ee6 aa59 3f64 924f 3ee0 0f88 3f66     u3.>Y.d?O..>..f?
  410668:	e880 3eda 6bd8 3f67 3641 3ed5 bf3c 3f68     ...>.kg?A6.><.h?
  410678:	7bca 3ecf 09a7 3f6a b953 3ec9 4b0c 3f6b     .{.>..j?S..>.Kk?
  410688:	ef15 3ec3 835e 3f6c 1d4a 3ebe b293 3f6d     ...>^.l?J..>..m?
  410698:	442a 3eb8 d89e 3f6e 63ef 3eb2 f573 3f6f     *D.>..n?.c.>s.o?
  4106a8:	7cd4 3eac 0908 3f71 8f12 3ea6 1352 3f72     .|.>..q?...>R.r?
  4106b8:	9ae5 3ea0 1447 3f73 a086 3e9a 0bdd 3f74     ...>G.s?...>..t?
  4106c8:	a031 3e94 fa0b 3f74 9a22 3e8e dec6 3f75     1..>..t?"..>..u?
  4106d8:	8e93 3e88 ba07 3f76 7dc0 3e82 8bc5 3f77     ...>..v?.}.>..w?
  4106e8:	cfcc 3e78 53f8 3f78 9a7f 3e6c 1298 3f79     ..x>.Sx?..l>..y?
  4106f8:	5c13 3e60 c79d 3f79 1501 3e54 7302 3f7a     .\`>..y?..T>.sz?
  410708:	c5c2 3e47 14be 3f7b 6ecf 3e3b accd 3f7b     ..G>..{?.n;>..{?
  410718:	10a2 3e2f 3b28 3f7c abb6 3e22 bfc9 3f7c     ../>(;|?..">..|?
  410728:	4083 3e16 3aac 3f7d cf86 3e09 abcc 3f7d     .@.>.:}?...>..}?
  410738:	b273 3dfa 1324 3f7e bc2e 3de1 70b0 3f7e     s..=$.~?...=.p~?
  410748:	bd36 3dc8 c46d 3f7e b680 3daf 0e58 3f7f     6..=m.~?...=X..?
  410758:	a905 3d96 4e6d 3f7f 2b74 3d7b 84ab 3f7f     ...=mN.?t+{=...?
  410768:	fb2f 3d48 b10f 3f7f c32c 3d16 d398 3f7f     /.H=...?,..=...?
  410778:	0ab0 3cc9 ec43 3f7f 0e90 3c49 fb11 3f7f     ...<C..?..I<...?
  410788:	0000 0000 0000 3f80 0e90 bc49 fb11 3f7f     .......?..I....?
  410798:	0ab0 bcc9 ec43 3f7f c32c bd16 d398 3f7f     ....C..?,......?
  4107a8:	fb2f bd48 b10f 3f7f 2b74 bd7b 84ab 3f7f     /.H....?t+{....?
  4107b8:	a905 bd96 4e6d 3f7f b680 bdaf 0e58 3f7f     ....mN.?....X..?
  4107c8:	bd36 bdc8 c46d 3f7e bc2e bde1 70b0 3f7e     6...m.~?.....p~?
  4107d8:	b273 bdfa 1324 3f7e cf86 be09 abcc 3f7d     s...$.~?......}?
  4107e8:	4083 be16 3aac 3f7d abb6 be22 bfc9 3f7c     .@...:}?.."...|?
  4107f8:	10a2 be2f 3b28 3f7c 6ecf be3b accd 3f7b     ../.(;|?.n;...{?
  410808:	c5c2 be47 14be 3f7b 1501 be54 7302 3f7a     ..G...{?..T..sz?
  410818:	5c13 be60 c79d 3f79 9a7f be6c 1298 3f79     .\`...y?..l...y?
  410828:	cfcc be78 53f8 3f78 7dc0 be82 8bc5 3f77     ..x..Sx?.}....w?
  410838:	8e93 be88 ba07 3f76 9a22 be8e dec6 3f75     ......v?".....u?
  410848:	a031 be94 fa0b 3f74 a086 be9a 0bdd 3f74     1.....t?......t?
  410858:	9ae5 bea0 1447 3f73 8f12 bea6 1352 3f72     ....G.s?....R.r?
  410868:	7cd4 beac 0908 3f71 63ef beb2 f573 3f6f     .|....q?.c..s.o?
  410878:	442a beb8 d89e 3f6e 1d4a bebe b293 3f6d     *D....n?J.....m?
  410888:	ef15 bec3 835e 3f6c b953 bec9 4b0c 3f6b     ....^.l?S....Kk?
  410898:	7bca becf 09a7 3f6a 3641 bed5 bf3c 3f68     .{....j?A6..<.h?
  4108a8:	e880 beda 6bd8 3f67 924f bee0 0f88 3f66     .....kg?O.....f?
  4108b8:	3375 bee6 aa59 3f64 cbbb beeb 3c5a 3f63     u3..Y.d?....Z<c?
  4108c8:	5aea bef1 c598 3f61 e0cb bef6 4621 3f60     .Z....a?....!F`?
  4108d8:	5d27 befc be05 3f5e e7e4 bf00 2d53 3f5d     ']....^?....S-]?
  4108e8:	9c3d bf03 941a 3f5b 4b82 bf06 f26a 3f59     =.....[?.K..j.Y?
  4108f8:	f59b bf08 4853 3f58 9a6b bf0b 95e5 3f56     ....SHX?k.....V?
  410908:	39da bf0e db31 3f54 d3cd bf10 1849 3f53     .9..1.T?....I.S?
  410918:	682a bf13 4d3d 3f51 f6d9 bf15 7a1f 3f4f     *h..=MQ?.....zO?
  410928:	7fc0 bf18 9f02 3f4d 02c6 bf1b bbf8 3f4b     ......M?......K?
  410938:	7fd1 bf1d d112 3f49 f6cb bf1f de65 3f47     ......I?....e.G?
  410948:	6799 bf22 e403 3f45 d225 bf24 e200 3f43     .g"...E?%.$...C?
  410958:	3656 bf27 d870 3f41 9415 bf29 c767 3f3f     V6'.p.A?..).g.??
  410968:	eb4a bf2b aef9 3f3d 3bde bf2e 8f3b 3f3b     J.+...=?.;..;.;?
  410978:	85bb bf30 6842 3f39 c8c9 bf32 3a23 3f37     ..0.Bh9?..2.#:7?
  410988:	04f3 bf35 04f3 3f35 3a23 bf37 c8c9 3f32     ..5...5?#:7...2?
  410998:	6842 bf39 85bb 3f30 8f3b bf3b 3bde 3f2e     Bh9...0?;.;..;.?
  4109a8:	aef9 bf3d eb4a 3f2b c767 bf3f 9415 3f29     ..=.J.+?g.?...)?
  4109b8:	d870 bf41 3656 3f27 e200 bf43 d225 3f24     p.A.V6'?..C.%.$?
  4109c8:	e403 bf45 6799 3f22 de65 bf47 f6cb 3f1f     ..E..g"?e.G....?
  4109d8:	d112 bf49 7fd1 3f1d bbf8 bf4b 02c6 3f1b     ..I....?..K....?
  4109e8:	9f02 bf4d 7fc0 3f18 7a1f bf4f f6d9 3f15     ..M....?.zO....?
  4109f8:	4d3d bf51 682a 3f13 1849 bf53 d3cd 3f10     =MQ.*h.?I.S....?
  410a08:	db31 bf54 39da 3f0e 95e5 bf56 9a6b 3f0b     1.T..9.?..V.k..?
  410a18:	4853 bf58 f59b 3f08 f26a bf59 4b82 3f06     SHX....?j.Y..K.?
  410a28:	941a bf5b 9c3d 3f03 2d53 bf5d e7e4 3f00     ..[.=..?S-]....?
  410a38:	be05 bf5e 5d27 3efc 4621 bf60 e0cb 3ef6     ..^.'].>!F`....>
  410a48:	c598 bf61 5aea 3ef1 3c5a bf63 cbbb 3eeb     ..a..Z.>Z<c....>
  410a58:	aa59 bf64 3375 3ee6 0f88 bf66 924f 3ee0     Y.d.u3.>..f.O..>
  410a68:	6bd8 bf67 e880 3eda bf3c bf68 3641 3ed5     .kg....><.h.A6.>
  410a78:	09a7 bf6a 7bca 3ecf 4b0c bf6b b953 3ec9     ..j..{.>.Kk.S..>
  410a88:	835e bf6c ef15 3ec3 b293 bf6d 1d4a 3ebe     ^.l....>..m.J..>
  410a98:	d89e bf6e 442a 3eb8 f573 bf6f 63ef 3eb2     ..n.*D.>s.o..c.>
  410aa8:	0908 bf71 7cd4 3eac 1352 bf72 8f12 3ea6     ..q..|.>R.r....>
  410ab8:	1447 bf73 9ae5 3ea0 0bdd bf74 a086 3e9a     G.s....>..t....>
  410ac8:	fa0b bf74 a031 3e94 dec6 bf75 9a22 3e8e     ..t.1..>..u."..>
  410ad8:	ba07 bf76 8e93 3e88 8bc5 bf77 7dc0 3e82     ..v....>..w..}.>
  410ae8:	53f8 bf78 cfcc 3e78 1298 bf79 9a7f 3e6c     .Sx...x>..y...l>
  410af8:	c79d bf79 5c13 3e60 7302 bf7a 1501 3e54     ..y..\`>.sz...T>
  410b08:	14be bf7b c5c2 3e47 accd bf7b 6ecf 3e3b     ..{...G>..{..n;>
  410b18:	3b28 bf7c 10a2 3e2f bfc9 bf7c abb6 3e22     (;|.../>..|...">
  410b28:	3aac bf7d 4083 3e16 abcc bf7d cf86 3e09     .:}..@.>..}....>
  410b38:	1324 bf7e b273 3dfa 70b0 bf7e bc2e 3de1     $.~.s..=.p~....=
  410b48:	c46d bf7e bd36 3dc8 0e58 bf7f b680 3daf     m.~.6..=X......=
  410b58:	4e6d bf7f a905 3d96 84ab bf7f 2b74 3d7b     mN.....=....t+{=
  410b68:	b10f bf7f fb2f 3d48 d398 bf7f c32c 3d16     ..../.H=....,..=
  410b78:	ec43 bf7f 0ab0 3cc9 fb11 bf7f 0e90 3c49     C......<......I<
  410b88:	0000 bf80 0000 0000 fb11 bf7f 0e90 bc49     ..............I.
  410b98:	ec43 bf7f 0ab0 bcc9 d398 bf7f c32c bd16     C...........,...
  410ba8:	b10f bf7f fb2f bd48 84ab bf7f 2b74 bd7b     ..../.H.....t+{.
  410bb8:	4e6d bf7f a905 bd96 0e58 bf7f b680 bdaf     mN......X.......
  410bc8:	c46d bf7e bd36 bdc8 70b0 bf7e bc2e bde1     m.~.6....p~.....
  410bd8:	1324 bf7e b273 bdfa abcc bf7d cf86 be09     $.~.s.....}.....
  410be8:	3aac bf7d 4083 be16 bfc9 bf7c abb6 be22     .:}..@....|...".
  410bf8:	3b28 bf7c 10a2 be2f accd bf7b 6ecf be3b     (;|.../...{..n;.
  410c08:	14be bf7b c5c2 be47 7302 bf7a 1501 be54     ..{...G..sz...T.
  410c18:	c79d bf79 5c13 be60 1298 bf79 9a7f be6c     ..y..\`...y...l.
  410c28:	53f8 bf78 cfcc be78 8bc5 bf77 7dc0 be82     .Sx...x...w..}..
  410c38:	ba07 bf76 8e93 be88 dec6 bf75 9a22 be8e     ..v.......u."...
  410c48:	fa0b bf74 a031 be94 0bdd bf74 a086 be9a     ..t.1.....t.....
  410c58:	1447 bf73 9ae5 bea0 1352 bf72 8f12 bea6     G.s.....R.r.....
  410c68:	0908 bf71 7cd4 beac f573 bf6f 63ef beb2     ..q..|..s.o..c..
  410c78:	d89e bf6e 442a beb8 b293 bf6d 1d4a bebe     ..n.*D....m.J...
  410c88:	835e bf6c ef15 bec3 4b0c bf6b b953 bec9     ^.l......Kk.S...
  410c98:	09a7 bf6a 7bca becf bf3c bf68 3641 bed5     ..j..{..<.h.A6..
  410ca8:	6bd8 bf67 e880 beda 0f88 bf66 924f bee0     .kg.......f.O...
  410cb8:	aa59 bf64 3375 bee6 3c5a bf63 cbbb beeb     Y.d.u3..Z<c.....
  410cc8:	c598 bf61 5aea bef1 4621 bf60 e0cb bef6     ..a..Z..!F`.....
  410cd8:	be05 bf5e 5d27 befc 2d53 bf5d e7e4 bf00     ..^.']..S-].....
  410ce8:	941a bf5b 9c3d bf03 f26a bf59 4b82 bf06     ..[.=...j.Y..K..
  410cf8:	4853 bf58 f59b bf08 95e5 bf56 9a6b bf0b     SHX.......V.k...
  410d08:	db31 bf54 39da bf0e 1849 bf53 d3cd bf10     1.T..9..I.S.....
  410d18:	4d3d bf51 682a bf13 7a1f bf4f f6d9 bf15     =MQ.*h...zO.....
  410d28:	9f02 bf4d 7fc0 bf18 bbf8 bf4b 02c6 bf1b     ..M.......K.....
  410d38:	d112 bf49 7fd1 bf1d de65 bf47 f6cb bf1f     ..I.....e.G.....
  410d48:	e403 bf45 6799 bf22 e200 bf43 d225 bf24     ..E..g"...C.%.$.
  410d58:	d870 bf41 3656 bf27 c767 bf3f 9415 bf29     p.A.V6'.g.?...).
  410d68:	aef9 bf3d eb4a bf2b 8f3b bf3b 3bde bf2e     ..=.J.+.;.;..;..
  410d78:	6842 bf39 85bb bf30 3a23 bf37 c8c9 bf32     Bh9...0.#:7...2.
  410d88:	04f3 bf35 04f3 bf35 c8c9 bf32 3a23 bf37     ..5...5...2.#:7.
  410d98:	85bb bf30 6842 bf39 3bde bf2e 8f3b bf3b     ..0.Bh9..;..;.;.
  410da8:	eb4a bf2b aef9 bf3d 9415 bf29 c767 bf3f     J.+...=...).g.?.
  410db8:	3656 bf27 d870 bf41 d225 bf24 e200 bf43     V6'.p.A.%.$...C.
  410dc8:	6799 bf22 e403 bf45 f6cb bf1f de65 bf47     .g"...E.....e.G.
  410dd8:	7fd1 bf1d d112 bf49 02c6 bf1b bbf8 bf4b     ......I.......K.
  410de8:	7fc0 bf18 9f02 bf4d f6d9 bf15 7a1f bf4f     ......M......zO.
  410df8:	682a bf13 4d3d bf51 d3cd bf10 1849 bf53     *h..=MQ.....I.S.
  410e08:	39da bf0e db31 bf54 9a6b bf0b 95e5 bf56     .9..1.T.k.....V.
  410e18:	f59b bf08 4853 bf58 4b82 bf06 f26a bf59     ....SHX..K..j.Y.
  410e28:	9c3d bf03 941a bf5b e7e4 bf00 2d53 bf5d     =.....[.....S-].
  410e38:	5d27 befc be05 bf5e e0cb bef6 4621 bf60     ']....^.....!F`.
  410e48:	5aea bef1 c598 bf61 cbbb beeb 3c5a bf63     .Z....a.....Z<c.
  410e58:	3375 bee6 aa59 bf64 924f bee0 0f88 bf66     u3..Y.d.O.....f.
  410e68:	e880 beda 6bd8 bf67 3641 bed5 bf3c bf68     .....kg.A6..<.h.
  410e78:	7bca becf 09a7 bf6a b953 bec9 4b0c bf6b     .{....j.S....Kk.
  410e88:	ef15 bec3 835e bf6c 1d4a bebe b293 bf6d     ....^.l.J.....m.
  410e98:	442a beb8 d89e bf6e 63ef beb2 f573 bf6f     *D....n..c..s.o.
  410ea8:	7cd4 beac 0908 bf71 8f12 bea6 1352 bf72     .|....q.....R.r.
  410eb8:	9ae5 bea0 1447 bf73 a086 be9a 0bdd bf74     ....G.s.......t.
  410ec8:	a031 be94 fa0b bf74 9a22 be8e dec6 bf75     1.....t.".....u.
  410ed8:	8e93 be88 ba07 bf76 7dc0 be82 8bc5 bf77     ......v..}....w.
  410ee8:	cfcc be78 53f8 bf78 9a7f be6c 1298 bf79     ..x..Sx...l...y.
  410ef8:	5c13 be60 c79d bf79 1501 be54 7302 bf7a     .\`...y...T..sz.
  410f08:	c5c2 be47 14be bf7b 6ecf be3b accd bf7b     ..G...{..n;...{.
  410f18:	10a2 be2f 3b28 bf7c abb6 be22 bfc9 bf7c     ../.(;|..."...|.
  410f28:	4083 be16 3aac bf7d cf86 be09 abcc bf7d     .@...:}.......}.
  410f38:	b273 bdfa 1324 bf7e bc2e bde1 70b0 bf7e     s...$.~......p~.
  410f48:	bd36 bdc8 c46d bf7e b680 bdaf 0e58 bf7f     6...m.~.....X...
  410f58:	a905 bd96 4e6d bf7f 2b74 bd7b 84ab bf7f     ....mN..t+{.....
  410f68:	fb2f bd48 b10f bf7f c32c bd16 d398 bf7f     /.H.....,.......
  410f78:	0ab0 bcc9 ec43 bf7f 0e90 bc49 fb11 bf7f     ....C.....I.....
  410f88:	0000 8000 0000 bf80 0e90 3c49 fb11 bf7f     ..........I<....
  410f98:	0ab0 3cc9 ec43 bf7f c32c 3d16 d398 bf7f     ...<C...,..=....
  410fa8:	fb2f 3d48 b10f bf7f 2b74 3d7b 84ab bf7f     /.H=....t+{=....
  410fb8:	a905 3d96 4e6d bf7f b680 3daf 0e58 bf7f     ...=mN.....=X...
  410fc8:	bd36 3dc8 c46d bf7e bc2e 3de1 70b0 bf7e     6..=m.~....=.p~.
  410fd8:	b273 3dfa 1324 bf7e cf86 3e09 abcc bf7d     s..=$.~....>..}.
  410fe8:	4083 3e16 3aac bf7d abb6 3e22 bfc9 bf7c     .@.>.:}...">..|.
  410ff8:	10a2 3e2f 3b28 bf7c 6ecf 3e3b accd bf7b     ../>(;|..n;>..{.
  411008:	c5c2 3e47 14be bf7b 1501 3e54 7302 bf7a     ..G>..{...T>.sz.
  411018:	5c13 3e60 c79d bf79 9a7f 3e6c 1298 bf79     .\`>..y...l>..y.
  411028:	cfcc 3e78 53f8 bf78 7dc0 3e82 8bc5 bf77     ..x>.Sx..}.>..w.
  411038:	8e93 3e88 ba07 bf76 9a22 3e8e dec6 bf75     ...>..v."..>..u.
  411048:	a031 3e94 fa0b bf74 a086 3e9a 0bdd bf74     1..>..t....>..t.
  411058:	9ae5 3ea0 1447 bf73 8f12 3ea6 1352 bf72     ...>G.s....>R.r.
  411068:	7cd4 3eac 0908 bf71 63ef 3eb2 f573 bf6f     .|.>..q..c.>s.o.
  411078:	442a 3eb8 d89e bf6e 1d4a 3ebe b293 bf6d     *D.>..n.J..>..m.
  411088:	ef15 3ec3 835e bf6c b953 3ec9 4b0c bf6b     ...>^.l.S..>.Kk.
  411098:	7bca 3ecf 09a7 bf6a 3641 3ed5 bf3c bf68     .{.>..j.A6.><.h.
  4110a8:	e880 3eda 6bd8 bf67 924f 3ee0 0f88 bf66     ...>.kg.O..>..f.
  4110b8:	3375 3ee6 aa59 bf64 cbbb 3eeb 3c5a bf63     u3.>Y.d....>Z<c.
  4110c8:	5aea 3ef1 c598 bf61 e0cb 3ef6 4621 bf60     .Z.>..a....>!F`.
  4110d8:	5d27 3efc be05 bf5e e7e4 3f00 2d53 bf5d     '].>..^....?S-].
  4110e8:	9c3d 3f03 941a bf5b 4b82 3f06 f26a bf59     =..?..[..K.?j.Y.
  4110f8:	f59b 3f08 4853 bf58 9a6b 3f0b 95e5 bf56     ...?SHX.k..?..V.
  411108:	39da 3f0e db31 bf54 d3cd 3f10 1849 bf53     .9.?1.T....?I.S.
  411118:	682a 3f13 4d3d bf51 f6d9 3f15 7a1f bf4f     *h.?=MQ....?.zO.
  411128:	7fc0 3f18 9f02 bf4d 02c6 3f1b bbf8 bf4b     ...?..M....?..K.
  411138:	7fd1 3f1d d112 bf49 f6cb 3f1f de65 bf47     ...?..I....?e.G.
  411148:	6799 3f22 e403 bf45 d225 3f24 e200 bf43     .g"?..E.%.$?..C.
  411158:	3656 3f27 d870 bf41 9415 3f29 c767 bf3f     V6'?p.A...)?g.?.
  411168:	eb4a 3f2b aef9 bf3d 3bde 3f2e 8f3b bf3b     J.+?..=..;.?;.;.
  411178:	85bb 3f30 6842 bf39 c8c9 3f32 3a23 bf37     ..0?Bh9...2?#:7.
  411188:	04f3 3f35 04f3 bf35 3a23 3f37 c8c9 bf32     ..5?..5.#:7?..2.
  411198:	6842 3f39 85bb bf30 8f3b 3f3b 3bde bf2e     Bh9?..0.;.;?.;..
  4111a8:	aef9 3f3d eb4a bf2b c767 3f3f 9415 bf29     ..=?J.+.g.??..).
  4111b8:	d870 3f41 3656 bf27 e200 3f43 d225 bf24     p.A?V6'...C?%.$.
  4111c8:	e403 3f45 6799 bf22 de65 3f47 f6cb bf1f     ..E?.g".e.G?....
  4111d8:	d112 3f49 7fd1 bf1d bbf8 3f4b 02c6 bf1b     ..I?......K?....
  4111e8:	9f02 3f4d 7fc0 bf18 7a1f 3f4f f6d9 bf15     ..M?.....zO?....
  4111f8:	4d3d 3f51 682a bf13 1849 3f53 d3cd bf10     =MQ?*h..I.S?....
  411208:	db31 3f54 39da bf0e 95e5 3f56 9a6b bf0b     1.T?.9....V?k...
  411218:	4853 3f58 f59b bf08 f26a 3f59 4b82 bf06     SHX?....j.Y?.K..
  411228:	941a 3f5b 9c3d bf03 2d53 3f5d e7e4 bf00     ..[?=...S-]?....
  411238:	be05 3f5e 5d27 befc 4621 3f60 e0cb bef6     ..^?']..!F`?....
  411248:	c598 3f61 5aea bef1 3c5a 3f63 cbbb beeb     ..a?.Z..Z<c?....
  411258:	aa59 3f64 3375 bee6 0f88 3f66 924f bee0     Y.d?u3....f?O...
  411268:	6bd8 3f67 e880 beda bf3c 3f68 3641 bed5     .kg?....<.h?A6..
  411278:	09a7 3f6a 7bca becf 4b0c 3f6b b953 bec9     ..j?.{...Kk?S...
  411288:	835e 3f6c ef15 bec3 b293 3f6d 1d4a bebe     ^.l?......m?J...
  411298:	d89e 3f6e 442a beb8 f573 3f6f 63ef beb2     ..n?*D..s.o?.c..
  4112a8:	0908 3f71 7cd4 beac 1352 3f72 8f12 bea6     ..q?.|..R.r?....
  4112b8:	1447 3f73 9ae5 bea0 0bdd 3f74 a086 be9a     G.s?......t?....
  4112c8:	fa0b 3f74 a031 be94 dec6 3f75 9a22 be8e     ..t?1.....u?"...
  4112d8:	ba07 3f76 8e93 be88 8bc5 3f77 7dc0 be82     ..v?......w?.}..
  4112e8:	53f8 3f78 cfcc be78 1298 3f79 9a7f be6c     .Sx?..x...y?..l.
  4112f8:	c79d 3f79 5c13 be60 7302 3f7a 1501 be54     ..y?.\`..sz?..T.
  411308:	14be 3f7b c5c2 be47 accd 3f7b 6ecf be3b     ..{?..G...{?.n;.
  411318:	3b28 3f7c 10a2 be2f bfc9 3f7c abb6 be22     (;|?../...|?..".
  411328:	3aac 3f7d 4083 be16 abcc 3f7d cf86 be09     .:}?.@....}?....
  411338:	1324 3f7e b273 bdfa 70b0 3f7e bc2e bde1     $.~?s....p~?....
  411348:	c46d 3f7e bd36 bdc8 0e58 3f7f b680 bdaf     m.~?6...X..?....
  411358:	4e6d 3f7f a905 bd96 84ab 3f7f 2b74 bd7b     mN.?.......?t+{.
  411368:	b10f 3f7f fb2f bd48 d398 3f7f c32c bd16     ...?/.H....?,...
  411378:	ec43 3f7f 0ab0 bcc9 fb11 3f7f 0e90 bc49     C..?.......?..I.

00411388 <arm_cfft_sR_f32_len1024>:
  411388:	0400 0000 9b88 0040 68c8 0040 0708 0000     ......@..h@.....

00411398 <arm_cfft_sR_f32_len2048>:
  411398:	0800 0000 bb88 0040 76d8 0040 0ee0 0000     ......@..v@.....

004113a8 <arm_cfft_sR_f32_len256>:
  4113a8:	0100 0000 fb88 0040 9498 0040 01b8 0000     ......@...@.....

004113b8 <arm_cfft_sR_f32_len512>:
  4113b8:	0200 0000 0388 0041 9808 0040 01c0 0000     ......A...@.....
  4113c8:	452d 092d 4d57 3938 3430 6920 696e 6974     -E-.WM8904 initi
  4113d8:	6c61 7a69 7461 6f69 206e 6166 6c69 6465     alization failed
  4113e8:	0d2e 0000 4d57 3938 3430 7420 6977 6920     ....WM8904 twi i
  4113f8:	696e 2174 0d0a 0000 4d57 3938 3430 6e20     nit!....WM8904 n
  411408:	746f 6620 756f 646e 0a21 000d 6f63 6564     ot found!...code
  411418:	2063 6f63 666e 6769 7275 6465 0a21 000d     c configured!...
  411428:	6f63 666e 6769 7275 6465 7320 6373 0a21     configured ssc!.
  411438:	000d 0000 6f63 666e 6769 7275 6465 7820     ....configured x
  411448:	6d64 2161 0d0a 0000 3525 2064 2520 2e35     dma!....%5d  %5.
  411458:	6634 0d20 000a 0000 7173 7472 0066 0000     4f .....sqrtf...

00411468 <_global_impure_ptr>:
  411468:	0020 2040 3130 3332 3534 3736 3938 4241      .@ 0123456789AB
  411478:	4443 4645 0000 0000 3130 3332 3534 3736     CDEF....01234567
  411488:	3938 6261 6463 6665 0000 0000 6e28 6c75     89abcdef....(nul
  411498:	296c 0000                                   l)..

0041149c <blanks.7217>:
  41149c:	2020 2020 2020 2020 2020 2020 2020 2020                     

004114ac <zeroes.7218>:
  4114ac:	3030 3030 3030 3030 3030 3030 3030 3030     0000000000000000
  4114bc:	0043 0000 4f50 4953 0058 0000 002e 0000     C...POSIX.......

004114cc <_ctype_>:
  4114cc:	2000 2020 2020 2020 2020 2828 2828 2028     .         ((((( 
  4114dc:	2020 2020 2020 2020 2020 2020 2020 2020                     
  4114ec:	8820 1010 1010 1010 1010 1010 1010 1010      ...............
  4114fc:	0410 0404 0404 0404 0404 1004 1010 1010     ................
  41150c:	1010 4141 4141 4141 0101 0101 0101 0101     ..AAAAAA........
  41151c:	0101 0101 0101 0101 0101 0101 1010 1010     ................
  41152c:	1010 4242 4242 4242 0202 0202 0202 0202     ..BBBBBB........
  41153c:	0202 0202 0202 0202 0202 0202 1010 1010     ................
  41154c:	0020 0000 0000 0000 0000 0000 0000 0000      ...............
	...

004115d0 <_init>:
  4115d0:	b5f8      	push	{r3, r4, r5, r6, r7, lr}
  4115d2:	bf00      	nop
  4115d4:	bcf8      	pop	{r3, r4, r5, r6, r7}
  4115d6:	bc08      	pop	{r3}
  4115d8:	469e      	mov	lr, r3
  4115da:	4770      	bx	lr

004115dc <__init_array_start>:
  4115dc:	00404a59 	.word	0x00404a59

004115e0 <__frame_dummy_init_array_entry>:
  4115e0:	0040018d                                ..@.

004115e4 <_fini>:
  4115e4:	b5f8      	push	{r3, r4, r5, r6, r7, lr}
  4115e6:	bf00      	nop
  4115e8:	bcf8      	pop	{r3, r4, r5, r6, r7}
  4115ea:	bc08      	pop	{r3}
  4115ec:	469e      	mov	lr, r3
  4115ee:	4770      	bx	lr

004115f0 <__fini_array_start>:
  4115f0:	00400169 	.word	0x00400169

Disassembly of section .relocate:

20400000 <portable_delay_cycles>:
RAMFUNC
void portable_delay_cycles(unsigned long n)
{
	UNUSED(n);

	__asm (
20400000:	f3bf 8f5f 	dmb	sy
20400004:	3801      	subs	r0, #1
20400006:	d1fb      	bne.n	20400000 <portable_delay_cycles>
20400008:	4770      	bx	lr
	...

2040000c <doBitReverse>:
2040000c:	0001 0000                                   ....

20400010 <g_interrupt_enabled>:
20400010:	0001 0000                                   ....

20400014 <SystemCoreClock>:
20400014:	0900 003d                                   ..=.

20400018 <__fdlib_version>:
20400018:	0001 0000                                   ....

2040001c <_impure_ptr>:
2040001c:	0020 2040                                    .@ 

20400020 <impure_data>:
20400020:	0000 0000 030c 2040 0374 2040 03dc 2040     ......@ t.@ ..@ 
	...
204000c8:	0001 0000 0000 0000 330e abcd 1234 e66d     .........3..4.m.
204000d8:	deec 0005 000b 0000 0000 0000 0000 0000     ................
	...

20400448 <__atexit_recursive_mutex>:
20400448:	0b2c 2044                                   ,.D 

2040044c <__global_locale>:
2040044c:	0043 0000 0000 0000 0000 0000 0000 0000     C...............
	...
2040046c:	0043 0000 0000 0000 0000 0000 0000 0000     C...............
	...
2040048c:	0043 0000 0000 0000 0000 0000 0000 0000     C...............
	...
204004ac:	0043 0000 0000 0000 0000 0000 0000 0000     C...............
	...
204004cc:	0043 0000 0000 0000 0000 0000 0000 0000     C...............
	...
204004ec:	0043 0000 0000 0000 0000 0000 0000 0000     C...............
	...
2040050c:	0043 0000 0000 0000 0000 0000 0000 0000     C...............
	...
2040052c:	6321 0040 5a51 0040 0000 0000 14cc 0041     !c@.QZ@.......A.
2040053c:	14c8 0041 147c 0041 147c 0041 147c 0041     ..A.|.A.|.A.|.A.
2040054c:	147c 0041 147c 0041 147c 0041 147c 0041     |.A.|.A.|.A.|.A.
2040055c:	147c 0041 147c 0041 ffff ffff ffff ffff     |.A.|.A.........
2040056c:	ffff ffff ffff 0000 0001 5341 4943 0049     ..........ASCII.
	...
20400594:	0000 5341 4943 0049 0000 0000 0000 0000     ..ASCII.........
	...

204005b8 <__malloc_av_>:
	...
204005c0:	05b8 2040 05b8 2040 05c0 2040 05c0 2040     ..@ ..@ ..@ ..@ 
204005d0:	05c8 2040 05c8 2040 05d0 2040 05d0 2040     ..@ ..@ ..@ ..@ 
204005e0:	05d8 2040 05d8 2040 05e0 2040 05e0 2040     ..@ ..@ ..@ ..@ 
204005f0:	05e8 2040 05e8 2040 05f0 2040 05f0 2040     ..@ ..@ ..@ ..@ 
20400600:	05f8 2040 05f8 2040 0600 2040 0600 2040     ..@ ..@ ..@ ..@ 
20400610:	0608 2040 0608 2040 0610 2040 0610 2040     ..@ ..@ ..@ ..@ 
20400620:	0618 2040 0618 2040 0620 2040 0620 2040     ..@ ..@  .@  .@ 
20400630:	0628 2040 0628 2040 0630 2040 0630 2040     (.@ (.@ 0.@ 0.@ 
20400640:	0638 2040 0638 2040 0640 2040 0640 2040     8.@ 8.@ @.@ @.@ 
20400650:	0648 2040 0648 2040 0650 2040 0650 2040     H.@ H.@ P.@ P.@ 
20400660:	0658 2040 0658 2040 0660 2040 0660 2040     X.@ X.@ `.@ `.@ 
20400670:	0668 2040 0668 2040 0670 2040 0670 2040     h.@ h.@ p.@ p.@ 
20400680:	0678 2040 0678 2040 0680 2040 0680 2040     x.@ x.@ ..@ ..@ 
20400690:	0688 2040 0688 2040 0690 2040 0690 2040     ..@ ..@ ..@ ..@ 
204006a0:	0698 2040 0698 2040 06a0 2040 06a0 2040     ..@ ..@ ..@ ..@ 
204006b0:	06a8 2040 06a8 2040 06b0 2040 06b0 2040     ..@ ..@ ..@ ..@ 
204006c0:	06b8 2040 06b8 2040 06c0 2040 06c0 2040     ..@ ..@ ..@ ..@ 
204006d0:	06c8 2040 06c8 2040 06d0 2040 06d0 2040     ..@ ..@ ..@ ..@ 
204006e0:	06d8 2040 06d8 2040 06e0 2040 06e0 2040     ..@ ..@ ..@ ..@ 
204006f0:	06e8 2040 06e8 2040 06f0 2040 06f0 2040     ..@ ..@ ..@ ..@ 
20400700:	06f8 2040 06f8 2040 0700 2040 0700 2040     ..@ ..@ ..@ ..@ 
20400710:	0708 2040 0708 2040 0710 2040 0710 2040     ..@ ..@ ..@ ..@ 
20400720:	0718 2040 0718 2040 0720 2040 0720 2040     ..@ ..@  .@  .@ 
20400730:	0728 2040 0728 2040 0730 2040 0730 2040     (.@ (.@ 0.@ 0.@ 
20400740:	0738 2040 0738 2040 0740 2040 0740 2040     8.@ 8.@ @.@ @.@ 
20400750:	0748 2040 0748 2040 0750 2040 0750 2040     H.@ H.@ P.@ P.@ 
20400760:	0758 2040 0758 2040 0760 2040 0760 2040     X.@ X.@ `.@ `.@ 
20400770:	0768 2040 0768 2040 0770 2040 0770 2040     h.@ h.@ p.@ p.@ 
20400780:	0778 2040 0778 2040 0780 2040 0780 2040     x.@ x.@ ..@ ..@ 
20400790:	0788 2040 0788 2040 0790 2040 0790 2040     ..@ ..@ ..@ ..@ 
204007a0:	0798 2040 0798 2040 07a0 2040 07a0 2040     ..@ ..@ ..@ ..@ 
204007b0:	07a8 2040 07a8 2040 07b0 2040 07b0 2040     ..@ ..@ ..@ ..@ 
204007c0:	07b8 2040 07b8 2040 07c0 2040 07c0 2040     ..@ ..@ ..@ ..@ 
204007d0:	07c8 2040 07c8 2040 07d0 2040 07d0 2040     ..@ ..@ ..@ ..@ 
204007e0:	07d8 2040 07d8 2040 07e0 2040 07e0 2040     ..@ ..@ ..@ ..@ 
204007f0:	07e8 2040 07e8 2040 07f0 2040 07f0 2040     ..@ ..@ ..@ ..@ 
20400800:	07f8 2040 07f8 2040 0800 2040 0800 2040     ..@ ..@ ..@ ..@ 
20400810:	0808 2040 0808 2040 0810 2040 0810 2040     ..@ ..@ ..@ ..@ 
20400820:	0818 2040 0818 2040 0820 2040 0820 2040     ..@ ..@  .@  .@ 
20400830:	0828 2040 0828 2040 0830 2040 0830 2040     (.@ (.@ 0.@ 0.@ 
20400840:	0838 2040 0838 2040 0840 2040 0840 2040     8.@ 8.@ @.@ @.@ 
20400850:	0848 2040 0848 2040 0850 2040 0850 2040     H.@ H.@ P.@ P.@ 
20400860:	0858 2040 0858 2040 0860 2040 0860 2040     X.@ X.@ `.@ `.@ 
20400870:	0868 2040 0868 2040 0870 2040 0870 2040     h.@ h.@ p.@ p.@ 
20400880:	0878 2040 0878 2040 0880 2040 0880 2040     x.@ x.@ ..@ ..@ 
20400890:	0888 2040 0888 2040 0890 2040 0890 2040     ..@ ..@ ..@ ..@ 
204008a0:	0898 2040 0898 2040 08a0 2040 08a0 2040     ..@ ..@ ..@ ..@ 
204008b0:	08a8 2040 08a8 2040 08b0 2040 08b0 2040     ..@ ..@ ..@ ..@ 
204008c0:	08b8 2040 08b8 2040 08c0 2040 08c0 2040     ..@ ..@ ..@ ..@ 
204008d0:	08c8 2040 08c8 2040 08d0 2040 08d0 2040     ..@ ..@ ..@ ..@ 
204008e0:	08d8 2040 08d8 2040 08e0 2040 08e0 2040     ..@ ..@ ..@ ..@ 
204008f0:	08e8 2040 08e8 2040 08f0 2040 08f0 2040     ..@ ..@ ..@ ..@ 
20400900:	08f8 2040 08f8 2040 0900 2040 0900 2040     ..@ ..@ ..@ ..@ 
20400910:	0908 2040 0908 2040 0910 2040 0910 2040     ..@ ..@ ..@ ..@ 
20400920:	0918 2040 0918 2040 0920 2040 0920 2040     ..@ ..@  .@  .@ 
20400930:	0928 2040 0928 2040 0930 2040 0930 2040     (.@ (.@ 0.@ 0.@ 
20400940:	0938 2040 0938 2040 0940 2040 0940 2040     8.@ 8.@ @.@ @.@ 
20400950:	0948 2040 0948 2040 0950 2040 0950 2040     H.@ H.@ P.@ P.@ 
20400960:	0958 2040 0958 2040 0960 2040 0960 2040     X.@ X.@ `.@ `.@ 
20400970:	0968 2040 0968 2040 0970 2040 0970 2040     h.@ h.@ p.@ p.@ 
20400980:	0978 2040 0978 2040 0980 2040 0980 2040     x.@ x.@ ..@ ..@ 
20400990:	0988 2040 0988 2040 0990 2040 0990 2040     ..@ ..@ ..@ ..@ 
204009a0:	0998 2040 0998 2040 09a0 2040 09a0 2040     ..@ ..@ ..@ ..@ 
204009b0:	09a8 2040 09a8 2040 09b0 2040 09b0 2040     ..@ ..@ ..@ ..@ 

204009c0 <__malloc_sbrk_base>:
204009c0:	ffff ffff                                   ....

204009c4 <__malloc_trim_threshold>:
204009c4:	0000 0002                                   ....
